
Merging program properties


Discarded input sections

 .note.gnu.property
                0x0000000000000000       0x20 /home/roscube/Desktop/UMSD_v7.0.0_ADLINK/UMSD_v7.0.0/obj/src/api/msdDrv_obj/msdAdvVct.o
 .note.gnu.property
                0x0000000000000000       0x20 /home/roscube/Desktop/UMSD_v7.0.0_ADLINK/UMSD_v7.0.0/obj/src/api/msdDrv_obj/msdBrgFdb.o
 .note.gnu.property
                0x0000000000000000       0x20 /home/roscube/Desktop/UMSD_v7.0.0_ADLINK/UMSD_v7.0.0/obj/src/api/msdDrv_obj/msdBrgVtu.o
 .note.gnu.property
                0x0000000000000000       0x20 /home/roscube/Desktop/UMSD_v7.0.0_ADLINK/UMSD_v7.0.0/obj/src/api/msdDrv_obj/msdBrgStu.o
 .note.gnu.property
                0x0000000000000000       0x20 /home/roscube/Desktop/UMSD_v7.0.0_ADLINK/UMSD_v7.0.0/obj/src/api/msdDrv_obj/msdPIRL.o
 .note.gnu.property
                0x0000000000000000       0x20 /home/roscube/Desktop/UMSD_v7.0.0_ADLINK/UMSD_v7.0.0/obj/src/api/msdDrv_obj/msdPortRmon.o
 .note.gnu.property
                0x0000000000000000       0x20 /home/roscube/Desktop/UMSD_v7.0.0_ADLINK/UMSD_v7.0.0/obj/src/api/msdDrv_obj/msdPortCtrl.o
 .note.gnu.property
                0x0000000000000000       0x20 /home/roscube/Desktop/UMSD_v7.0.0_ADLINK/UMSD_v7.0.0/obj/src/api/msdDrv_obj/msdQosMap.o
 .note.gnu.property
                0x0000000000000000       0x20 /home/roscube/Desktop/UMSD_v7.0.0_ADLINK/UMSD_v7.0.0/obj/src/api/msdDrv_obj/msdQav.o
 .note.gnu.property
                0x0000000000000000       0x20 /home/roscube/Desktop/UMSD_v7.0.0_ADLINK/UMSD_v7.0.0/obj/src/api/msdDrv_obj/msdQueueCtrl.o
 .note.gnu.property
                0x0000000000000000       0x20 /home/roscube/Desktop/UMSD_v7.0.0_ADLINK/UMSD_v7.0.0/obj/src/api/msdDrv_obj/msdSysCtrl.o
 .note.gnu.property
                0x0000000000000000       0x20 /home/roscube/Desktop/UMSD_v7.0.0_ADLINK/UMSD_v7.0.0/obj/src/api/msdDrv_obj/msdPhyCtrl.o
 .note.gnu.property
                0x0000000000000000       0x20 /home/roscube/Desktop/UMSD_v7.0.0_ADLINK/UMSD_v7.0.0/obj/src/api/msdDrv_obj/msdIMP.o
 .note.gnu.property
                0x0000000000000000       0x20 /home/roscube/Desktop/UMSD_v7.0.0_ADLINK/UMSD_v7.0.0/obj/src/api/msdDrv_obj/msdRMU.o
 .note.gnu.property
                0x0000000000000000       0x20 /home/roscube/Desktop/UMSD_v7.0.0_ADLINK/UMSD_v7.0.0/obj/src/api/msdDrv_obj/msdTrunk.o
 .note.gnu.property
                0x0000000000000000       0x20 /home/roscube/Desktop/UMSD_v7.0.0_ADLINK/UMSD_v7.0.0/obj/src/api/msdDrv_obj/msdPTP.o
 .note.gnu.property
                0x0000000000000000       0x20 /home/roscube/Desktop/UMSD_v7.0.0_ADLINK/UMSD_v7.0.0/obj/src/api/msdDrv_obj/msdLed.o
 .note.gnu.property
                0x0000000000000000       0x20 /home/roscube/Desktop/UMSD_v7.0.0_ADLINK/UMSD_v7.0.0/obj/src/api/msdDrv_obj/msdArp.o
 .note.gnu.property
                0x0000000000000000       0x20 /home/roscube/Desktop/UMSD_v7.0.0_ADLINK/UMSD_v7.0.0/obj/src/api/msdDrv_obj/msdEcid.o
 .note.gnu.property
                0x0000000000000000       0x20 /home/roscube/Desktop/UMSD_v7.0.0_ADLINK/UMSD_v7.0.0/obj/src/api/msdDrv_obj/msdEEPROM.o
 .note.gnu.property
                0x0000000000000000       0x20 /home/roscube/Desktop/UMSD_v7.0.0_ADLINK/UMSD_v7.0.0/obj/src/api/msdDrv_obj/msdPolicy.o
 .note.gnu.property
                0x0000000000000000       0x20 /home/roscube/Desktop/UMSD_v7.0.0_ADLINK/UMSD_v7.0.0/obj/src/api/msdDrv_obj/msdTCAMRC.o
 .note.gnu.property
                0x0000000000000000       0x20 /home/roscube/Desktop/UMSD_v7.0.0_ADLINK/UMSD_v7.0.0/obj/src/api/msdDrv_obj/msdTCAMRCComp.o
 .note.gnu.property
                0x0000000000000000       0x20 /home/roscube/Desktop/UMSD_v7.0.0_ADLINK/UMSD_v7.0.0/obj/src/api/msdDrv_obj/msdQci.o
 .note.gnu.property
                0x0000000000000000       0x20 /home/roscube/Desktop/UMSD_v7.0.0_ADLINK/UMSD_v7.0.0/obj/src/api/msdDrv_obj/msdQcr.o
 .note.gnu.property
                0x0000000000000000       0x20 /home/roscube/Desktop/UMSD_v7.0.0_ADLINK/UMSD_v7.0.0/obj/src/api/msdDrv_obj/msdFRER.o
 .note.gnu.property
                0x0000000000000000       0x20 /home/roscube/Desktop/UMSD_v7.0.0_ADLINK/UMSD_v7.0.0/obj/src/api/msdDrv_obj/msdMACSec.o

Memory Configuration

Name             Origin             Length             Attributes
*default*        0x0000000000000000 0xffffffffffffffff

Linker script and memory map

LOAD /home/roscube/Desktop/UMSD_v7.0.0_ADLINK/UMSD_v7.0.0/obj/src/api/msdDrv_obj/msdTCAM.o
LOAD /home/roscube/Desktop/UMSD_v7.0.0_ADLINK/UMSD_v7.0.0/obj/src/api/msdDrv_obj/msdAdvVct.o
LOAD /home/roscube/Desktop/UMSD_v7.0.0_ADLINK/UMSD_v7.0.0/obj/src/api/msdDrv_obj/msdBrgFdb.o
LOAD /home/roscube/Desktop/UMSD_v7.0.0_ADLINK/UMSD_v7.0.0/obj/src/api/msdDrv_obj/msdBrgVtu.o
LOAD /home/roscube/Desktop/UMSD_v7.0.0_ADLINK/UMSD_v7.0.0/obj/src/api/msdDrv_obj/msdBrgStu.o
LOAD /home/roscube/Desktop/UMSD_v7.0.0_ADLINK/UMSD_v7.0.0/obj/src/api/msdDrv_obj/msdPIRL.o
LOAD /home/roscube/Desktop/UMSD_v7.0.0_ADLINK/UMSD_v7.0.0/obj/src/api/msdDrv_obj/msdPortRmon.o
LOAD /home/roscube/Desktop/UMSD_v7.0.0_ADLINK/UMSD_v7.0.0/obj/src/api/msdDrv_obj/msdPortCtrl.o
LOAD /home/roscube/Desktop/UMSD_v7.0.0_ADLINK/UMSD_v7.0.0/obj/src/api/msdDrv_obj/msdQosMap.o
LOAD /home/roscube/Desktop/UMSD_v7.0.0_ADLINK/UMSD_v7.0.0/obj/src/api/msdDrv_obj/msdQav.o
LOAD /home/roscube/Desktop/UMSD_v7.0.0_ADLINK/UMSD_v7.0.0/obj/src/api/msdDrv_obj/msdQueueCtrl.o
LOAD /home/roscube/Desktop/UMSD_v7.0.0_ADLINK/UMSD_v7.0.0/obj/src/api/msdDrv_obj/msdSysCtrl.o
LOAD /home/roscube/Desktop/UMSD_v7.0.0_ADLINK/UMSD_v7.0.0/obj/src/api/msdDrv_obj/msdPhyCtrl.o
LOAD /home/roscube/Desktop/UMSD_v7.0.0_ADLINK/UMSD_v7.0.0/obj/src/api/msdDrv_obj/msdIMP.o
LOAD /home/roscube/Desktop/UMSD_v7.0.0_ADLINK/UMSD_v7.0.0/obj/src/api/msdDrv_obj/msdRMU.o
LOAD /home/roscube/Desktop/UMSD_v7.0.0_ADLINK/UMSD_v7.0.0/obj/src/api/msdDrv_obj/msdTrunk.o
LOAD /home/roscube/Desktop/UMSD_v7.0.0_ADLINK/UMSD_v7.0.0/obj/src/api/msdDrv_obj/msdPTP.o
LOAD /home/roscube/Desktop/UMSD_v7.0.0_ADLINK/UMSD_v7.0.0/obj/src/api/msdDrv_obj/msdLed.o
LOAD /home/roscube/Desktop/UMSD_v7.0.0_ADLINK/UMSD_v7.0.0/obj/src/api/msdDrv_obj/msdArp.o
LOAD /home/roscube/Desktop/UMSD_v7.0.0_ADLINK/UMSD_v7.0.0/obj/src/api/msdDrv_obj/msdEcid.o
LOAD /home/roscube/Desktop/UMSD_v7.0.0_ADLINK/UMSD_v7.0.0/obj/src/api/msdDrv_obj/msdEEPROM.o
LOAD /home/roscube/Desktop/UMSD_v7.0.0_ADLINK/UMSD_v7.0.0/obj/src/api/msdDrv_obj/msdPolicy.o
LOAD /home/roscube/Desktop/UMSD_v7.0.0_ADLINK/UMSD_v7.0.0/obj/src/api/msdDrv_obj/msdTCAMRC.o
LOAD /home/roscube/Desktop/UMSD_v7.0.0_ADLINK/UMSD_v7.0.0/obj/src/api/msdDrv_obj/msdTCAMRCComp.o
LOAD /home/roscube/Desktop/UMSD_v7.0.0_ADLINK/UMSD_v7.0.0/obj/src/api/msdDrv_obj/msdQci.o
LOAD /home/roscube/Desktop/UMSD_v7.0.0_ADLINK/UMSD_v7.0.0/obj/src/api/msdDrv_obj/msdQcr.o
LOAD /home/roscube/Desktop/UMSD_v7.0.0_ADLINK/UMSD_v7.0.0/obj/src/api/msdDrv_obj/msdFRER.o
LOAD /home/roscube/Desktop/UMSD_v7.0.0_ADLINK/UMSD_v7.0.0/obj/src/api/msdDrv_obj/msdMACSec.o

.interp
 *(.interp)

.note.gnu.property
                0x0000000000000000       0x20
 .note.gnu.property
                0x0000000000000000       0x20 /home/roscube/Desktop/UMSD_v7.0.0_ADLINK/UMSD_v7.0.0/obj/src/api/msdDrv_obj/msdTCAM.o

.note.gnu.build-id
 *(.note.gnu.build-id)

.hash
 *(.hash)

.gnu.hash
 *(.gnu.hash)

.dynsym
 *(.dynsym)

.dynstr
 *(.dynstr)

.gnu.version
 *(.gnu.version)

.gnu.version_d
 *(.gnu.version_d)

.gnu.version_r
 *(.gnu.version_r)

.rela.init
 *(.rela.init)

.rela.text
 *(.rela.text)

.rela.fini
 *(.rela.fini)

.rela.rodata
 *(.rela.rodata)

.rela.data.rel.ro
 *(.rela.data.rel.ro)

.rela.data
 *(.rela.data)

.rela.tdata
 *(.rela.tdata)

.rela.tbss
 *(.rela.tbss)

.rela.ctors
 *(.rela.ctors)

.rela.dtors
 *(.rela.dtors)

.rela.got
 *(.rela.got)

.rela.bss
 *(.rela.bss)

.rela.ldata
 *(.rela.ldata)

.rela.lbss
 *(.rela.lbss)

.rela.lrodata
 *(.rela.lrodata)

.rela.ifunc
 *(.rela.ifunc)

.rela.plt
 *(.rela.plt)

.relr.dyn
 *(.relr.dyn)

.init
 *(SORT_NONE(.init))

.plt
 *(.plt)

.plt.got
 *(.plt.got)

.plt.sec
 *(.plt.sec)

.text           0x0000000000000000     0xc390
 *(.text .stub)
 .text          0x0000000000000000      0x67c /home/roscube/Desktop/UMSD_v7.0.0_ADLINK/UMSD_v7.0.0/obj/src/api/msdDrv_obj/msdTCAM.o
                0x0000000000000000                msdTcamAllDelete
                0x0000000000000050                msdTcamEntryDelete
                0x00000000000000a0                msdTcamEntryAdd
                0x0000000000000100                msdTcamEntryRead
                0x0000000000000160                msdTcamEntryGetNext
                0x00000000000001c0                msdTcamEntryFind
                0x0000000000000220                msdPortTcamModeSet
                0x0000000000000280                msdPortTcamModeGet
                0x00000000000002e0                msdTcamEntryPortAdd
                0x0000000000000340                msdTcamEntryPortRemove
                0x00000000000003a0                msdEgrTcamEntryPerPortDelete
                0x0000000000000400                msdEgrTcamEntryAllPortsDelete
                0x0000000000000450                msdEgrTcamEntryAdd
                0x00000000000004b0                msdEgrTcamEntryGetNext
                0x0000000000000510                msdEgrTcamEntryRead
                0x0000000000000570                msdTcamDump
                0x00000000000005c0                msdTcamAdvConfig
 *fill*         0x000000000000067c        0x4 
 .text          0x0000000000000680       0xcd /home/roscube/Desktop/UMSD_v7.0.0_ADLINK/UMSD_v7.0.0/obj/src/api/msdDrv_obj/msdAdvVct.o
                0x0000000000000680                msdVctGetAdvCableDiag
                0x00000000000006f0                msdVctGetAdvExtendStatus
 *fill*         0x000000000000074d        0x3 
 .text          0x0000000000000750      0xc00 /home/roscube/Desktop/UMSD_v7.0.0_ADLINK/UMSD_v7.0.0/obj/src/api/msdDrv_obj/msdBrgFdb.o
                0x0000000000000750                msdFdbMacEntryAdd
                0x00000000000007a0                msdFdbAllDelete
                0x00000000000007f0                msdFdbAllDeleteInDB
                0x0000000000000850                msdFdbMove
                0x00000000000008b0                msdFdbMoveInDB
                0x0000000000000920                msdFdbPortRemove
                0x0000000000000980                msdFdbPortRemoveInDB
                0x00000000000009e0                msdFdbMacEntryDelete
                0x0000000000000a40                msdFdbViolationGet
                0x0000000000000a90                msdFdbMacEntryFind
                0x0000000000000b00                msdFdbAgingTimeoutSet
                0x0000000000000b50                msdFdbAgingTimeoutGet
                0x0000000000000ba0                msdFdbLearnOnAllDevicesGet
                0x0000000000000bf0                msdFdbLearnOnAllDevicesSet
                0x0000000000000c40                msdFdbPortLearnLimitSet
                0x0000000000000ca0                msdFdbPortLearnLimitGet
                0x0000000000000d00                msdFdbPortLearnCountGet
                0x0000000000000d60                msdFdbEntryCountGet
                0x0000000000000db0                msdFdbEntryCountPerFidGet
                0x0000000000000e10                msdFdbEntryCountNonStaticGet
                0x0000000000000e60                msdFdbEntryCountNonStaticPerFidGet
                0x0000000000000ec0                msdFdbDump
                0x0000000000000f10                msdPortLockedGet
                0x0000000000000f70                msdPortLockedSet
                0x0000000000000fd0                msdPortHoldAt1Get
                0x0000000000001030                msdPortHoldAt1Set
                0x0000000000001090                msdPortIntOnAgeOutGet
                0x00000000000010f0                msdPortIntOnAgeOutSet
                0x0000000000001150                msdPortRefreshLockedGet
                0x00000000000011b0                msdPortRefreshLockedSet
                0x0000000000001210                msdPortIgnoreWrongDataGet
                0x0000000000001270                msdPortIgnoreWrongDataSet
                0x00000000000012d0                msdFdbEntryNextGet
 .text          0x0000000000001350      0x45a /home/roscube/Desktop/UMSD_v7.0.0_ADLINK/UMSD_v7.0.0/obj/src/api/msdDrv_obj/msdBrgVtu.o
                0x0000000000001350                msdVlanEntryFind
                0x00000000000013b0                msdVlanExists
                0x0000000000001410                msdVlanEntryNextGet
                0x0000000000001470                msdVlanAllDelete
                0x00000000000014c0                msdVlanEntryAdd
                0x0000000000001510                msdVlanEntryDelete
                0x0000000000001560                msdVlanModeSet
                0x00000000000015b0                msdVlanModeGet
                0x0000000000001600                msdVlanViolationGet
                0x0000000000001650                msdVlanEntryCountGet
                0x00000000000016a0                msdVlanMemberTagSet
                0x0000000000001700                msdVlanMemberTagGet
                0x0000000000001760                msdVtuDump
 *fill*         0x00000000000017aa        0x6 
 .text          0x00000000000017b0      0x1fa /home/roscube/Desktop/UMSD_v7.0.0_ADLINK/UMSD_v7.0.0/obj/src/api/msdDrv_obj/msdBrgStu.o
                0x00000000000017b0                msdStuEntryAdd
                0x0000000000001800                msdStuEntryNextGet
                0x0000000000001860                msdStuEntryDelete
                0x00000000000018b0                msdStuEntryFind
                0x0000000000001910                msdStuEntryCountGet
                0x0000000000001960                msdStuDump
 *fill*         0x00000000000019aa        0x6 
 .text          0x00000000000019b0      0x3cd /home/roscube/Desktop/UMSD_v7.0.0_ADLINK/UMSD_v7.0.0/obj/src/api/msdDrv_obj/msdPIRL.o
                0x00000000000019b0                msdIRLReset
                0x0000000000001a00                msdIRLInitResourceCounter
                0x0000000000001a60                msdIRLCustomSetup
                0x0000000000001ae0                msdIRLResourceRead
                0x0000000000001b40                msdIRLResourceWrite
                0x0000000000001ba0                msdIRLResRegGet
                0x0000000000001c10                msdIRLResRegSet
                0x0000000000001c80                msdIRLAdvConfig
                0x0000000000001d20                msdIRLAdvConfigDisable
 *fill*         0x0000000000001d7d        0x3 
 .text          0x0000000000001d80      0x247 /home/roscube/Desktop/UMSD_v7.0.0_ADLINK/UMSD_v7.0.0/obj/src/api/msdDrv_obj/msdPortRmon.o
                0x0000000000001d80                msdStatsFlushAll
                0x0000000000001dd0                msdStatsFlushPort
                0x0000000000001e20                msdStatsPortCounterGet
                0x0000000000001e80                msdStatsPortAllCountersGet
                0x0000000000001ee0                msdStatsHistogramModeGet
                0x0000000000001f30                msdStatsHistogramModeSet
                0x0000000000001f80                msdPortMibDump
 *fill*         0x0000000000001fc7        0x9 
 .text          0x0000000000001fd0     0x260a /home/roscube/Desktop/UMSD_v7.0.0_ADLINK/UMSD_v7.0.0/obj/src/api/msdDrv_obj/msdPortCtrl.o
                0x0000000000001fd0                msdPortForceDefaultVlanIdGet
                0x0000000000002030                msdPortForceDefaultVlanIdSet
                0x0000000000002090                msdPortDefaultVlanIdGet
                0x00000000000020f0                msdPortDefaultVlanIdSet
                0x0000000000002150                msdPort8021qModeGet
                0x00000000000021b0                msdPort8021qModeSet
                0x0000000000002210                msdPortDiscardTaggedGet
                0x0000000000002270                msdPortDiscardTaggedSet
                0x00000000000022d0                msdPortDiscardUntaggedGet
                0x0000000000002330                msdPortDiscardUntaggedSet
                0x0000000000002390                msdPortUnicastFloodBlockGet
                0x00000000000023f0                msdPortUnicastFloodBlockSet
                0x0000000000002450                msdPortMulticastFloodBlockGet
                0x00000000000024b0                msdPortMulticastFloodBlockSet
                0x0000000000002510                msdPortDiscardBcastModeGet
                0x0000000000002570                msdPortDiscardBcastModeSet
                0x00000000000025d0                msdPortIGMPSnoopEnableGet
                0x0000000000002630                msdPortIGMPSnoopEnableSet
                0x0000000000002690                msdPortHeaderModeGet
                0x00000000000026f0                msdPortHeaderModeSet
                0x0000000000002750                msdPortDropOnLockGet
                0x00000000000027b0                msdPortDropOnLockSet
                0x0000000000002810                msdPortMtuGet
                0x0000000000002870                msdPortMtuSet
                0x00000000000028d0                msdPortSpecifiedMtuGet
                0x0000000000002930                msdPortSpecifiedMtuSet
                0x0000000000002990                msdPortLearnEnableGet
                0x00000000000029f0                msdPortLearnEnableSet
                0x0000000000002a50                msdPortVTUPriorityOverrideGet
                0x0000000000002ab0                msdPortVTUPriorityOverrideSet
                0x0000000000002b10                msdPortSAPriorityOverrideGet
                0x0000000000002b70                msdPortSAPriorityOverrideSet
                0x0000000000002bd0                msdPortDAPriorityOverrideGet
                0x0000000000002c30                msdPortDAPriorityOverrideSet
                0x0000000000002c90                msdPortMessagePortGet
                0x0000000000002cf0                msdPortMessagePortSet
                0x0000000000002d50                msdPortEtherTypeGet
                0x0000000000002db0                msdPortEtherTypeSet
                0x0000000000002e10                msdPortAllowVidZeroGet
                0x0000000000002e70                msdPortAllowVidZeroSet
                0x0000000000002ed0                msdPortFlowControlEnableGet
                0x0000000000002f30                msdPortFlowControlEnableSet
                0x0000000000002f90                msdPortEgressMonitorSourceEnableGet
                0x0000000000002ff0                msdPortEgressMonitorSourceEnableSet
                0x0000000000003050                msdPortIngressMonitorSourceEnableGet
                0x00000000000030b0                msdPortIngressMonitorSourceEnableSet
                0x0000000000003110                msdPortEgressRateGet
                0x0000000000003170                msdPortEgressRateSet
                0x00000000000031d0                msdPortForceDuplexModeGet
                0x0000000000003230                msdPortForceDuplexModeSet
                0x0000000000003290                msdPortDuplexStatusGet
                0x00000000000032f0                msdPortForceLinkModeGet
                0x0000000000003350                msdPortForceLinkModeSet
                0x00000000000033b0                msdPortLinkStatusGet
                0x0000000000003410                msdPortForceSpeedModeGet
                0x0000000000003470                msdPortForceSpeedModeSet
                0x00000000000034d0                msdPortSpeedStatusGet
                0x0000000000003530                msdPortCutThroughEnableGet
                0x0000000000003590                msdPortCutThroughEnableSet
                0x00000000000035f0                msdPortIgnoreFcsGet
                0x0000000000003650                msdPortIgnoreFcsSet
                0x00000000000036b0                msdPortAllowBadFcsGet
                0x0000000000003710                msdPortAllowBadFcsSet
                0x0000000000003770                msdPortPauseLimitOutGet
                0x00000000000037d0                msdPortPauseLimitOutSet
                0x0000000000003830                msdPortPauseLimitInGet
                0x0000000000003890                msdPortPauseLimitInSet
                0x00000000000038f0                msdPortQueueToPauseGet
                0x0000000000003950                msdPortQueueToPauseSet
                0x00000000000039b0                msdPortRxPriorityFlowControlEnableGet
                0x0000000000003a10                msdPortRxPriorityFlowControlEnableSet
                0x0000000000003a70                msdPortRxPriorityFlowControlToQueueGet
                0x0000000000003ad0                msdPortRxPriorityFlowControlToQueueSet
                0x0000000000003b30                msdPortTxPriorityFlowControlEnableGet
                0x0000000000003b90                msdPortTxPriorityFlowControlEnableSet
                0x0000000000003bf0                msdPortOutQueueSizeGet
                0x0000000000003c50                msdPortMapDAGet
                0x0000000000003cb0                msdPortMapDASet
                0x0000000000003d10                msdPortARPMirrorGet
                0x0000000000003d70                msdPortARPMirrorSet
                0x0000000000003dd0                msdPortBasedVlanMapGet
                0x0000000000003e30                msdPortBasedVlanMapSet
                0x0000000000003e90                msdPortFrameModeGet
                0x0000000000003ef0                msdPortFrameModeSet
                0x0000000000003f50                msdPortEgressModeSet
                0x0000000000003fb0                msdPortEgressModeGet
                0x0000000000004010                msdPortECIDSet
                0x0000000000004070                msdPortECIDGet
                0x00000000000040d0                msdPortIgnoreETagSet
                0x0000000000004130                msdPortIgnoreETagGet
                0x0000000000004190                msdPortStateGet
                0x00000000000041f0                msdPortStateSet
                0x0000000000004250                msdPortRegDump
                0x00000000000042a0                msdPortExtendedPortCtrlRegSet
                0x0000000000004320                msdPortExtendedPortCtrlRegGet
                0x00000000000043a0                msdPortPreemptEnableSet
                0x0000000000004400                msdPortPreemptEnableGet
                0x0000000000004460                msdPortPreemptSizeSet
                0x00000000000044c0                msdPortPreemptSizeGet
                0x0000000000004520                msdPortPreemptQueueSet
                0x0000000000004580                msdPortPreemptQueueGet
 *fill*         0x00000000000045da        0x6 
 .text          0x00000000000045e0      0x5bd /home/roscube/Desktop/UMSD_v7.0.0_ADLINK/UMSD_v7.0.0/obj/src/api/msdDrv_obj/msdQosMap.o
                0x00000000000045e0                msdQosPortPrioMapSet
                0x0000000000004650                msdQosPortPrioMapGet
                0x00000000000046c0                msdQosPortCosToQueueSet
                0x0000000000004720                msdQosPortCosToQueueGet
                0x0000000000004780                msdQosPortCosToDscpMappingSet
                0x00000000000047e0                msdQosPortCosToDscpMappingGet
                0x0000000000004840                msdPortDefQPriSet
                0x00000000000048a0                msdPortDefQPriGet
                0x0000000000004900                msdPortDefFPriSet
                0x0000000000004960                msdPortDefFPriGet
                0x00000000000049c0                msdPortPrioRuleSet
                0x0000000000004a20                msdPortPrioRuleGet
                0x0000000000004a80                msdPortInitialPriSet
                0x0000000000004ae0                msdPortInitialPriGet
                0x0000000000004b40                msdQosPortRewriteDscp
 *fill*         0x0000000000004b9d        0x3 
 .text          0x0000000000004ba0      0x17a /home/roscube/Desktop/UMSD_v7.0.0_ADLINK/UMSD_v7.0.0/obj/src/api/msdDrv_obj/msdQav.o
                0x0000000000004ba0                msdQavPortQpriXRateSet
                0x0000000000004c00                msdQavPortQpriXRateGet
                0x0000000000004c60                msdQavPortQpriXHiLimitSet
                0x0000000000004cc0                msdQavPortQpriXHiLimitGet
 *fill*         0x0000000000004d1a        0x6 
 .text          0x0000000000004d20      0x2dd /home/roscube/Desktop/UMSD_v7.0.0_ADLINK/UMSD_v7.0.0/obj/src/api/msdDrv_obj/msdQueueCtrl.o
                0x0000000000004d20                msdPortQueueCtrlGet
                0x0000000000004d80                msdPortQueueCtrlSet
                0x0000000000004de0                msdPortSchedGet
                0x0000000000004e40                msdPortSchedSet
                0x0000000000004ea0                msdSysQoSWeightGet
                0x0000000000004ef0                msdSysQoSWeightSet
                0x0000000000004f40                msdPortQoSWeightGet
                0x0000000000004fa0                msdPortQoSWeightSet
 *fill*         0x0000000000004ffd        0x3 
 .text          0x0000000000005000      0x917 /home/roscube/Desktop/UMSD_v7.0.0_ADLINK/UMSD_v7.0.0/obj/src/api/msdDrv_obj/msdSysCtrl.o
                0x0000000000005000                msdSysFloodBCSet
                0x0000000000005050                msdSysFloodBCGet
                0x00000000000050a0                msdSysMonitorMgmtCtrlSet
                0x0000000000005100                msdSysMonitorMgmtCtrlGet
                0x0000000000005160                msdSysCPUDestSet
                0x00000000000051b0                msdSysCPUDestGet
                0x0000000000005200                msdSysIngressMonitorDestSet
                0x0000000000005250                msdSysIngressMonitorDestGet
                0x00000000000052a0                msdSysEgressMonitorDestSet
                0x00000000000052f0                msdSysEgressMonitorDestGet
                0x0000000000005340                msdSysRsvd2CpuEnablesSet
                0x0000000000005390                msdSysRsvd2CpuEnablesGet
                0x00000000000053e0                msdSysMGMTPriSet
                0x0000000000005430                msdSysMGMTPriGet
                0x0000000000005480                msdPortSmiSetupSet
                0x00000000000054e0                msdPortSmiSetupGet
                0x0000000000005540                msdGlobal1RegDump
                0x0000000000005590                msdGlobal2RegDump
                0x00000000000055e0                msdSysRMUModeSet
                0x0000000000005630                msdSysRMUModeGet
                0x0000000000005680                msdQbvWrite
                0x00000000000056e0                msdQbvRead
                0x0000000000005740                msdSysDevIntEnableSet
                0x0000000000005790                msdSysDevIntEnableGet
                0x00000000000057e0                msdSysDevIntStatusGet
                0x0000000000005830                msdSysActiveIntEnableSet
                0x0000000000005880                msdSysActiveIntEnableGet
                0x00000000000058d0                msdSysActiveIntStatusGet
 *fill*         0x0000000000005917        0x9 
 .text          0x0000000000005920      0x45d /home/roscube/Desktop/UMSD_v7.0.0_ADLINK/UMSD_v7.0.0/obj/src/api/msdDrv_obj/msdPhyCtrl.o
                0x0000000000005920                msdPhyReset
                0x0000000000005970                msdSerdesReset
                0x00000000000059c0                msdPhyPortLoopbackSet
                0x0000000000005a20                msdPhyPortSpeedSet
                0x0000000000005a80                msdPhyPortPowerDown
                0x0000000000005ae0                msdPhyPortDuplexModeSet
                0x0000000000005b40                msdPhyPortAutoModeSet
                0x0000000000005ba0                msdPhyEEESet
                0x0000000000005c00                msdPhyFlowControlEnableSet
                0x0000000000005c60                msdPhyInterruptEnableSet
                0x0000000000005cc0                msdPhyInterruptEnableGet
                0x0000000000005d20                msdPhyInterruptStatusGet
 *fill*         0x0000000000005d7d        0x3 
 .text          0x0000000000005d80      0x20a /home/roscube/Desktop/UMSD_v7.0.0_ADLINK/UMSD_v7.0.0/obj/src/api/msdDrv_obj/msdIMP.o
                0x0000000000005d80                msdImpRun
                0x0000000000005dd0                msdImpReset
                0x0000000000005e20                msdImpWriteEEPROM
                0x0000000000005e80                msdImpLoadToEEPROM
                0x0000000000005ee0                msdImpLoadToRAM
                0x0000000000005f40                msdImpStop
 *fill*         0x0000000000005f8a        0x6 
 .text          0x0000000000005f90      0x3ad /home/roscube/Desktop/UMSD_v7.0.0_ADLINK/UMSD_v7.0.0/obj/src/api/msdDrv_obj/msdRMU.o
                0x0000000000005f90                msdRMUGetID
                0x0000000000005fe0                msdRMUAtuDump
                0x0000000000006040                msdRMUEcidDump
                0x00000000000060a0                msdRMUMibDump
                0x0000000000006100                msdRMUMib2Dump
                0x0000000000006160                msdRMUMultiRegAccess
                0x00000000000061c0                msdRMUTcamDump
                0x0000000000006220                msdRMUTcamEntryAdd
                0x0000000000006280                msdRMUTcamEntryRead
                0x00000000000062e0                msdRMURegisterDump
 *fill*         0x000000000000633d        0x3 
 .text          0x0000000000006340      0x39b /home/roscube/Desktop/UMSD_v7.0.0_ADLINK/UMSD_v7.0.0/obj/src/api/msdDrv_obj/msdTrunk.o
                0x0000000000006340                msdTrunkMaskTableGet
                0x00000000000063a0                msdTrunkMaskTableSet
                0x0000000000006400                msdTrunkHashTrunkGet
                0x0000000000006450                msdTrunkHashTrunkSet
                0x00000000000064a0                msdTrunkRoutingGet
                0x0000000000006500                msdTrunkRoutingSet
                0x0000000000006560                msdTrunkMappingGet
                0x00000000000065c0                msdTrunkMappingSet
                0x0000000000006620                msdPortLAGPortGet
                0x0000000000006680                msdPortLAGPortSet
 *fill*         0x00000000000066db        0x5 
 .text          0x00000000000066e0      0xfb7 /home/roscube/Desktop/UMSD_v7.0.0_ADLINK/UMSD_v7.0.0/obj/src/api/msdDrv_obj/msdPTP.o
                0x00000000000066e0                msdPtpIntEnableSet
                0x0000000000006740                msdPtpIntEnableGet
                0x00000000000067a0                msdPtpPortPTPEnSet
                0x0000000000006800                msdPtpPortPTPEnGet
                0x0000000000006860                msdPtpPortConfigSet
                0x00000000000068c0                msdPtpPortConfigGet
                0x0000000000006920                msdPtpTimeStampGet
                0x0000000000006980                msdPtpTSValidStGet
                0x00000000000069e0                msdPtpTimeStampReset
                0x0000000000006a40                msdPtpGlobalConfigSet
                0x0000000000006a90                msdPtpGlobalConfigGet
                0x0000000000006ae0                msdPtpIntStatusGet
                0x0000000000006b30                msdPtpMeanPathDelaySet
                0x0000000000006b90                msdPtpMeanPathDelayGet
                0x0000000000006bf0                msdPtpIgrPathDelayAsymSet
                0x0000000000006c50                msdPtpIgrPathDelayAsymGet
                0x0000000000006cb0                msdPtpEgrPathDelayAsymSet
                0x0000000000006d10                msdPtpEgrPathDelayAsymGet
                0x0000000000006d70                msdPtpModeSet
                0x0000000000006dc0                msdPtpModeGet
                0x0000000000006e10                msdPtpMasterSlaveSet
                0x0000000000006e60                msdPtpMasterSlaveGet
                0x0000000000006eb0                msdPtpTODBusyBitStatusGet
                0x0000000000006f00                msdPtpTODStoreCompensation
                0x0000000000006f60                msdPtpTODStoreAll
                0x0000000000006fc0                msdPtpTODCaptureAll
                0x0000000000007020                msdPtpPulseSet
                0x0000000000007070                msdPtpPulseGet
                0x00000000000070c0                msdGetPTPGlobalTime
                0x0000000000007110                msdPtpPortRegGet
                0x0000000000007170                msdPtpPortRegSet
                0x00000000000071d0                msdPtpGlobalRegGet
                0x0000000000007230                msdPtpGlobalRegSet
                0x0000000000007290                msdTaiRegGet
                0x00000000000072f0                msdTaiRegSet
                0x0000000000007350                msdPtp1588v2ConfigSet
                0x00000000000073c0                msdPtp8021asConfigSet
                0x0000000000007420                msdPtp8021asRevConfigSet
                0x0000000000007480                msdPtpPreemptTimestampSelSet
                0x00000000000074e0                msdPtpPreemptTimestampSelGet
                0x0000000000007540                msdPtpPreemptCtrlSet
                0x00000000000075a0                msdPtpPreemptCtrlGet
                0x0000000000007600                msdTaiTrigGenTimerSelSet
                0x0000000000007650                msdTaiTrigGenTimerSelGet
 *fill*         0x0000000000007697        0x9 
 .text          0x00000000000076a0      0x52a /home/roscube/Desktop/UMSD_v7.0.0_ADLINK/UMSD_v7.0.0/obj/src/api/msdDrv_obj/msdLed.o
                0x00000000000076a0                msdLedForceOn
                0x0000000000007700                msdLedForceOff
                0x0000000000007760                msdLedLinkAct
                0x00000000000077c0                msdLedModeSet
                0x0000000000007820                msdLedModeGet
                0x0000000000007880                msdLedBlinkRateSet
                0x00000000000078e0                msdLedBlinkRateGet
                0x0000000000007940                msdLedPulseStretchSet
                0x00000000000079a0                msdLedPulseStretchGet
                0x0000000000007a00                msdLedSpecialModeSet
                0x0000000000007a60                msdLedSpecialModeGet
                0x0000000000007ac0                msdLedCtrlSet
                0x0000000000007b20                msdLedCtrlGet
                0x0000000000007b80                msdLedDump
 *fill*         0x0000000000007bca        0x6 
 .text          0x0000000000007bd0      0x21d /home/roscube/Desktop/UMSD_v7.0.0_ADLINK/UMSD_v7.0.0/obj/src/api/msdDrv_obj/msdArp.o
                0x0000000000007bd0                msdArpMcEntryAdd
                0x0000000000007c30                msdArpUcEntryAdd
                0x0000000000007c90                msdArpEntryDelete
                0x0000000000007ce0                msdArpAllDelete
                0x0000000000007d30                msdArpEntryRead
                0x0000000000007d90                msdArpEntryGetNext
 *fill*         0x0000000000007ded        0x3 
 .text          0x0000000000007df0      0x36a /home/roscube/Desktop/UMSD_v7.0.0_ADLINK/UMSD_v7.0.0/obj/src/api/msdDrv_obj/msdEcid.o
                0x0000000000007df0                msdBpeEnableSet
                0x0000000000007e40                msdBpeEnableGet
                0x0000000000007e90                msdEcidEntryAdd
                0x0000000000007ee0                msdEcidEntryAllDelete
                0x0000000000007f30                msdEcidEntryMove
                0x0000000000007f90                msdEcidEntryDelete
                0x0000000000007ff0                msdEcidEntryNextGet
                0x0000000000008050                msdEcidEntryFind
                0x00000000000080c0                msdEcidEntryCountGet
                0x0000000000008110                msdEcidDump
 *fill*         0x000000000000815a        0x6 
 .text          0x0000000000008160      0x157 /home/roscube/Desktop/UMSD_v7.0.0_ADLINK/UMSD_v7.0.0/obj/src/api/msdDrv_obj/msdEEPROM.o
                0x0000000000008160                msdEEPROMWrite
                0x00000000000081c0                msdEEPROMRead
                0x0000000000008220                msdEEPROMChipSelSet
                0x0000000000008270                msdEEPROMChipSelGet
 *fill*         0x00000000000082b7        0x9 
 .text          0x00000000000082c0     0x154a /home/roscube/Desktop/UMSD_v7.0.0_ADLINK/UMSD_v7.0.0/obj/src/api/msdDrv_obj/msdPolicy.o
                0x00000000000082c0                msdPolicyMgmtCtrlSet
                0x0000000000008320                msdPolicyMgmtCtrlGet
                0x0000000000008380                msdPolicyCPUDestSet
                0x00000000000083e0                msdPolicyCPUDestGet
                0x0000000000008440                msdPolicyIngressMonitorDestSet
                0x00000000000084a0                msdPolicyIngressMonitorDestGet
                0x0000000000008500                msdPolicyRsvd2CpuEnablesSet
                0x0000000000008560                msdPolicyRsvd2CpuEnablesGet
                0x00000000000085c0                msdPolicyMGMTPriSet
                0x0000000000008620                msdPolicyMGMTPriGet
                0x0000000000008680                msdPolicyRouteDestSet
                0x00000000000086e0                msdPolicyRouteDestGet
                0x0000000000008740                msdPolicyMirrorDestSet
                0x00000000000087a0                msdPolicyMirrorDestGet
                0x0000000000008800                msdPolicyIllegalIPAddrSet
                0x0000000000008860                msdPolicyIllegalIPAddrGet
                0x00000000000088c0                msdPolicyDipDaMismatchSet
                0x0000000000008920                msdPolicyDipDaMismatchGet
                0x0000000000008980                msdPolicyZeroSIPSet
                0x00000000000089e0                msdPolicyZeroSIPGet
                0x0000000000008a40                msdPolicyMcTtlExceededSet
                0x0000000000008aa0                msdPolicyMcTtlExceededGet
                0x0000000000008b00                msdPolicyUcTtlExceededSet
                0x0000000000008b60                msdPolicyUcTtlExceededGet
                0x0000000000008bc0                msdPortTtlThresholdSet
                0x0000000000008c20                msdPortTtlThresholdGet
                0x0000000000008c80                msdPolicyIpHdrErrSet
                0x0000000000008ce0                msdPolicyIpHdrErrGet
                0x0000000000008d40                msdPolicyTCPFinUrgPshSet
                0x0000000000008da0                msdPolicyTCPFinUrgPshGet
                0x0000000000008e00                msdPolicyTCPFlagsSeqNumSet
                0x0000000000008e60                msdPolicyTCPFlagsSeqNumGet
                0x0000000000008ec0                msdPolicyTCPSYNSet
                0x0000000000008f20                msdPolicyTCPSYNGet
                0x0000000000008f80                msdPolicyTCPHSizeSet
                0x0000000000008fe0                msdPolicyTCPHSizeGet
                0x0000000000009040                msdPortTCPMinHdrSizeSet
                0x00000000000090a0                msdPortTCPMinHdrSizeGet
                0x0000000000009100                msdPolicyICMPSizeSet
                0x0000000000009160                msdPolicyICMPSizeGet
                0x00000000000091c0                msdPortICMPMaxSizeSet
                0x0000000000009220                msdPortICMPMaxSizeGet
                0x0000000000009280                msdPolicyUDPPortSet
                0x00000000000092e0                msdPolicyUDPPortGet
                0x0000000000009340                msdPolicyTCPPortSet
                0x00000000000093a0                msdPolicyTCPPortGet
                0x0000000000009400                msdPolicyTCPSynFinSet
                0x0000000000009460                msdPolicyTCPSynFinGet
                0x00000000000094c0                msdPolicyTCPFragSet
                0x0000000000009520                msdPolicyTCPFragGet
                0x0000000000009580                msdPolicyNearNonTPMRSet
                0x00000000000095e0                msdPolicyNearNonTPMRGet
                0x0000000000009640                msdPolicyETagSet
                0x00000000000096a0                msdPolicyETagGet
                0x0000000000009700                msdPolicyNonETagSet
                0x0000000000009760                msdPolicyNonETagGet
                0x00000000000097c0                msdPolicyDump
 *fill*         0x000000000000980a        0x6 
 .text          0x0000000000009810      0x26a /home/roscube/Desktop/UMSD_v7.0.0_ADLINK/UMSD_v7.0.0/obj/src/api/msdDrv_obj/msdTCAMRC.o
                0x0000000000009810                msdTcamRCEntryAdd
                0x0000000000009870                msdTcamRCAllDelete
                0x00000000000098c0                msdTcamRCEntryDelete
                0x0000000000009910                msdTcamRCEntryRead
                0x0000000000009970                msdTcamRCEntryGetNext
                0x00000000000099d0                msdTcamRCEntryFind
                0x0000000000009a30                msdTcamRCDump
 *fill*         0x0000000000009a7a        0x6 
 .text          0x0000000000009a80      0x15d /home/roscube/Desktop/UMSD_v7.0.0_ADLINK/UMSD_v7.0.0/obj/src/api/msdDrv_obj/msdTCAMRCComp.o
                0x0000000000009a80                msdTcamRCCompAdd
                0x0000000000009ae0                msdTcamRCCompAllDelete
                0x0000000000009b30                msdTcamRCCompFlushPort
                0x0000000000009b80                msdTcamRCCompRead
 *fill*         0x0000000000009bdd        0x3 
 .text          0x0000000000009be0      0xa00 /home/roscube/Desktop/UMSD_v7.0.0_ADLINK/UMSD_v7.0.0/obj/src/api/msdDrv_obj/msdQci.o
                0x0000000000009be0                msdStreamFilterFlushAll
                0x0000000000009c30                msdStreamFilterSet
                0x0000000000009c90                msdStreamFilterBlockStatusSet
                0x0000000000009cf0                msdStreamFilterBlockStatusGet
                0x0000000000009d50                msdStreamFilterEnAtsSet
                0x0000000000009db0                msdStreamFilterEnGateSet
                0x0000000000009e10                msdStreamFilterMatchCounterGet
                0x0000000000009e70                msdStreamFilterFiltedCounterGet
                0x0000000000009ed0                msdStreamGateFiltedCounterGet
                0x0000000000009f30                msdFlowMeterFiltedCounterGet
                0x0000000000009f90                msdStreamGateFlushAll
                0x0000000000009fe0                msdStreamGateDefStateSet
                0x000000000000a050                msdStreamGateScaleSet
                0x000000000000a0b0                msdStreamGateTimeGenIdSet
                0x000000000000a110                msdStreamGateEntryAdd
                0x000000000000a170                msdStreamGateTimeGenFlushAll
                0x000000000000a1c0                msdStreamGateTimeGenSet
                0x000000000000a220                msdFlowMeterFlushAll
                0x000000000000a270                msdFlowMeterCouplingFlagSet
                0x000000000000a2d0                msdFlowMeterCouplingFlagGet
                0x000000000000a330                msdFlowMeterDropOnYelSet
                0x000000000000a390                msdFlowMeterDropOnYelGet
                0x000000000000a3f0                msdFlowMeterRedBlockEnSet
                0x000000000000a450                msdFlowMeterRedBlockEnGet
                0x000000000000a4b0                msdFlowMeterRedBlockStatusSet
                0x000000000000a510                msdFlowMeterRedBlockStatusGet
                0x000000000000a570                msdFlowMeterAdvConfig
 .text          0x000000000000a5e0      0x45a /home/roscube/Desktop/UMSD_v7.0.0_ADLINK/UMSD_v7.0.0/obj/src/api/msdDrv_obj/msdQcr.o
                0x000000000000a5e0                msdQcrFlushOne
                0x000000000000a630                msdQcrFlushAll
                0x000000000000a680                msdQcrSetGrpId
                0x000000000000a6e0                msdQcrGetGrpId
                0x000000000000a740                msdQcrSetCbsLimit
                0x000000000000a7a0                msdQcrGetCbsLimit
                0x000000000000a800                msdQcrSetRateLimit
                0x000000000000a860                msdQcrGetRateLimit
                0x000000000000a8c0                msdQcrSetMaxResidenceTime
                0x000000000000a920                msdQcrGetMaxResidenceTime
                0x000000000000a980                msdQcrSetQueueEnables
                0x000000000000a9e0                msdQcrGetQueueEnables
 *fill*         0x000000000000aa3a        0x6 
 .text          0x000000000000aa40      0xa2b /home/roscube/Desktop/UMSD_v7.0.0_ADLINK/UMSD_v7.0.0/obj/src/api/msdDrv_obj/msdFRER.o
                0x000000000000aa40                msdFrerSeqGenFlushAll
                0x000000000000aa90                msdFrerSeqGenFlushEntry
                0x000000000000aae0                msdFrerSeqGenRead
                0x000000000000ab40                msdFrerSeqGenLoad
                0x000000000000ab90                msdFrerIndvRcvyFlushAll
                0x000000000000abe0                msdFrerIndvRcvyFlushEntry
                0x000000000000ac30                msdFrerIndvRcvyRead
                0x000000000000ac90                msdFrerIndvRcvyLoad
                0x000000000000ace0                msdFrerIndvRcvyGetNext
                0x000000000000ad40                msdFrerIndvRcvyReadClear
                0x000000000000ada0                msdFrerSeqRcvyFlushAll
                0x000000000000adf0                msdFrerSeqRcvyFlushEntry
                0x000000000000ae40                msdFrerSeqRcvyRead
                0x000000000000aeb0                msdFrerSeqRcvyLoad
                0x000000000000af00                msdFrerSeqRcvyGetNext
                0x000000000000af70                msdFrerSeqRcvyGetViolation
                0x000000000000afe0                msdFrerSeqRcvyReadClear
                0x000000000000b050                msdFrerBank0SCtrFlushAll
                0x000000000000b0a0                msdFrerBank0SCtrFlushCtr
                0x000000000000b0f0                msdFrerBank0SCtrRead
                0x000000000000b150                msdFrerBank0SCtrLoad
                0x000000000000b1a0                msdFrerBank0SCtrGetNext
                0x000000000000b200                msdFrerBank0SCtrReadClear
                0x000000000000b260                msdFrerBank1SCtrFlushAll
                0x000000000000b2b0                msdFrerBank1SCtrFlushCtr
                0x000000000000b300                msdFrerBank1SCtrRead
                0x000000000000b360                msdFrerBank1SCtrLoad
                0x000000000000b3b0                msdFrerBank1SCtrGetNext
                0x000000000000b410                msdFrerBank1SCtrReadClear
 *fill*         0x000000000000b46b        0x5 
 .text          0x000000000000b470      0xf20 /home/roscube/Desktop/UMSD_v7.0.0_ADLINK/UMSD_v7.0.0/obj/src/api/msdDrv_obj/msdMACSec.o
                0x000000000000b470                msdMacSecRead
                0x000000000000b4e0                msdMacSecWrite
                0x000000000000b550                msdMacSecFlushAll
                0x000000000000b5a0                msdMacSecGetEvent
                0x000000000000b5f0                msdMacSecCreateRule
                0x000000000000b650                msdMacSecDeleteRule
                0x000000000000b6a0                msdMacSecGetRule
                0x000000000000b700                msdMacSecCreateRxSecY
                0x000000000000b760                msdMacSecCreateTxSecY
                0x000000000000b7c0                msdMacSecDeleteTxSecY
                0x000000000000b810                msdMacSecDeleteRxSecY
                0x000000000000b860                msdMacSecGetTxSecY
                0x000000000000b8c0                msdMacSecGetRxSecY
                0x000000000000b920                msdMacSecCreateRxSC
                0x000000000000b980                msdMacSecDeleteRxSC
                0x000000000000b9d0                msdMacSecGetRxSC
                0x000000000000ba30                msdMacSecCreateRxSA
                0x000000000000ba90                msdMacSecDeleteRxSA
                0x000000000000bae0                msdMacSecGetRxSA
                0x000000000000bb40                msdMacSecCreateTxSC
                0x000000000000bba0                msdMacSecDeleteTxSC
                0x000000000000bbf0                msdMacSecGetTxSC
                0x000000000000bc50                msdMacSecCreateTxSA
                0x000000000000bcb0                msdMacSecDeleteTxSA
                0x000000000000bd00                msdMacSecGetTxSA
                0x000000000000bd60                msdMacSecGetRXSCStates
                0x000000000000bdc0                msdMacSecGetRXSecYStates
                0x000000000000be20                msdMacSecGetTXSCStates
                0x000000000000be80                msdMacSecGetTXSecYStates
                0x000000000000bee0                msdMacSecEnableEgressSet
                0x000000000000bf40                msdMacSecEnableIngressSet
                0x000000000000bfa0                msdMacSecEnableIngressGet
                0x000000000000c000                msdMacSecEnableEgressGet
                0x000000000000c060                msdMacSecSetTxPNThreshold
                0x000000000000c0b0                msdMacSecGetTxPNThreshold
                0x000000000000c100                msdMacSecSetTxXPNThreshold
                0x000000000000c150                msdMacSecGetTxXPNThreshold
                0x000000000000c1a0                msdMacSecSetRxDefaultSCI
                0x000000000000c200                msdMacSecGetRxDefaultSCI
                0x000000000000c260                msdMacSecSetTxSCIntCtrl
                0x000000000000c2c0                msdMacSecGetTxSCIntCtrl
                0x000000000000c320                msdMacSecGetNextTxSCIntStatus
 *(.gnu.warning)

.fini
 *(SORT_NONE(.fini))

.rodata
 *(.rodata)

.rodata1
 *(.rodata1)

.eh_frame_hdr
 *(.eh_frame_hdr)

.eh_frame       0x0000000000000000     0x8048
 *(.eh_frame)
 .eh_frame      0x0000000000000000      0x438 /home/roscube/Desktop/UMSD_v7.0.0_ADLINK/UMSD_v7.0.0/obj/src/api/msdDrv_obj/msdTCAM.o
 .eh_frame      0x0000000000000438       0x98 /home/roscube/Desktop/UMSD_v7.0.0_ADLINK/UMSD_v7.0.0/obj/src/api/msdDrv_obj/msdAdvVct.o
 .eh_frame      0x00000000000004d0      0x7c8 /home/roscube/Desktop/UMSD_v7.0.0_ADLINK/UMSD_v7.0.0/obj/src/api/msdDrv_obj/msdBrgFdb.o
 .eh_frame      0x0000000000000c98      0x2a0 /home/roscube/Desktop/UMSD_v7.0.0_ADLINK/UMSD_v7.0.0/obj/src/api/msdDrv_obj/msdBrgVtu.o
 .eh_frame      0x0000000000000f38      0x138 /home/roscube/Desktop/UMSD_v7.0.0_ADLINK/UMSD_v7.0.0/obj/src/api/msdDrv_obj/msdBrgStu.o
 .eh_frame      0x0000000000001070      0x2d0 /home/roscube/Desktop/UMSD_v7.0.0_ADLINK/UMSD_v7.0.0/obj/src/api/msdDrv_obj/msdPIRL.o
 .eh_frame      0x0000000000001340      0x160 /home/roscube/Desktop/UMSD_v7.0.0_ADLINK/UMSD_v7.0.0/obj/src/api/msdDrv_obj/msdPortRmon.o
 .eh_frame      0x00000000000014a0     0x19c0 /home/roscube/Desktop/UMSD_v7.0.0_ADLINK/UMSD_v7.0.0/obj/src/api/msdDrv_obj/msdPortCtrl.o
 .eh_frame      0x0000000000002e60      0x420 /home/roscube/Desktop/UMSD_v7.0.0_ADLINK/UMSD_v7.0.0/obj/src/api/msdDrv_obj/msdQosMap.o
 .eh_frame      0x0000000000003280      0x128 /home/roscube/Desktop/UMSD_v7.0.0_ADLINK/UMSD_v7.0.0/obj/src/api/msdDrv_obj/msdQav.o
 .eh_frame      0x00000000000033a8      0x1f0 /home/roscube/Desktop/UMSD_v7.0.0_ADLINK/UMSD_v7.0.0/obj/src/api/msdDrv_obj/msdQueueCtrl.o
 .eh_frame      0x0000000000003598      0x508 /home/roscube/Desktop/UMSD_v7.0.0_ADLINK/UMSD_v7.0.0/obj/src/api/msdDrv_obj/msdSysCtrl.o
 .eh_frame      0x0000000000003aa0      0x2e8 /home/roscube/Desktop/UMSD_v7.0.0_ADLINK/UMSD_v7.0.0/obj/src/api/msdDrv_obj/msdPhyCtrl.o
 .eh_frame      0x0000000000003d88      0x150 /home/roscube/Desktop/UMSD_v7.0.0_ADLINK/UMSD_v7.0.0/obj/src/api/msdDrv_obj/msdIMP.o
 .eh_frame      0x0000000000003ed8      0x298 /home/roscube/Desktop/UMSD_v7.0.0_ADLINK/UMSD_v7.0.0/obj/src/api/msdDrv_obj/msdRMU.o
 .eh_frame      0x0000000000004170      0x270 /home/roscube/Desktop/UMSD_v7.0.0_ADLINK/UMSD_v7.0.0/obj/src/api/msdDrv_obj/msdTrunk.o
 .eh_frame      0x00000000000043e0      0xa18 /home/roscube/Desktop/UMSD_v7.0.0_ADLINK/UMSD_v7.0.0/obj/src/api/msdDrv_obj/msdPTP.o
 .eh_frame      0x0000000000004df8      0x390 /home/roscube/Desktop/UMSD_v7.0.0_ADLINK/UMSD_v7.0.0/obj/src/api/msdDrv_obj/msdLed.o
 .eh_frame      0x0000000000005188      0x168 /home/roscube/Desktop/UMSD_v7.0.0_ADLINK/UMSD_v7.0.0/obj/src/api/msdDrv_obj/msdArp.o
 .eh_frame      0x00000000000052f0      0x220 /home/roscube/Desktop/UMSD_v7.0.0_ADLINK/UMSD_v7.0.0/obj/src/api/msdDrv_obj/msdEcid.o
 .eh_frame      0x0000000000005510       0xe8 /home/roscube/Desktop/UMSD_v7.0.0_ADLINK/UMSD_v7.0.0/obj/src/api/msdDrv_obj/msdEEPROM.o
 .eh_frame      0x00000000000055f8      0xe48 /home/roscube/Desktop/UMSD_v7.0.0_ADLINK/UMSD_v7.0.0/obj/src/api/msdDrv_obj/msdPolicy.o
 .eh_frame      0x0000000000006440      0x190 /home/roscube/Desktop/UMSD_v7.0.0_ADLINK/UMSD_v7.0.0/obj/src/api/msdDrv_obj/msdTCAMRC.o
 .eh_frame      0x00000000000065d0       0xe8 /home/roscube/Desktop/UMSD_v7.0.0_ADLINK/UMSD_v7.0.0/obj/src/api/msdDrv_obj/msdTCAMRCComp.o
 .eh_frame      0x00000000000066b8      0x6b0 /home/roscube/Desktop/UMSD_v7.0.0_ADLINK/UMSD_v7.0.0/obj/src/api/msdDrv_obj/msdQci.o
 .eh_frame      0x0000000000006d68      0x2f8 /home/roscube/Desktop/UMSD_v7.0.0_ADLINK/UMSD_v7.0.0/obj/src/api/msdDrv_obj/msdQcr.o
 .eh_frame      0x0000000000007060      0x668 /home/roscube/Desktop/UMSD_v7.0.0_ADLINK/UMSD_v7.0.0/obj/src/api/msdDrv_obj/msdFRER.o
 .eh_frame      0x00000000000076c8      0x980 /home/roscube/Desktop/UMSD_v7.0.0_ADLINK/UMSD_v7.0.0/obj/src/api/msdDrv_obj/msdMACSec.o

.gcc_except_table
 *(.gcc_except_table)

.gnu_extab
 *(.gnu_extab*)

.exception_ranges
 *(.exception_ranges)

.eh_frame
 *(.eh_frame)

.gnu_extab
 *(.gnu_extab)

.gcc_except_table
 *(.gcc_except_table)

.exception_ranges
 *(.exception_ranges)

.tdata
 *(.tdata)

.tbss
 *(.tbss)

.jcr
 *(.jcr)

.dynamic
 *(.dynamic)

.got
 *(.got)

.got.plt
 *(.got.plt)

.data           0x0000000000000000        0x0
 *(.data)
 .data          0x0000000000000000        0x0 /home/roscube/Desktop/UMSD_v7.0.0_ADLINK/UMSD_v7.0.0/obj/src/api/msdDrv_obj/msdTCAM.o
 .data          0x0000000000000000        0x0 /home/roscube/Desktop/UMSD_v7.0.0_ADLINK/UMSD_v7.0.0/obj/src/api/msdDrv_obj/msdAdvVct.o
 .data          0x0000000000000000        0x0 /home/roscube/Desktop/UMSD_v7.0.0_ADLINK/UMSD_v7.0.0/obj/src/api/msdDrv_obj/msdBrgFdb.o
 .data          0x0000000000000000        0x0 /home/roscube/Desktop/UMSD_v7.0.0_ADLINK/UMSD_v7.0.0/obj/src/api/msdDrv_obj/msdBrgVtu.o
 .data          0x0000000000000000        0x0 /home/roscube/Desktop/UMSD_v7.0.0_ADLINK/UMSD_v7.0.0/obj/src/api/msdDrv_obj/msdBrgStu.o
 .data          0x0000000000000000        0x0 /home/roscube/Desktop/UMSD_v7.0.0_ADLINK/UMSD_v7.0.0/obj/src/api/msdDrv_obj/msdPIRL.o
 .data          0x0000000000000000        0x0 /home/roscube/Desktop/UMSD_v7.0.0_ADLINK/UMSD_v7.0.0/obj/src/api/msdDrv_obj/msdPortRmon.o
 .data          0x0000000000000000        0x0 /home/roscube/Desktop/UMSD_v7.0.0_ADLINK/UMSD_v7.0.0/obj/src/api/msdDrv_obj/msdPortCtrl.o
 .data          0x0000000000000000        0x0 /home/roscube/Desktop/UMSD_v7.0.0_ADLINK/UMSD_v7.0.0/obj/src/api/msdDrv_obj/msdQosMap.o
 .data          0x0000000000000000        0x0 /home/roscube/Desktop/UMSD_v7.0.0_ADLINK/UMSD_v7.0.0/obj/src/api/msdDrv_obj/msdQav.o
 .data          0x0000000000000000        0x0 /home/roscube/Desktop/UMSD_v7.0.0_ADLINK/UMSD_v7.0.0/obj/src/api/msdDrv_obj/msdQueueCtrl.o
 .data          0x0000000000000000        0x0 /home/roscube/Desktop/UMSD_v7.0.0_ADLINK/UMSD_v7.0.0/obj/src/api/msdDrv_obj/msdSysCtrl.o
 .data          0x0000000000000000        0x0 /home/roscube/Desktop/UMSD_v7.0.0_ADLINK/UMSD_v7.0.0/obj/src/api/msdDrv_obj/msdPhyCtrl.o
 .data          0x0000000000000000        0x0 /home/roscube/Desktop/UMSD_v7.0.0_ADLINK/UMSD_v7.0.0/obj/src/api/msdDrv_obj/msdIMP.o
 .data          0x0000000000000000        0x0 /home/roscube/Desktop/UMSD_v7.0.0_ADLINK/UMSD_v7.0.0/obj/src/api/msdDrv_obj/msdRMU.o
 .data          0x0000000000000000        0x0 /home/roscube/Desktop/UMSD_v7.0.0_ADLINK/UMSD_v7.0.0/obj/src/api/msdDrv_obj/msdTrunk.o
 .data          0x0000000000000000        0x0 /home/roscube/Desktop/UMSD_v7.0.0_ADLINK/UMSD_v7.0.0/obj/src/api/msdDrv_obj/msdPTP.o
 .data          0x0000000000000000        0x0 /home/roscube/Desktop/UMSD_v7.0.0_ADLINK/UMSD_v7.0.0/obj/src/api/msdDrv_obj/msdLed.o
 .data          0x0000000000000000        0x0 /home/roscube/Desktop/UMSD_v7.0.0_ADLINK/UMSD_v7.0.0/obj/src/api/msdDrv_obj/msdArp.o
 .data          0x0000000000000000        0x0 /home/roscube/Desktop/UMSD_v7.0.0_ADLINK/UMSD_v7.0.0/obj/src/api/msdDrv_obj/msdEcid.o
 .data          0x0000000000000000        0x0 /home/roscube/Desktop/UMSD_v7.0.0_ADLINK/UMSD_v7.0.0/obj/src/api/msdDrv_obj/msdEEPROM.o
 .data          0x0000000000000000        0x0 /home/roscube/Desktop/UMSD_v7.0.0_ADLINK/UMSD_v7.0.0/obj/src/api/msdDrv_obj/msdPolicy.o
 .data          0x0000000000000000        0x0 /home/roscube/Desktop/UMSD_v7.0.0_ADLINK/UMSD_v7.0.0/obj/src/api/msdDrv_obj/msdTCAMRC.o
 .data          0x0000000000000000        0x0 /home/roscube/Desktop/UMSD_v7.0.0_ADLINK/UMSD_v7.0.0/obj/src/api/msdDrv_obj/msdTCAMRCComp.o
 .data          0x0000000000000000        0x0 /home/roscube/Desktop/UMSD_v7.0.0_ADLINK/UMSD_v7.0.0/obj/src/api/msdDrv_obj/msdQci.o
 .data          0x0000000000000000        0x0 /home/roscube/Desktop/UMSD_v7.0.0_ADLINK/UMSD_v7.0.0/obj/src/api/msdDrv_obj/msdQcr.o
 .data          0x0000000000000000        0x0 /home/roscube/Desktop/UMSD_v7.0.0_ADLINK/UMSD_v7.0.0/obj/src/api/msdDrv_obj/msdFRER.o
 .data          0x0000000000000000        0x0 /home/roscube/Desktop/UMSD_v7.0.0_ADLINK/UMSD_v7.0.0/obj/src/api/msdDrv_obj/msdMACSec.o

.data1
 *(.data1)

.bss            0x0000000000000000        0x0
 *(.bss)
 .bss           0x0000000000000000        0x0 /home/roscube/Desktop/UMSD_v7.0.0_ADLINK/UMSD_v7.0.0/obj/src/api/msdDrv_obj/msdTCAM.o
 .bss           0x0000000000000000        0x0 /home/roscube/Desktop/UMSD_v7.0.0_ADLINK/UMSD_v7.0.0/obj/src/api/msdDrv_obj/msdAdvVct.o
 .bss           0x0000000000000000        0x0 /home/roscube/Desktop/UMSD_v7.0.0_ADLINK/UMSD_v7.0.0/obj/src/api/msdDrv_obj/msdBrgFdb.o
 .bss           0x0000000000000000        0x0 /home/roscube/Desktop/UMSD_v7.0.0_ADLINK/UMSD_v7.0.0/obj/src/api/msdDrv_obj/msdBrgVtu.o
 .bss           0x0000000000000000        0x0 /home/roscube/Desktop/UMSD_v7.0.0_ADLINK/UMSD_v7.0.0/obj/src/api/msdDrv_obj/msdBrgStu.o
 .bss           0x0000000000000000        0x0 /home/roscube/Desktop/UMSD_v7.0.0_ADLINK/UMSD_v7.0.0/obj/src/api/msdDrv_obj/msdPIRL.o
 .bss           0x0000000000000000        0x0 /home/roscube/Desktop/UMSD_v7.0.0_ADLINK/UMSD_v7.0.0/obj/src/api/msdDrv_obj/msdPortRmon.o
 .bss           0x0000000000000000        0x0 /home/roscube/Desktop/UMSD_v7.0.0_ADLINK/UMSD_v7.0.0/obj/src/api/msdDrv_obj/msdPortCtrl.o
 .bss           0x0000000000000000        0x0 /home/roscube/Desktop/UMSD_v7.0.0_ADLINK/UMSD_v7.0.0/obj/src/api/msdDrv_obj/msdQosMap.o
 .bss           0x0000000000000000        0x0 /home/roscube/Desktop/UMSD_v7.0.0_ADLINK/UMSD_v7.0.0/obj/src/api/msdDrv_obj/msdQav.o
 .bss           0x0000000000000000        0x0 /home/roscube/Desktop/UMSD_v7.0.0_ADLINK/UMSD_v7.0.0/obj/src/api/msdDrv_obj/msdQueueCtrl.o
 .bss           0x0000000000000000        0x0 /home/roscube/Desktop/UMSD_v7.0.0_ADLINK/UMSD_v7.0.0/obj/src/api/msdDrv_obj/msdSysCtrl.o
 .bss           0x0000000000000000        0x0 /home/roscube/Desktop/UMSD_v7.0.0_ADLINK/UMSD_v7.0.0/obj/src/api/msdDrv_obj/msdPhyCtrl.o
 .bss           0x0000000000000000        0x0 /home/roscube/Desktop/UMSD_v7.0.0_ADLINK/UMSD_v7.0.0/obj/src/api/msdDrv_obj/msdIMP.o
 .bss           0x0000000000000000        0x0 /home/roscube/Desktop/UMSD_v7.0.0_ADLINK/UMSD_v7.0.0/obj/src/api/msdDrv_obj/msdRMU.o
 .bss           0x0000000000000000        0x0 /home/roscube/Desktop/UMSD_v7.0.0_ADLINK/UMSD_v7.0.0/obj/src/api/msdDrv_obj/msdTrunk.o
 .bss           0x0000000000000000        0x0 /home/roscube/Desktop/UMSD_v7.0.0_ADLINK/UMSD_v7.0.0/obj/src/api/msdDrv_obj/msdPTP.o
 .bss           0x0000000000000000        0x0 /home/roscube/Desktop/UMSD_v7.0.0_ADLINK/UMSD_v7.0.0/obj/src/api/msdDrv_obj/msdLed.o
 .bss           0x0000000000000000        0x0 /home/roscube/Desktop/UMSD_v7.0.0_ADLINK/UMSD_v7.0.0/obj/src/api/msdDrv_obj/msdArp.o
 .bss           0x0000000000000000        0x0 /home/roscube/Desktop/UMSD_v7.0.0_ADLINK/UMSD_v7.0.0/obj/src/api/msdDrv_obj/msdEcid.o
 .bss           0x0000000000000000        0x0 /home/roscube/Desktop/UMSD_v7.0.0_ADLINK/UMSD_v7.0.0/obj/src/api/msdDrv_obj/msdEEPROM.o
 .bss           0x0000000000000000        0x0 /home/roscube/Desktop/UMSD_v7.0.0_ADLINK/UMSD_v7.0.0/obj/src/api/msdDrv_obj/msdPolicy.o
 .bss           0x0000000000000000        0x0 /home/roscube/Desktop/UMSD_v7.0.0_ADLINK/UMSD_v7.0.0/obj/src/api/msdDrv_obj/msdTCAMRC.o
 .bss           0x0000000000000000        0x0 /home/roscube/Desktop/UMSD_v7.0.0_ADLINK/UMSD_v7.0.0/obj/src/api/msdDrv_obj/msdTCAMRCComp.o
 .bss           0x0000000000000000        0x0 /home/roscube/Desktop/UMSD_v7.0.0_ADLINK/UMSD_v7.0.0/obj/src/api/msdDrv_obj/msdQci.o
 .bss           0x0000000000000000        0x0 /home/roscube/Desktop/UMSD_v7.0.0_ADLINK/UMSD_v7.0.0/obj/src/api/msdDrv_obj/msdQcr.o
 .bss           0x0000000000000000        0x0 /home/roscube/Desktop/UMSD_v7.0.0_ADLINK/UMSD_v7.0.0/obj/src/api/msdDrv_obj/msdFRER.o
 .bss           0x0000000000000000        0x0 /home/roscube/Desktop/UMSD_v7.0.0_ADLINK/UMSD_v7.0.0/obj/src/api/msdDrv_obj/msdMACSec.o

.lbss
 *(.lbss)

.lrodata
 *(.lrodata)

.ldata
 *(.ldata)

.stab
 *(.stab)

.stabstr
 *(.stabstr)

.stab.excl
 *(.stab.excl)

.stab.exclstr
 *(.stab.exclstr)

.stab.index
 *(.stab.index)

.stab.indexstr
 *(.stab.indexstr)

.comment        0x0000000000000000      0x4d0
 *(.comment)
 .comment       0x0000000000000000       0x2c /home/roscube/Desktop/UMSD_v7.0.0_ADLINK/UMSD_v7.0.0/obj/src/api/msdDrv_obj/msdTCAM.o
 .comment       0x000000000000002c       0x2c /home/roscube/Desktop/UMSD_v7.0.0_ADLINK/UMSD_v7.0.0/obj/src/api/msdDrv_obj/msdAdvVct.o
 .comment       0x0000000000000058       0x2c /home/roscube/Desktop/UMSD_v7.0.0_ADLINK/UMSD_v7.0.0/obj/src/api/msdDrv_obj/msdBrgFdb.o
 .comment       0x0000000000000084       0x2c /home/roscube/Desktop/UMSD_v7.0.0_ADLINK/UMSD_v7.0.0/obj/src/api/msdDrv_obj/msdBrgVtu.o
 .comment       0x00000000000000b0       0x2c /home/roscube/Desktop/UMSD_v7.0.0_ADLINK/UMSD_v7.0.0/obj/src/api/msdDrv_obj/msdBrgStu.o
 .comment       0x00000000000000dc       0x2c /home/roscube/Desktop/UMSD_v7.0.0_ADLINK/UMSD_v7.0.0/obj/src/api/msdDrv_obj/msdPIRL.o
 .comment       0x0000000000000108       0x2c /home/roscube/Desktop/UMSD_v7.0.0_ADLINK/UMSD_v7.0.0/obj/src/api/msdDrv_obj/msdPortRmon.o
 .comment       0x0000000000000134       0x2c /home/roscube/Desktop/UMSD_v7.0.0_ADLINK/UMSD_v7.0.0/obj/src/api/msdDrv_obj/msdPortCtrl.o
 .comment       0x0000000000000160       0x2c /home/roscube/Desktop/UMSD_v7.0.0_ADLINK/UMSD_v7.0.0/obj/src/api/msdDrv_obj/msdQosMap.o
 .comment       0x000000000000018c       0x2c /home/roscube/Desktop/UMSD_v7.0.0_ADLINK/UMSD_v7.0.0/obj/src/api/msdDrv_obj/msdQav.o
 .comment       0x00000000000001b8       0x2c /home/roscube/Desktop/UMSD_v7.0.0_ADLINK/UMSD_v7.0.0/obj/src/api/msdDrv_obj/msdQueueCtrl.o
 .comment       0x00000000000001e4       0x2c /home/roscube/Desktop/UMSD_v7.0.0_ADLINK/UMSD_v7.0.0/obj/src/api/msdDrv_obj/msdSysCtrl.o
 .comment       0x0000000000000210       0x2c /home/roscube/Desktop/UMSD_v7.0.0_ADLINK/UMSD_v7.0.0/obj/src/api/msdDrv_obj/msdPhyCtrl.o
 .comment       0x000000000000023c       0x2c /home/roscube/Desktop/UMSD_v7.0.0_ADLINK/UMSD_v7.0.0/obj/src/api/msdDrv_obj/msdIMP.o
 .comment       0x0000000000000268       0x2c /home/roscube/Desktop/UMSD_v7.0.0_ADLINK/UMSD_v7.0.0/obj/src/api/msdDrv_obj/msdRMU.o
 .comment       0x0000000000000294       0x2c /home/roscube/Desktop/UMSD_v7.0.0_ADLINK/UMSD_v7.0.0/obj/src/api/msdDrv_obj/msdTrunk.o
 .comment       0x00000000000002c0       0x2c /home/roscube/Desktop/UMSD_v7.0.0_ADLINK/UMSD_v7.0.0/obj/src/api/msdDrv_obj/msdPTP.o
 .comment       0x00000000000002ec       0x2c /home/roscube/Desktop/UMSD_v7.0.0_ADLINK/UMSD_v7.0.0/obj/src/api/msdDrv_obj/msdLed.o
 .comment       0x0000000000000318       0x2c /home/roscube/Desktop/UMSD_v7.0.0_ADLINK/UMSD_v7.0.0/obj/src/api/msdDrv_obj/msdArp.o
 .comment       0x0000000000000344       0x2c /home/roscube/Desktop/UMSD_v7.0.0_ADLINK/UMSD_v7.0.0/obj/src/api/msdDrv_obj/msdEcid.o
 .comment       0x0000000000000370       0x2c /home/roscube/Desktop/UMSD_v7.0.0_ADLINK/UMSD_v7.0.0/obj/src/api/msdDrv_obj/msdEEPROM.o
 .comment       0x000000000000039c       0x2c /home/roscube/Desktop/UMSD_v7.0.0_ADLINK/UMSD_v7.0.0/obj/src/api/msdDrv_obj/msdPolicy.o
 .comment       0x00000000000003c8       0x2c /home/roscube/Desktop/UMSD_v7.0.0_ADLINK/UMSD_v7.0.0/obj/src/api/msdDrv_obj/msdTCAMRC.o
 .comment       0x00000000000003f4       0x2c /home/roscube/Desktop/UMSD_v7.0.0_ADLINK/UMSD_v7.0.0/obj/src/api/msdDrv_obj/msdTCAMRCComp.o
 .comment       0x0000000000000420       0x2c /home/roscube/Desktop/UMSD_v7.0.0_ADLINK/UMSD_v7.0.0/obj/src/api/msdDrv_obj/msdQci.o
 .comment       0x000000000000044c       0x2c /home/roscube/Desktop/UMSD_v7.0.0_ADLINK/UMSD_v7.0.0/obj/src/api/msdDrv_obj/msdQcr.o
 .comment       0x0000000000000478       0x2c /home/roscube/Desktop/UMSD_v7.0.0_ADLINK/UMSD_v7.0.0/obj/src/api/msdDrv_obj/msdFRER.o
 .comment       0x00000000000004a4       0x2c /home/roscube/Desktop/UMSD_v7.0.0_ADLINK/UMSD_v7.0.0/obj/src/api/msdDrv_obj/msdMACSec.o

.note.GNU-stack
                0x0000000000000000        0x0
 .note.GNU-stack
                0x0000000000000000        0x0 /home/roscube/Desktop/UMSD_v7.0.0_ADLINK/UMSD_v7.0.0/obj/src/api/msdDrv_obj/msdTCAM.o
 .note.GNU-stack
                0x0000000000000000        0x0 /home/roscube/Desktop/UMSD_v7.0.0_ADLINK/UMSD_v7.0.0/obj/src/api/msdDrv_obj/msdAdvVct.o
 .note.GNU-stack
                0x0000000000000000        0x0 /home/roscube/Desktop/UMSD_v7.0.0_ADLINK/UMSD_v7.0.0/obj/src/api/msdDrv_obj/msdBrgFdb.o
 .note.GNU-stack
                0x0000000000000000        0x0 /home/roscube/Desktop/UMSD_v7.0.0_ADLINK/UMSD_v7.0.0/obj/src/api/msdDrv_obj/msdBrgVtu.o
 .note.GNU-stack
                0x0000000000000000        0x0 /home/roscube/Desktop/UMSD_v7.0.0_ADLINK/UMSD_v7.0.0/obj/src/api/msdDrv_obj/msdBrgStu.o
 .note.GNU-stack
                0x0000000000000000        0x0 /home/roscube/Desktop/UMSD_v7.0.0_ADLINK/UMSD_v7.0.0/obj/src/api/msdDrv_obj/msdPIRL.o
 .note.GNU-stack
                0x0000000000000000        0x0 /home/roscube/Desktop/UMSD_v7.0.0_ADLINK/UMSD_v7.0.0/obj/src/api/msdDrv_obj/msdPortRmon.o
 .note.GNU-stack
                0x0000000000000000        0x0 /home/roscube/Desktop/UMSD_v7.0.0_ADLINK/UMSD_v7.0.0/obj/src/api/msdDrv_obj/msdPortCtrl.o
 .note.GNU-stack
                0x0000000000000000        0x0 /home/roscube/Desktop/UMSD_v7.0.0_ADLINK/UMSD_v7.0.0/obj/src/api/msdDrv_obj/msdQosMap.o
 .note.GNU-stack
                0x0000000000000000        0x0 /home/roscube/Desktop/UMSD_v7.0.0_ADLINK/UMSD_v7.0.0/obj/src/api/msdDrv_obj/msdQav.o
 .note.GNU-stack
                0x0000000000000000        0x0 /home/roscube/Desktop/UMSD_v7.0.0_ADLINK/UMSD_v7.0.0/obj/src/api/msdDrv_obj/msdQueueCtrl.o
 .note.GNU-stack
                0x0000000000000000        0x0 /home/roscube/Desktop/UMSD_v7.0.0_ADLINK/UMSD_v7.0.0/obj/src/api/msdDrv_obj/msdSysCtrl.o
 .note.GNU-stack
                0x0000000000000000        0x0 /home/roscube/Desktop/UMSD_v7.0.0_ADLINK/UMSD_v7.0.0/obj/src/api/msdDrv_obj/msdPhyCtrl.o
 .note.GNU-stack
                0x0000000000000000        0x0 /home/roscube/Desktop/UMSD_v7.0.0_ADLINK/UMSD_v7.0.0/obj/src/api/msdDrv_obj/msdIMP.o
 .note.GNU-stack
                0x0000000000000000        0x0 /home/roscube/Desktop/UMSD_v7.0.0_ADLINK/UMSD_v7.0.0/obj/src/api/msdDrv_obj/msdRMU.o
 .note.GNU-stack
                0x0000000000000000        0x0 /home/roscube/Desktop/UMSD_v7.0.0_ADLINK/UMSD_v7.0.0/obj/src/api/msdDrv_obj/msdTrunk.o
 .note.GNU-stack
                0x0000000000000000        0x0 /home/roscube/Desktop/UMSD_v7.0.0_ADLINK/UMSD_v7.0.0/obj/src/api/msdDrv_obj/msdPTP.o
 .note.GNU-stack
                0x0000000000000000        0x0 /home/roscube/Desktop/UMSD_v7.0.0_ADLINK/UMSD_v7.0.0/obj/src/api/msdDrv_obj/msdLed.o
 .note.GNU-stack
                0x0000000000000000        0x0 /home/roscube/Desktop/UMSD_v7.0.0_ADLINK/UMSD_v7.0.0/obj/src/api/msdDrv_obj/msdArp.o
 .note.GNU-stack
                0x0000000000000000        0x0 /home/roscube/Desktop/UMSD_v7.0.0_ADLINK/UMSD_v7.0.0/obj/src/api/msdDrv_obj/msdEcid.o
 .note.GNU-stack
                0x0000000000000000        0x0 /home/roscube/Desktop/UMSD_v7.0.0_ADLINK/UMSD_v7.0.0/obj/src/api/msdDrv_obj/msdEEPROM.o
 .note.GNU-stack
                0x0000000000000000        0x0 /home/roscube/Desktop/UMSD_v7.0.0_ADLINK/UMSD_v7.0.0/obj/src/api/msdDrv_obj/msdPolicy.o
 .note.GNU-stack
                0x0000000000000000        0x0 /home/roscube/Desktop/UMSD_v7.0.0_ADLINK/UMSD_v7.0.0/obj/src/api/msdDrv_obj/msdTCAMRC.o
 .note.GNU-stack
                0x0000000000000000        0x0 /home/roscube/Desktop/UMSD_v7.0.0_ADLINK/UMSD_v7.0.0/obj/src/api/msdDrv_obj/msdTCAMRCComp.o
 .note.GNU-stack
                0x0000000000000000        0x0 /home/roscube/Desktop/UMSD_v7.0.0_ADLINK/UMSD_v7.0.0/obj/src/api/msdDrv_obj/msdQci.o
 .note.GNU-stack
                0x0000000000000000        0x0 /home/roscube/Desktop/UMSD_v7.0.0_ADLINK/UMSD_v7.0.0/obj/src/api/msdDrv_obj/msdQcr.o
 .note.GNU-stack
                0x0000000000000000        0x0 /home/roscube/Desktop/UMSD_v7.0.0_ADLINK/UMSD_v7.0.0/obj/src/api/msdDrv_obj/msdFRER.o
 .note.GNU-stack
                0x0000000000000000        0x0 /home/roscube/Desktop/UMSD_v7.0.0_ADLINK/UMSD_v7.0.0/obj/src/api/msdDrv_obj/msdMACSec.o

.gnu.build.attributes
 *(.gnu.build.attributes)

.debug
 *(.debug)

.line
 *(.line)

.debug_srcinfo
 *(.debug_srcinfo)

.debug_sfnames
 *(.debug_sfnames)

.debug_aranges
 *(.debug_aranges)

.debug_pubnames
 *(.debug_pubnames)

.debug_info
 *(.debug_info)

.debug_abbrev
 *(.debug_abbrev)

.debug_line
 *(.debug_line)

.debug_frame
 *(.debug_frame)

.debug_str
 *(.debug_str)

.debug_loc
 *(.debug_loc)

.debug_macinfo
 *(.debug_macinfo)

.debug_weaknames
 *(.debug_weaknames)

.debug_funcnames
 *(.debug_funcnames)

.debug_typenames
 *(.debug_typenames)

.debug_varnames
 *(.debug_varnames)

.debug_pubtypes
 *(.debug_pubtypes)

.debug_ranges
 *(.debug_ranges)

.debug_addr
 *(.debug_addr)

.debug_line_str
 *(.debug_line_str)

.debug_loclists
 *(.debug_loclists)

.debug_macro
 *(.debug_macro)

.debug_names
 *(.debug_names)

.debug_rnglists
 *(.debug_rnglists)

.debug_str_offsets
 *(.debug_str_offsets)

.debug_sup
 *(.debug_sup)

.gnu.attributes
 *(.gnu.attributes)
OUTPUT(/home/roscube/Desktop/UMSD_v7.0.0_ADLINK/UMSD_v7.0.0/obj/src/api/msdDrv_obj/api.o elf64-x86-64)
