
Merging program properties


Discarded input sections

 .note.gnu.property
                0x0000000000000000       0x20 /home/roscube/Desktop/UMSD_v7.0.0_ADLINK/UMSD_v7.0.0/obj/dev/agate/src/api/msdDrv_obj/Agate_msdAdvVct.o
 .note.gnu.property
                0x0000000000000000       0x20 /home/roscube/Desktop/UMSD_v7.0.0_ADLINK/UMSD_v7.0.0/obj/dev/agate/src/api/msdDrv_obj/Agate_msdBrgFdb.o
 .note.gnu.property
                0x0000000000000000       0x20 /home/roscube/Desktop/UMSD_v7.0.0_ADLINK/UMSD_v7.0.0/obj/dev/agate/src/api/msdDrv_obj/Agate_msdBrgVtu.o
 .note.gnu.property
                0x0000000000000000       0x20 /home/roscube/Desktop/UMSD_v7.0.0_ADLINK/UMSD_v7.0.0/obj/dev/agate/src/api/msdDrv_obj/Agate_msdBrgStu.o
 .note.gnu.property
                0x0000000000000000       0x20 /home/roscube/Desktop/UMSD_v7.0.0_ADLINK/UMSD_v7.0.0/obj/dev/agate/src/api/msdDrv_obj/Agate_msdPIRL.o
 .note.gnu.property
                0x0000000000000000       0x20 /home/roscube/Desktop/UMSD_v7.0.0_ADLINK/UMSD_v7.0.0/obj/dev/agate/src/api/msdDrv_obj/Agate_msdPortRmon.o
 .note.gnu.property
                0x0000000000000000       0x20 /home/roscube/Desktop/UMSD_v7.0.0_ADLINK/UMSD_v7.0.0/obj/dev/agate/src/api/msdDrv_obj/Agate_msdPortCtrl.o
 .note.gnu.property
                0x0000000000000000       0x20 /home/roscube/Desktop/UMSD_v7.0.0_ADLINK/UMSD_v7.0.0/obj/dev/agate/src/api/msdDrv_obj/Agate_msdPortPrioMap.o
 .note.gnu.property
                0x0000000000000000       0x20 /home/roscube/Desktop/UMSD_v7.0.0_ADLINK/UMSD_v7.0.0/obj/dev/agate/src/api/msdDrv_obj/Agate_msdSysCtrl.o
 .note.gnu.property
                0x0000000000000000       0x20 /home/roscube/Desktop/UMSD_v7.0.0_ADLINK/UMSD_v7.0.0/obj/dev/agate/src/api/msdDrv_obj/Agate_msdPhyCtrl.o
 .note.gnu.property
                0x0000000000000000       0x20 /home/roscube/Desktop/UMSD_v7.0.0_ADLINK/UMSD_v7.0.0/obj/dev/agate/src/api/msdDrv_obj/Agate_msdQueueCtrl.o
 .note.gnu.property
                0x0000000000000000       0x20 /home/roscube/Desktop/UMSD_v7.0.0_ADLINK/UMSD_v7.0.0/obj/dev/agate/src/api/msdDrv_obj/Agate_msdRMU.o
 .note.gnu.property
                0x0000000000000000       0x20 /home/roscube/Desktop/UMSD_v7.0.0_ADLINK/UMSD_v7.0.0/obj/dev/agate/src/api/msdDrv_obj/Agate_msdEEPROM.o
 .note.gnu.property
                0x0000000000000000       0x20 /home/roscube/Desktop/UMSD_v7.0.0_ADLINK/UMSD_v7.0.0/obj/dev/agate/src/api/msdDrv_obj/Agate_msdTCAMIntf.o
 .note.gnu.property
                0x0000000000000000       0x20 /home/roscube/Desktop/UMSD_v7.0.0_ADLINK/UMSD_v7.0.0/obj/dev/agate/src/api/msdDrv_obj/Agate_msdAdvVctIntf.o
 .note.gnu.property
                0x0000000000000000       0x20 /home/roscube/Desktop/UMSD_v7.0.0_ADLINK/UMSD_v7.0.0/obj/dev/agate/src/api/msdDrv_obj/Agate_msdBrgFdbIntf.o
 .note.gnu.property
                0x0000000000000000       0x20 /home/roscube/Desktop/UMSD_v7.0.0_ADLINK/UMSD_v7.0.0/obj/dev/agate/src/api/msdDrv_obj/Agate_msdBrgVtuIntf.o
 .note.gnu.property
                0x0000000000000000       0x20 /home/roscube/Desktop/UMSD_v7.0.0_ADLINK/UMSD_v7.0.0/obj/dev/agate/src/api/msdDrv_obj/Agate_msdBrgStuIntf.o
 .note.gnu.property
                0x0000000000000000       0x20 /home/roscube/Desktop/UMSD_v7.0.0_ADLINK/UMSD_v7.0.0/obj/dev/agate/src/api/msdDrv_obj/Agate_msdPIRLIntf.o
 .note.gnu.property
                0x0000000000000000       0x20 /home/roscube/Desktop/UMSD_v7.0.0_ADLINK/UMSD_v7.0.0/obj/dev/agate/src/api/msdDrv_obj/Agate_msdQav.o
 .note.gnu.property
                0x0000000000000000       0x20 /home/roscube/Desktop/UMSD_v7.0.0_ADLINK/UMSD_v7.0.0/obj/dev/agate/src/api/msdDrv_obj/Agate_msdPortRmonIntf.o
 .note.gnu.property
                0x0000000000000000       0x20 /home/roscube/Desktop/UMSD_v7.0.0_ADLINK/UMSD_v7.0.0/obj/dev/agate/src/api/msdDrv_obj/Agate_msdPortCtrlIntf.o
 .note.gnu.property
                0x0000000000000000       0x20 /home/roscube/Desktop/UMSD_v7.0.0_ADLINK/UMSD_v7.0.0/obj/dev/agate/src/api/msdDrv_obj/Agate_msdPortPrioMapIntf.o
 .note.gnu.property
                0x0000000000000000       0x20 /home/roscube/Desktop/UMSD_v7.0.0_ADLINK/UMSD_v7.0.0/obj/dev/agate/src/api/msdDrv_obj/Agate_msdQueueCtrlIntf.o
 .note.gnu.property
                0x0000000000000000       0x20 /home/roscube/Desktop/UMSD_v7.0.0_ADLINK/UMSD_v7.0.0/obj/dev/agate/src/api/msdDrv_obj/Agate_msdSysCtrlIntf.o
 .note.gnu.property
                0x0000000000000000       0x20 /home/roscube/Desktop/UMSD_v7.0.0_ADLINK/UMSD_v7.0.0/obj/dev/agate/src/api/msdDrv_obj/Agate_msdPhyCtrlIntf.o
 .note.gnu.property
                0x0000000000000000       0x20 /home/roscube/Desktop/UMSD_v7.0.0_ADLINK/UMSD_v7.0.0/obj/dev/agate/src/api/msdDrv_obj/Agate_msdEEPROMIntf.o
 .note.gnu.property
                0x0000000000000000       0x20 /home/roscube/Desktop/UMSD_v7.0.0_ADLINK/UMSD_v7.0.0/obj/dev/agate/src/api/msdDrv_obj/Agate_msdRMUIntf.o
 .note.gnu.property
                0x0000000000000000       0x20 /home/roscube/Desktop/UMSD_v7.0.0_ADLINK/UMSD_v7.0.0/obj/dev/agate/src/api/msdDrv_obj/Agate_msdPTP.o
 .note.gnu.property
                0x0000000000000000       0x20 /home/roscube/Desktop/UMSD_v7.0.0_ADLINK/UMSD_v7.0.0/obj/dev/agate/src/api/msdDrv_obj/Agate_msdPTPIntf.o
 .note.gnu.property
                0x0000000000000000       0x20 /home/roscube/Desktop/UMSD_v7.0.0_ADLINK/UMSD_v7.0.0/obj/dev/agate/src/api/msdDrv_obj/Agate_msdLed.o
 .note.gnu.property
                0x0000000000000000       0x20 /home/roscube/Desktop/UMSD_v7.0.0_ADLINK/UMSD_v7.0.0/obj/dev/agate/src/api/msdDrv_obj/Agate_msdLedIntf.o

Memory Configuration

Name             Origin             Length             Attributes
*default*        0x0000000000000000 0xffffffffffffffff

Linker script and memory map

LOAD /home/roscube/Desktop/UMSD_v7.0.0_ADLINK/UMSD_v7.0.0/obj/dev/agate/src/api/msdDrv_obj/Agate_msdTCAM.o
LOAD /home/roscube/Desktop/UMSD_v7.0.0_ADLINK/UMSD_v7.0.0/obj/dev/agate/src/api/msdDrv_obj/Agate_msdAdvVct.o
LOAD /home/roscube/Desktop/UMSD_v7.0.0_ADLINK/UMSD_v7.0.0/obj/dev/agate/src/api/msdDrv_obj/Agate_msdBrgFdb.o
LOAD /home/roscube/Desktop/UMSD_v7.0.0_ADLINK/UMSD_v7.0.0/obj/dev/agate/src/api/msdDrv_obj/Agate_msdBrgVtu.o
LOAD /home/roscube/Desktop/UMSD_v7.0.0_ADLINK/UMSD_v7.0.0/obj/dev/agate/src/api/msdDrv_obj/Agate_msdBrgStu.o
LOAD /home/roscube/Desktop/UMSD_v7.0.0_ADLINK/UMSD_v7.0.0/obj/dev/agate/src/api/msdDrv_obj/Agate_msdPIRL.o
LOAD /home/roscube/Desktop/UMSD_v7.0.0_ADLINK/UMSD_v7.0.0/obj/dev/agate/src/api/msdDrv_obj/Agate_msdPortRmon.o
LOAD /home/roscube/Desktop/UMSD_v7.0.0_ADLINK/UMSD_v7.0.0/obj/dev/agate/src/api/msdDrv_obj/Agate_msdPortCtrl.o
LOAD /home/roscube/Desktop/UMSD_v7.0.0_ADLINK/UMSD_v7.0.0/obj/dev/agate/src/api/msdDrv_obj/Agate_msdPortPrioMap.o
LOAD /home/roscube/Desktop/UMSD_v7.0.0_ADLINK/UMSD_v7.0.0/obj/dev/agate/src/api/msdDrv_obj/Agate_msdSysCtrl.o
LOAD /home/roscube/Desktop/UMSD_v7.0.0_ADLINK/UMSD_v7.0.0/obj/dev/agate/src/api/msdDrv_obj/Agate_msdPhyCtrl.o
LOAD /home/roscube/Desktop/UMSD_v7.0.0_ADLINK/UMSD_v7.0.0/obj/dev/agate/src/api/msdDrv_obj/Agate_msdQueueCtrl.o
LOAD /home/roscube/Desktop/UMSD_v7.0.0_ADLINK/UMSD_v7.0.0/obj/dev/agate/src/api/msdDrv_obj/Agate_msdRMU.o
LOAD /home/roscube/Desktop/UMSD_v7.0.0_ADLINK/UMSD_v7.0.0/obj/dev/agate/src/api/msdDrv_obj/Agate_msdEEPROM.o
LOAD /home/roscube/Desktop/UMSD_v7.0.0_ADLINK/UMSD_v7.0.0/obj/dev/agate/src/api/msdDrv_obj/Agate_msdTCAMIntf.o
LOAD /home/roscube/Desktop/UMSD_v7.0.0_ADLINK/UMSD_v7.0.0/obj/dev/agate/src/api/msdDrv_obj/Agate_msdAdvVctIntf.o
LOAD /home/roscube/Desktop/UMSD_v7.0.0_ADLINK/UMSD_v7.0.0/obj/dev/agate/src/api/msdDrv_obj/Agate_msdBrgFdbIntf.o
LOAD /home/roscube/Desktop/UMSD_v7.0.0_ADLINK/UMSD_v7.0.0/obj/dev/agate/src/api/msdDrv_obj/Agate_msdBrgVtuIntf.o
LOAD /home/roscube/Desktop/UMSD_v7.0.0_ADLINK/UMSD_v7.0.0/obj/dev/agate/src/api/msdDrv_obj/Agate_msdBrgStuIntf.o
LOAD /home/roscube/Desktop/UMSD_v7.0.0_ADLINK/UMSD_v7.0.0/obj/dev/agate/src/api/msdDrv_obj/Agate_msdPIRLIntf.o
LOAD /home/roscube/Desktop/UMSD_v7.0.0_ADLINK/UMSD_v7.0.0/obj/dev/agate/src/api/msdDrv_obj/Agate_msdQav.o
LOAD /home/roscube/Desktop/UMSD_v7.0.0_ADLINK/UMSD_v7.0.0/obj/dev/agate/src/api/msdDrv_obj/Agate_msdPortRmonIntf.o
LOAD /home/roscube/Desktop/UMSD_v7.0.0_ADLINK/UMSD_v7.0.0/obj/dev/agate/src/api/msdDrv_obj/Agate_msdPortCtrlIntf.o
LOAD /home/roscube/Desktop/UMSD_v7.0.0_ADLINK/UMSD_v7.0.0/obj/dev/agate/src/api/msdDrv_obj/Agate_msdPortPrioMapIntf.o
LOAD /home/roscube/Desktop/UMSD_v7.0.0_ADLINK/UMSD_v7.0.0/obj/dev/agate/src/api/msdDrv_obj/Agate_msdQueueCtrlIntf.o
LOAD /home/roscube/Desktop/UMSD_v7.0.0_ADLINK/UMSD_v7.0.0/obj/dev/agate/src/api/msdDrv_obj/Agate_msdSysCtrlIntf.o
LOAD /home/roscube/Desktop/UMSD_v7.0.0_ADLINK/UMSD_v7.0.0/obj/dev/agate/src/api/msdDrv_obj/Agate_msdPhyCtrlIntf.o
LOAD /home/roscube/Desktop/UMSD_v7.0.0_ADLINK/UMSD_v7.0.0/obj/dev/agate/src/api/msdDrv_obj/Agate_msdEEPROMIntf.o
LOAD /home/roscube/Desktop/UMSD_v7.0.0_ADLINK/UMSD_v7.0.0/obj/dev/agate/src/api/msdDrv_obj/Agate_msdRMUIntf.o
LOAD /home/roscube/Desktop/UMSD_v7.0.0_ADLINK/UMSD_v7.0.0/obj/dev/agate/src/api/msdDrv_obj/Agate_msdPTP.o
LOAD /home/roscube/Desktop/UMSD_v7.0.0_ADLINK/UMSD_v7.0.0/obj/dev/agate/src/api/msdDrv_obj/Agate_msdPTPIntf.o
LOAD /home/roscube/Desktop/UMSD_v7.0.0_ADLINK/UMSD_v7.0.0/obj/dev/agate/src/api/msdDrv_obj/Agate_msdLed.o
LOAD /home/roscube/Desktop/UMSD_v7.0.0_ADLINK/UMSD_v7.0.0/obj/dev/agate/src/api/msdDrv_obj/Agate_msdLedIntf.o

.interp
 *(.interp)

.note.gnu.property
                0x0000000000000000       0x20
 .note.gnu.property
                0x0000000000000000       0x20 /home/roscube/Desktop/UMSD_v7.0.0_ADLINK/UMSD_v7.0.0/obj/dev/agate/src/api/msdDrv_obj/Agate_msdTCAM.o

.note.gnu.build-id
 *(.note.gnu.build-id)

.hash
 *(.hash)

.gnu.hash
 *(.gnu.hash)

.dynsym
 *(.dynsym)

.dynstr
 *(.dynstr)

.gnu.version
 *(.gnu.version)

.gnu.version_d
 *(.gnu.version_d)

.gnu.version_r
 *(.gnu.version_r)

.rela.init
 *(.rela.init)

.rela.text
 *(.rela.text)

.rela.fini
 *(.rela.fini)

.rela.rodata
 *(.rela.rodata)

.rela.data.rel.ro
 *(.rela.data.rel.ro)

.rela.data
 *(.rela.data)

.rela.tdata
 *(.rela.tdata)

.rela.tbss
 *(.rela.tbss)

.rela.ctors
 *(.rela.ctors)

.rela.dtors
 *(.rela.dtors)

.rela.got
 *(.rela.got)

.rela.bss
 *(.rela.bss)

.rela.ldata
 *(.rela.ldata)

.rela.lbss
 *(.rela.lbss)

.rela.lrodata
 *(.rela.lrodata)

.rela.ifunc
 *(.rela.ifunc)

.rela.plt
 *(.rela.plt)

.relr.dyn
 *(.relr.dyn)

.init
 *(SORT_NONE(.init))

.plt
 *(.plt)

.plt.got
 *(.plt.got)

.plt.sec
 *(.plt.sec)

.text           0x0000000000000000    0x1282c
 *(.text .stub)
 .text          0x0000000000000000     0x1fbd /home/roscube/Desktop/UMSD_v7.0.0_ADLINK/UMSD_v7.0.0/obj/dev/agate/src/api/msdDrv_obj/Agate_msdTCAM.o
                0x0000000000000e70                Agate_gtcamFlushAll
                0x0000000000000ec0                Agate_gtcamFlushEntry
                0x0000000000000f20                Agate_gtcamLoadEntry
                0x0000000000000fb0                Agate_gtcamReadTCAMData
                0x0000000000001040                Agate_gtcamGetNextTCAMData
                0x00000000000010e0                Agate_gtcamFindEntry
                0x00000000000011c0                Agate_gtcamSetMode
                0x0000000000001220                Agate_gtcamGetMode
                0x00000000000012b0                Agate_gtcamAddEntryPort
                0x00000000000013a0                Agate_gtcamRemoveEntryPort
                0x0000000000001490                Agate_gtcamDump
                0x0000000000001800                Agate_gtcamAdvConfig
 *fill*         0x0000000000001fbd        0x3 
 .text          0x0000000000001fc0      0xcbd /home/roscube/Desktop/UMSD_v7.0.0_ADLINK/UMSD_v7.0.0/obj/dev/agate/src/api/msdDrv_obj/Agate_msdAdvVct.o
                0x00000000000024d0                Agate_gvctGetAdvCableDiag
                0x0000000000002940                Agate_gvctGetAdvExtendedStatus
 *fill*         0x0000000000002c7d        0x3 
 .text          0x0000000000002c80     0x1465 /home/roscube/Desktop/UMSD_v7.0.0_ADLINK/UMSD_v7.0.0/obj/dev/agate/src/api/msdDrv_obj/Agate_msdBrgFdb.o
                0x00000000000034b0                Agate_gfdbGetAtuEntryNext
                0x00000000000034d0                Agate_gfdbFlush
                0x0000000000003540                Agate_gfdbFlushInDB
                0x00000000000035d0                Agate_gfdbMove
                0x00000000000036c0                Agate_gfdbMoveInDB
                0x00000000000037c0                Agate_gfdbAddMacEntry
                0x0000000000003880                Agate_gfdbDelAtuEntry
                0x0000000000003910                Agate_gfdbGetViolation
                0x0000000000003a00                Agate_gfdbFindAtuMacEntry
                0x0000000000003b30                Agate_gfdbSetAgingTimeout
                0x0000000000003b90                Agate_gfdbGetAgingTimeout
                0x0000000000003c00                Agate_gfdbGetLearn2All
                0x0000000000003c80                Agate_gfdbSetLearn2All
                0x0000000000003cb0                Agate_gfdbSetPortLearnLimit
                0x0000000000003de0                Agate_gfdbGetPortLearnLimit
                0x0000000000003ef0                Agate_gfdbGetPortLearnCount
                0x0000000000003fb0                Agate_gfdbGetEntryCount
                0x0000000000004000                Agate_gfdbGetEntryCountPerFid
                0x0000000000004050                Agate_gfdbGetNonStaticEntryCount
                0x00000000000040a0                Agate_gfdbGetNonStaticEntryCountPerFid
 *fill*         0x00000000000040e5        0xb 
 .text          0x00000000000040f0      0xc2a /home/roscube/Desktop/UMSD_v7.0.0_ADLINK/UMSD_v7.0.0/obj/dev/agate/src/api/msdDrv_obj/Agate_msdBrgVtu.o
                0x0000000000004710                Agate_gvtuGetEntryNext
                0x0000000000004810                Agate_gvtuFlush
                0x0000000000004830                Agate_gvtuAddEntry
                0x0000000000004940                Agate_gvtuDelEntry
                0x00000000000049a0                Agate_gvtuGetViolation
                0x0000000000004ab0                Agate_gvtuFindVidEntry
                0x0000000000004c10                Agate_gvtuDump
 *fill*         0x0000000000004d1a        0x6 
 .text          0x0000000000004d20      0x9e0 /home/roscube/Desktop/UMSD_v7.0.0_ADLINK/UMSD_v7.0.0/obj/dev/agate/src/api/msdDrv_obj/Agate_msdBrgStu.o
                0x0000000000005300                Agate_gstuGetEntryNext
                0x00000000000053e0                Agate_gstuAddEntry
                0x00000000000054b0                Agate_gstuDelEntry
                0x0000000000005510                Agate_gstuFindSidEntry
                0x0000000000005610                Agate_gstuDump
 .text          0x0000000000005700      0xc9c /home/roscube/Desktop/UMSD_v7.0.0_ADLINK/UMSD_v7.0.0/obj/dev/agate/src/api/msdDrv_obj/Agate_msdPIRL.o
                0x00000000000059a0                Agate_gpirlInitialize
                0x00000000000059c0                Agate_gpirlInitResource
                0x0000000000005a40                Agate_gpirlCustomSetup
                0x0000000000005dc0                Agate_gpirlReadResource
                0x0000000000005ff0                Agate_gpirlWriteResource
                0x0000000000006250                Agate_gpirlGetResReg
                0x0000000000006300                Agate_gpirlSetResReg
 *fill*         0x000000000000639c        0x4 
 .text          0x00000000000063a0      0x857 /home/roscube/Desktop/UMSD_v7.0.0_ADLINK/UMSD_v7.0.0/obj/dev/agate/src/api/msdDrv_obj/Agate_msdPortRmon.o
                0x0000000000006720                Agate_gstatsFlushAll
                0x0000000000006740                Agate_gstatsFlushPort
                0x0000000000006780                Agate_gstatsGetPortCounter
                0x00000000000067d0                Agate_gstatsGetPortAllCounters
                0x0000000000006820                Agate_gstatsGetHistogramMode
                0x00000000000068d0                Agate_gstatsSetHistogramMode
                0x0000000000006910                Agate_gmibDump
 *fill*         0x0000000000006bf7        0x9 
 .text          0x0000000000006c00     0x3098 /home/roscube/Desktop/UMSD_v7.0.0_ADLINK/UMSD_v7.0.0/obj/dev/agate/src/api/msdDrv_obj/Agate_msdPortCtrl.o
                0x0000000000006c00                Agate_gvlnSetPortVid
                0x0000000000006c60                Agate_gvlnGetPortVid
                0x0000000000006cf0                Agate_gprtSetForceDefaultVid
                0x0000000000006d50                Agate_gprtGetForceDefaultVid
                0x0000000000006de0                Agate_gvlnSetPortVlanDot1qMode
                0x0000000000006e40                Agate_gvlnGetPortVlanDot1qMode
                0x0000000000006ed0                Agate_gprtSetDiscardTagged
                0x0000000000006f30                Agate_gprtGetDiscardTagged
                0x0000000000006fc0                Agate_gprtSetDiscardUntagged
                0x0000000000007020                Agate_gprtGetDiscardUntagged
                0x00000000000070b0                Agate_gprtSetUnicastFloodBlock
                0x0000000000007110                Agate_gprtGetUnicastFloodBlock
                0x00000000000071a0                Agate_gprtSetMulticastFloodBlock
                0x0000000000007200                Agate_gprtGetMulticastFloodBlock
                0x0000000000007290                Agate_gprtSetDiscardBCastMode
                0x00000000000072f0                Agate_gprtGetDiscardBCastMode
                0x0000000000007390                Agate_gprtSetIGMPSnoopEnable
                0x00000000000073f0                Agate_gprtGetIGMPSnoopEnable
                0x0000000000007490                Agate_gprtGetHeaderMode
                0x0000000000007530                Agate_gprtSetHeaderMode
                0x0000000000007590                Agate_gprtGetDropOnLock
                0x0000000000007630                Agate_gprtSetDropOnLock
                0x0000000000007690                Agate_gprtSetJumboMode
                0x0000000000007700                Agate_gprtGetJumboMode
                0x0000000000007790                Agate_gprtSetLearnEnable
                0x0000000000007800                Agate_gprtGetLearnEnable
                0x0000000000007890                Agate_gprtGetVTUPriorityOverride
                0x0000000000007920                Agate_gprtSetVTUPriorityOverride
                0x0000000000007980                Agate_gprtGetSAPriorityOverride
                0x0000000000007a10                Agate_gprtSetSAPriorityOverride
                0x0000000000007a70                Agate_gprtGetDAPriorityOverride
                0x0000000000007b00                Agate_gprtSetDAPriorityOverride
                0x0000000000007b60                Agate_gprtGetMessagePort
                0x0000000000007bf0                Agate_gprtSetMessagePort
                0x0000000000007c50                Agate_gprtGetEtherType
                0x0000000000007ca0                Agate_gprtSetEtherType
                0x0000000000007cf0                Agate_gprtSetTrunkPort
                0x0000000000007d90                Agate_gprtGetTrunkPort
                0x0000000000007e70                Agate_gprtSetFlowCtrl
                0x0000000000007ee0                Agate_gprtGetFlowCtrl
                0x0000000000007f90                Agate_gprtSetEgressMonitorSource
                0x0000000000007ff0                Agate_gprtGetEgressMonitorSource
                0x0000000000008080                Agate_gprtSetIngressMonitorSource
                0x00000000000080e0                Agate_gprtGetIngressMonitorSource
                0x0000000000008170                Agate_grcSetELimitMode
                0x00000000000081d0                Agate_grcSetEgressRate
                0x0000000000008380                Agate_grcGetELimitMode
                0x0000000000008410                Agate_grcGetEgressRate
                0x0000000000008550                Agate_gprtSetDuplex
                0x00000000000085c0                Agate_gprtGetDuplex
                0x0000000000008690                Agate_gprtGetDuplexStatus
                0x0000000000008720                Agate_gprtGetForceLink
                0x00000000000087e0                Agate_gprtSetForceLink
                0x0000000000008850                Agate_gprtGetLinkState
                0x00000000000088e0                Agate_gprtSetForceSpeed
                0x0000000000008a80                Agate_gprtGetForceSpeed
                0x0000000000008bc0                Agate_gprtGetSpeed
                0x0000000000008cd0                Agate_gprtGetVlanPorts
                0x0000000000008d90                Agate_gprtSetVlanPorts
                0x0000000000008e40                Agate_gprtGetFrameMode
                0x0000000000008ed0                Agate_gprtSetFrameMode
                0x0000000000008f30                Agate_gprtSetEgressMode
                0x0000000000008f90                Agate_gprtGetEgressMode
                0x0000000000009020                Agate_gprtGetPortState
                0x00000000000090b0                Agate_gprtSetPortState
                0x0000000000009110                Agate_gprtSetIgnoreFcs
                0x0000000000009170                Agate_gprtGetIgnoreFcs
                0x0000000000009200                Agate_gprtSetAllowBadFcs
                0x0000000000009260                Agate_gprtGetAllowBadFcs
                0x00000000000092f0                Agate_gprtSetPauseLimitOut
                0x0000000000009350                Agate_gprtGetPauseLimitOut
                0x00000000000093b0                Agate_gprtSetPauseLimitIn
                0x0000000000009410                Agate_gprtGetPauseLimitIn
                0x0000000000009470                Agate_gprtGetOutQueueSize
                0x0000000000009510                Agate_gprtSetMapDA
                0x0000000000009570                Agate_gprtGetMapDA
                0x0000000000009600                Agate_gprtSetPortLocked
                0x0000000000009660                Agate_gprtGetPortLocked
                0x00000000000096f0                Agate_gprtSetHoldAt1
                0x0000000000009750                Agate_gprtGetHoldAt1
                0x00000000000097e0                Agate_gprtSetInt0nAgeOut
                0x0000000000009840                Agate_gprtGetInt0nAgeOut
                0x00000000000098d0                Agate_gprtSetRefreshLocked
                0x0000000000009930                Agate_gprtGetRefreshLocked
                0x00000000000099c0                Agate_gprtSetIgnoreWrongData
                0x0000000000009a20                Agate_gprtGetIgnoreWrongData
                0x0000000000009ab0                Agate_gprtSetARPMirror
                0x0000000000009b10                Agate_gprtGetARPMirror
                0x0000000000009ba0                Agate_gprtRegDump
 *fill*         0x0000000000009c98        0x8 
 .text          0x0000000000009ca0      0x407 /home/roscube/Desktop/UMSD_v7.0.0_ADLINK/UMSD_v7.0.0/obj/dev/agate/src/api/msdDrv_obj/Agate_msdPortPrioMap.o
                0x0000000000009ca0                Agate_gqosSetPrioMapRule
                0x0000000000009d00                Agate_gqosGetPrioMapRule
                0x0000000000009d90                Agate_gprtSetInitialPri
                0x0000000000009e00                Agate_gprtGetInitialPri
                0x0000000000009ec0                Agate_gprtSetDefQpri
                0x0000000000009f20                Agate_gprtGetDefQpri
                0x0000000000009fc0                Agate_gprtSetDefFpri
                0x000000000000a020                Agate_gprtGetDefFpri
 *fill*         0x000000000000a0a7        0x9 
 .text          0x000000000000a0b0     0x1283 /home/roscube/Desktop/UMSD_v7.0.0_ADLINK/UMSD_v7.0.0/obj/dev/agate/src/api/msdDrv_obj/Agate_msdSysCtrl.o
                0x000000000000a0b0                Agate_gsysSetTrunkMaskTable
                0x000000000000a1e0                Agate_gsysGetTrunkMaskTable
                0x000000000000a340                Agate_gsysSetHashTrunk
                0x000000000000a370                Agate_gsysGetHashTrunk
                0x000000000000a3e0                Agate_gsysSetTrunkRouting
                0x000000000000a530                Agate_gsysGetTrunkRouting
                0x000000000000a6b0                Agate_gsysSetFloodBC
                0x000000000000a6e0                Agate_gsysGetFloodBC
                0x000000000000a750                Agate_gsysSetCPUDest
                0x000000000000a800                Agate_gsysGetCPUDest
                0x000000000000a860                Agate_gsysSetIngressMonitorDest
                0x000000000000a930                Agate_gsysGetIngressMonitorDest
                0x000000000000a9a0                Agate_gsysSetEgressMonitorDest
                0x000000000000aa70                Agate_gsysGetEgressMonitorDest
                0x000000000000ab10                Agate_gsysSetRsvd2CpuEnables
                0x000000000000abb0                Agate_gsysGetRsvd2CpuEnables
                0x000000000000ac10                Agate_gsysSetMGMTPri
                0x000000000000aca0                Agate_gsysGetMGMTPri
                0x000000000000ad00                Agate_gsysGlobal1RegDump
                0x000000000000add0                Agate_gsysGlobal2RegDump
                0x000000000000aea0                Agate_gsysSetRMUMode
                0x000000000000af60                Agate_gsysGetRMUMode
                0x000000000000aff0                Agate_gsysDevIntEnableSet
                0x000000000000b050                Agate_gsysDevIntEnableGet
                0x000000000000b0e0                Agate_gsysDevIntStatusGet
                0x000000000000b160                Agate_gsysActiveIntEnableSet
                0x000000000000b220                Agate_gsysActiveIntEnableGet
                0x000000000000b2b0                Agate_gsysActiveIntStatusGet
 *fill*         0x000000000000b333        0xd 
 .text          0x000000000000b340      0xd5b /home/roscube/Desktop/UMSD_v7.0.0_ADLINK/UMSD_v7.0.0/obj/dev/agate/src/api/msdDrv_obj/Agate_msdPhyCtrl.o
                0x000000000000b5f0                Agate_gphyReset
                0x000000000000b6c0                Agate_serdesReset
                0x000000000000b780                Agate_gphySetPortLoopback
                0x000000000000b870                Agate_gphySetPortSpeed
                0x000000000000ba00                Agate_gphyPortPowerDown
                0x000000000000baf0                Agate_gphySetPortDuplexMode
                0x000000000000bc10                Agate_gphySetPortAutoMode
                0x000000000000bce0                Agate_gphySetEEE
                0x000000000000bdd0                Agate_gphySetFlowControlEnable
                0x000000000000bef0                Agate_gphySetIntEnable
                0x000000000000bf60                Agate_gphyGetIntEnable
                0x000000000000c000                Agate_gphyGetIntStatus
 *fill*         0x000000000000c09b        0x5 
 .text          0x000000000000c0a0      0x69c /home/roscube/Desktop/UMSD_v7.0.0_ADLINK/UMSD_v7.0.0/obj/dev/agate/src/api/msdDrv_obj/Agate_msdQueueCtrl.o
                0x000000000000c0a0                Agate_gprtSetPortSched
                0x000000000000c100                Agate_gprtGetPortSched
                0x000000000000c1d0                Agate_gsysSetQoSWeight
                0x000000000000c480                Agate_gsysGetQoSWeight
 *fill*         0x000000000000c73c        0x4 
 .text          0x000000000000c740      0xbf5 /home/roscube/Desktop/UMSD_v7.0.0_ADLINK/UMSD_v7.0.0/obj/dev/agate/src/api/msdDrv_obj/Agate_msdRMU.o
                0x000000000000c740                Agate_msdRmuGetID
                0x000000000000c870                Agate_msdRmuAtuDump
                0x000000000000ca80                Agate_msdRmuMibDump
                0x000000000000ccf0                Agate_msdRmuMib2Dump
                0x000000000000d030                Agate_msdRmuReadRegister
                0x000000000000d060                Agate_msdRmuWriteRegister
                0x000000000000d080                Agate_msdRmuMultiRegAccess
                0x000000000000d270                Agate_msdRmuRegDump
 *fill*         0x000000000000d335        0xb 
 .text          0x000000000000d340      0x2ea /home/roscube/Desktop/UMSD_v7.0.0_ADLINK/UMSD_v7.0.0/obj/dev/agate/src/api/msdDrv_obj/Agate_msdEEPROM.o
                0x000000000000d340                Agate_EEPROMWrite
                0x000000000000d4b0                Agate_EEPROMRead
 *fill*         0x000000000000d62a        0x6 
 .text          0x000000000000d630      0x91c /home/roscube/Desktop/UMSD_v7.0.0_ADLINK/UMSD_v7.0.0/obj/dev/agate/src/api/msdDrv_obj/Agate_msdTCAMIntf.o
                0x000000000000d630                Agate_gtcamLoadEntryIntf
                0x000000000000d7d0                Agate_gtcamReadTCAMDataIntf
                0x000000000000d980                Agate_gtcamGetNextTCAMDataIntf
                0x000000000000db30                Agate_gtcamFindEntryIntf
                0x000000000000dd20                Agate_gtcamSetModeIntf
                0x000000000000dd30                Agate_gtcamGetModeIntf
                0x000000000000dd90                Agate_gtcamAdvConfigIntf
 *fill*         0x000000000000df4c        0x4 
 .text          0x000000000000df50      0x19d /home/roscube/Desktop/UMSD_v7.0.0_ADLINK/UMSD_v7.0.0/obj/dev/agate/src/api/msdDrv_obj/Agate_msdAdvVctIntf.o
                0x000000000000df50                Agate_gvctGetAdvCableDiagIntf
                0x000000000000e050                Agate_gvctGetAdvExtendedStatusIntf
 *fill*         0x000000000000e0ed        0x3 
 .text          0x000000000000e0f0      0x550 /home/roscube/Desktop/UMSD_v7.0.0_ADLINK/UMSD_v7.0.0/obj/dev/agate/src/api/msdDrv_obj/Agate_msdBrgFdbIntf.o
                0x000000000000e0f0                Agate_gfdbAddMacEntryIntf
                0x000000000000e170                Agate_gfdbGetAtuEntryNextIntf
                0x000000000000e240                Agate_gfdbFlushIntf
                0x000000000000e250                Agate_gfdbFlushInDBIntf
                0x000000000000e260                Agate_gfdbMoveIntf
                0x000000000000e270                Agate_gfdbMoveInDBIntf
                0x000000000000e280                Agate_gfdbPortRemoveIntf
                0x000000000000e2b0                Agate_gfdbPortRemoveInDBIntf
                0x000000000000e2e0                Agate_gfdbGetViolationIntf
                0x000000000000e3c0                Agate_gfdbFindAtuMacEntryIntf
                0x000000000000e4b0                Agate_gfdbDump
 .text          0x000000000000e640      0x72c /home/roscube/Desktop/UMSD_v7.0.0_ADLINK/UMSD_v7.0.0/obj/dev/agate/src/api/msdDrv_obj/Agate_msdBrgVtuIntf.o
                0x000000000000e640                Agate_gvtuFindVidEntryIntf
                0x000000000000e7a0                Agate_gvtuGetEntryNextIntf
                0x000000000000e880                Agate_gvtuExistVidEntryIntf
                0x000000000000e910                Agate_gvtuFlushIntf
                0x000000000000e920                Agate_gvtuAddEntryIntf
                0x000000000000ea10                Agate_gvtuDelEntryIntf
                0x000000000000ea80                Agate_gvtuGetViolationIntf
                0x000000000000eb40                Agate_gvtuGetEntryCountIntf
                0x000000000000ebe0                Agate_gvtuSetMemberTagIntf
                0x000000000000ecb0                Agate_gvtuGetMemberTagIntf
 *fill*         0x000000000000ed6c        0x4 
 .text          0x000000000000ed70      0x38c /home/roscube/Desktop/UMSD_v7.0.0_ADLINK/UMSD_v7.0.0/obj/dev/agate/src/api/msdDrv_obj/Agate_msdBrgStuIntf.o
                0x000000000000ed70                Agate_gstuAddEntryIntf
                0x000000000000ee40                Agate_gstuGetEntryNextIntf
                0x000000000000eef0                Agate_gstuDelEntryIntf
                0x000000000000ef50                Agate_gstuFindSidEntryIntf
                0x000000000000f060                Agate_gstuGetEntryCountIntf
 *fill*         0x000000000000f0fc        0x4 
 .text          0x000000000000f100      0x454 /home/roscube/Desktop/UMSD_v7.0.0_ADLINK/UMSD_v7.0.0/obj/dev/agate/src/api/msdDrv_obj/Agate_msdPIRLIntf.o
                0x000000000000f100                Agate_gpirlInitializeIntf
                0x000000000000f110                Agate_gpirlInitResourceIntf
                0x000000000000f120                Agate_gpirlCustomSetupIntf
                0x000000000000f1e0                Agate_gpirlReadResourceIntf
                0x000000000000f2c0                Agate_gpirlWriteResourceIntf
                0x000000000000f3a0                Agate_gpirlGetResRegIntf
                0x000000000000f3b0                Agate_gpirlSetResRegIntf
                0x000000000000f3c0                Agate_gpirlAdvConfigIntf
                0x000000000000f4e0                Agate_gpirlAdvConfigDisableIntf
 *fill*         0x000000000000f554        0xc 
 .text          0x000000000000f560      0x6fd /home/roscube/Desktop/UMSD_v7.0.0_ADLINK/UMSD_v7.0.0/obj/dev/agate/src/api/msdDrv_obj/Agate_msdQav.o
                0x000000000000f560                Agate_gqavSetPortQpriXRate
                0x000000000000f6f0                Agate_gqavGetPortQpriXRate
                0x000000000000f8e0                Agate_gqavSetPortQpriXHiLimit
                0x000000000000fa70                Agate_gqavGetPortQpriXHiLimit
 *fill*         0x000000000000fc5d        0x3 
 .text          0x000000000000fc60      0x1e9 /home/roscube/Desktop/UMSD_v7.0.0_ADLINK/UMSD_v7.0.0/obj/dev/agate/src/api/msdDrv_obj/Agate_msdPortRmonIntf.o
                0x000000000000fc60                Agate_gstatsGetPortCounterIntf
                0x000000000000fc70                Agate_gstatsGetPortAllCountersIntf
                0x000000000000fe30                Agate_gstatsGetHistogramModeIntf
                0x000000000000fe40                Agate_gstatsSetHistogramModeIntf
 *fill*         0x000000000000fe49        0x7 
 .text          0x000000000000fe50      0x2f9 /home/roscube/Desktop/UMSD_v7.0.0_ADLINK/UMSD_v7.0.0/obj/dev/agate/src/api/msdDrv_obj/Agate_msdPortCtrlIntf.o
                0x000000000000fe50                Agate_gvlnSetPortVlanDot1qModeIntf
                0x000000000000fe60                Agate_gvlnGetPortVlanDot1qModeIntf
                0x000000000000fe70                Agate_gprtSetDiscardTaggedIntf
                0x000000000000fe80                Agate_gprtGetDiscardTaggedIntf
                0x000000000000fe90                Agate_gprtSetDiscardUntaggedIntf
                0x000000000000fea0                Agate_gprtGetDiscardUntaggedIntf
                0x000000000000feb0                Agate_gprtSetUnicastFloodBlockIntf
                0x000000000000fec0                Agate_gprtGetUnicastFloodBlockIntf
                0x000000000000fed0                Agate_gprtSetMulticastFloodBlockIntf
                0x000000000000fee0                Agate_gprtGetMulticastFloodBlockIntf
                0x000000000000fef0                Agate_gprtSetDiscardBCastModeIntf
                0x000000000000ff00                Agate_gprtGetDiscardBCastModeIntf
                0x000000000000ff10                Agate_gprtSetJumboModeIntf
                0x000000000000ff20                Agate_gprtGetJumboModeIntf
                0x000000000000ff30                Agate_gprtSetLearnEnableIntf
                0x000000000000ff40                Agate_gprtGetLearnEnableIntf
                0x000000000000ff50                Agate_gprtGetVTUPriorityOverrideIntf
                0x000000000000ff60                Agate_gprtSetVTUPriorityOverrideIntf
                0x000000000000ff70                Agate_gprtGetSAPriorityOverrideIntf
                0x000000000000ff80                Agate_gprtSetSAPriorityOverrideIntf
                0x000000000000ff90                Agate_gprtGetDAPriorityOverrideIntf
                0x000000000000ffa0                Agate_gprtSetDAPriorityOverrideIntf
                0x000000000000ffb0                Agate_gprtSetFlowCtrlIntf
                0x000000000000ffe0                Agate_gprtGetFlowCtrlIntf
                0x000000000000fff0                Agate_gprtSetForceSpeedIntf
                0x0000000000010030                Agate_gprtGetForceSpeedIntf
                0x0000000000010040                Agate_grcSetEgressRateIntf
                0x0000000000010050                Agate_grcGetEgressRateIntf
                0x0000000000010060                Agate_grcSetELimitModeIntf
                0x0000000000010070                Agate_grcGetELimitModeIntf
                0x0000000000010080                Agate_gprtSetDuplexIntf
                0x0000000000010090                Agate_gprtGetDuplexIntf
                0x00000000000100a0                Agate_gprtGetDuplexStatusIntf
                0x00000000000100b0                Agate_gprtGetForceLinkIntf
                0x00000000000100c0                Agate_gprtSetForceLinkIntf
                0x00000000000100d0                Agate_gprtGetSpeedIntf
                0x00000000000100e0                Agate_gprtGetFrameModeIntf
                0x00000000000100f0                Agate_gprtSetFrameModeIntf
                0x0000000000010100                Agate_gprtSetEgressModeIntf
                0x0000000000010120                Agate_gprtGetEgressModeIntf
                0x0000000000010130                Agate_gprtGetPortStateIntf
                0x0000000000010140                Agate_gprtSetPortStateIntf
 *fill*         0x0000000000010149        0x7 
 .text          0x0000000000010150       0x59 /home/roscube/Desktop/UMSD_v7.0.0_ADLINK/UMSD_v7.0.0/obj/dev/agate/src/api/msdDrv_obj/Agate_msdPortPrioMapIntf.o
                0x0000000000010150                Agate_gqosSetPrioMapRuleIntf
                0x0000000000010160                Agate_gqosGetPrioMapRuleIntf
                0x0000000000010170                Agate_gprtSetInitialPriIntf
                0x0000000000010180                Agate_gprtGetInitialPriIntf
                0x0000000000010190                Agate_gprtSetDefQpriIntf
                0x00000000000101a0                Agate_gprtGetDefQpriIntf
 *fill*         0x00000000000101a9        0x7 
 .text          0x00000000000101b0      0x242 /home/roscube/Desktop/UMSD_v7.0.0_ADLINK/UMSD_v7.0.0/obj/dev/agate/src/api/msdDrv_obj/Agate_msdQueueCtrlIntf.o
                0x00000000000101b0                Agate_gprtSetPortSchedIntf
                0x00000000000101f0                Agate_gprtGetPortSchedIntf
                0x0000000000010200                Agate_gsysSetQoSWeightIntf
                0x0000000000010300                Agate_gsysGetQoSWeightIntf
 .text          0x00000000000103f2        0x0 /home/roscube/Desktop/UMSD_v7.0.0_ADLINK/UMSD_v7.0.0/obj/dev/agate/src/api/msdDrv_obj/Agate_msdSysCtrlIntf.o
 *fill*         0x00000000000103f2        0xe 
 .text          0x0000000000010400       0x19 /home/roscube/Desktop/UMSD_v7.0.0_ADLINK/UMSD_v7.0.0/obj/dev/agate/src/api/msdDrv_obj/Agate_msdPhyCtrlIntf.o
                0x0000000000010400                Agate_gphySetPortSpeedIntf
                0x0000000000010410                Agate_gphySetPortAutoModeIntf
 *fill*         0x0000000000010419        0x7 
 .text          0x0000000000010420       0x1c /home/roscube/Desktop/UMSD_v7.0.0_ADLINK/UMSD_v7.0.0/obj/dev/agate/src/api/msdDrv_obj/Agate_msdEEPROMIntf.o
                0x0000000000010420                Agate_EEPROMWriteIntf
                0x0000000000010430                Agate_EEPROMReadIntf
 *fill*         0x000000000001043c        0x4 
 .text          0x0000000000010440      0x4a9 /home/roscube/Desktop/UMSD_v7.0.0_ADLINK/UMSD_v7.0.0/obj/dev/agate/src/api/msdDrv_obj/Agate_msdRMUIntf.o
                0x0000000000010440                Agate_msdRmuGetIDIntf
                0x0000000000010450                Agate_msdRmuAtuDumpIntf
                0x00000000000105a0                Agate_msdRmuMibDumpIntf
                0x00000000000106b0                Agate_msdRmuMib2DumpIntf
                0x00000000000108b0                Agate_msdRmuReadRegisterIntf
                0x00000000000108c0                Agate_msdRmuWriteRegisterIntf
                0x00000000000108e0                Agate_msdRmuMultiRegAccessIntf
 *fill*         0x00000000000108e9        0x7 
 .text          0x00000000000108f0      0xe6a /home/roscube/Desktop/UMSD_v7.0.0_ADLINK/UMSD_v7.0.0/obj/dev/agate/src/api/msdDrv_obj/Agate_msdPTP.o
                0x0000000000010c90                Agate_gptpSetIntEnable
                0x0000000000010d70                Agate_gptpGetIntEnable
                0x0000000000010e10                Agate_gptpSetProtPTPEn
                0x0000000000010ed0                Agate_gptpGetProtPTPEn
                0x0000000000010f60                Agate_gptpSetPortConfig
                0x0000000000011130                Agate_gptpGetPortConfig
                0x00000000000112e0                Agate_gptpGetTimeStamp
                0x00000000000113e0                Agate_gptpGetTSValidSt
                0x00000000000114a0                Agate_gptpResetTimeStamp
                0x0000000000011560                Agate_gptpSetGlobalConfig
                0x0000000000011620                Agate_gptpGetGlobalConfig
                0x00000000000116e0                Agate_gptpGetIntStatus
 *fill*         0x000000000001175a        0x6 
 .text          0x0000000000011760      0x364 /home/roscube/Desktop/UMSD_v7.0.0_ADLINK/UMSD_v7.0.0/obj/dev/agate/src/api/msdDrv_obj/Agate_msdPTPIntf.o
                0x0000000000011760                Agate_gptpSetIntEnableIntf
                0x00000000000117c0                Agate_gptpGetIntEnableIntf
                0x0000000000011820                Agate_gptpSetPortConfigIntf
                0x00000000000118a0                Agate_gptpGetPortConfigIntf
                0x0000000000011920                Agate_gptpGetTimeStampIntf
                0x0000000000011990                Agate_gptpSetGlobalConfigIntf
                0x00000000000119f0                Agate_gptpGetGlobalConfigIntf
                0x0000000000011a60                Agate_gptpGetIntStatusIntf
 *fill*         0x0000000000011ac4        0xc 
 .text          0x0000000000011ad0      0xc09 /home/roscube/Desktop/UMSD_v7.0.0_ADLINK/UMSD_v7.0.0/obj/dev/agate/src/api/msdDrv_obj/Agate_msdLed.o
                0x0000000000011d40                Agate_gledForceOn
                0x0000000000011df0                Agate_gledForceOff
                0x0000000000011ea0                Agate_gledLinkAct
                0x0000000000011f90                Agate_gledModeSet
                0x0000000000012060                Agate_gledModeGet
                0x0000000000012100                Agate_gledBlinkRateSet
                0x00000000000121b0                Agate_gledBlinkRateGet
                0x0000000000012290                Agate_gledPulseStretchSet
                0x0000000000012340                Agate_gledPulseStretchGet
                0x0000000000012410                Agate_gledSpecialModeSet
                0x00000000000124c0                Agate_gledSpecialModeGet
                0x0000000000012520                Agate_gledCtrlSet
                0x0000000000012560                Agate_gledCtrlGet
                0x0000000000012590                Agate_gledDump
 *fill*         0x00000000000126d9        0x7 
 .text          0x00000000000126e0      0x14c /home/roscube/Desktop/UMSD_v7.0.0_ADLINK/UMSD_v7.0.0/obj/dev/agate/src/api/msdDrv_obj/Agate_msdLedIntf.o
                0x00000000000126e0                Agate_gledForceOnIntf
                0x00000000000126f0                Agate_gledForceOffIntf
                0x0000000000012700                Agate_gledLinkActIntf
                0x0000000000012710                Agate_gledModeSetIntf
                0x0000000000012720                Agate_gledModeGetIntf
                0x0000000000012730                Agate_gledBlinkRateSetIntf
                0x0000000000012740                Agate_gledBlinkRateGetIntf
                0x0000000000012750                Agate_gledPulseStretchSetIntf
                0x0000000000012760                Agate_gledPulseStretchGetIntf
                0x0000000000012770                Agate_gledSpecialModeSetIntf
                0x00000000000127c0                Agate_gledSpecialModeGetIntf
                0x0000000000012810                Agate_gledCtrlSetIntf
                0x0000000000012820                Agate_gledCtrlGetIntf
 *(.gnu.warning)

.text.unlikely  0x0000000000000000       0x14
 .text.unlikely
                0x0000000000000000       0x14 /home/roscube/Desktop/UMSD_v7.0.0_ADLINK/UMSD_v7.0.0/obj/dev/agate/src/api/msdDrv_obj/Agate_msdLed.o

.fini
 *(SORT_NONE(.fini))

.rodata         0x0000000000000000     0x131c
 *(.rodata)
 .rodata        0x0000000000000000       0x60 /home/roscube/Desktop/UMSD_v7.0.0_ADLINK/UMSD_v7.0.0/obj/dev/agate/src/api/msdDrv_obj/Agate_msdBrgStu.o
 .rodata        0x0000000000000060      0x60c /home/roscube/Desktop/UMSD_v7.0.0_ADLINK/UMSD_v7.0.0/obj/dev/agate/src/api/msdDrv_obj/Agate_msdPortCtrl.o
 *fill*         0x000000000000066c       0x14 
 .rodata        0x0000000000000680      0xc00 /home/roscube/Desktop/UMSD_v7.0.0_ADLINK/UMSD_v7.0.0/obj/dev/agate/src/api/msdDrv_obj/Agate_msdSysCtrl.o
 .rodata        0x0000000000001280       0x30 /home/roscube/Desktop/UMSD_v7.0.0_ADLINK/UMSD_v7.0.0/obj/dev/agate/src/api/msdDrv_obj/Agate_msdPhyCtrl.o
 .rodata        0x00000000000012b0       0x20 /home/roscube/Desktop/UMSD_v7.0.0_ADLINK/UMSD_v7.0.0/obj/dev/agate/src/api/msdDrv_obj/Agate_msdPortCtrlIntf.o
 .rodata        0x00000000000012d0       0x20 /home/roscube/Desktop/UMSD_v7.0.0_ADLINK/UMSD_v7.0.0/obj/dev/agate/src/api/msdDrv_obj/Agate_msdQueueCtrlIntf.o
 .rodata        0x00000000000012f0       0x2c /home/roscube/Desktop/UMSD_v7.0.0_ADLINK/UMSD_v7.0.0/obj/dev/agate/src/api/msdDrv_obj/Agate_msdLed.o

.rodata.str1.8  0x0000000000000000      0x493
 .rodata.str1.8
                0x0000000000000000       0xa4 /home/roscube/Desktop/UMSD_v7.0.0_ADLINK/UMSD_v7.0.0/obj/dev/agate/src/api/msdDrv_obj/Agate_msdTCAM.o
 *fill*         0x00000000000000a4        0x4 
 .rodata.str1.8
                0x00000000000000a8       0xdf /home/roscube/Desktop/UMSD_v7.0.0_ADLINK/UMSD_v7.0.0/obj/dev/agate/src/api/msdDrv_obj/Agate_msdBrgVtu.o
 *fill*         0x0000000000000187        0x1 
 .rodata.str1.8
                0x0000000000000188       0x39 /home/roscube/Desktop/UMSD_v7.0.0_ADLINK/UMSD_v7.0.0/obj/dev/agate/src/api/msdDrv_obj/Agate_msdPortCtrl.o
 *fill*         0x00000000000001c1        0x7 
 .rodata.str1.8
                0x00000000000001c8       0x73 /home/roscube/Desktop/UMSD_v7.0.0_ADLINK/UMSD_v7.0.0/obj/dev/agate/src/api/msdDrv_obj/Agate_msdSysCtrl.o
 *fill*         0x000000000000023b        0x5 
 .rodata.str1.8
                0x0000000000000240       0xee /home/roscube/Desktop/UMSD_v7.0.0_ADLINK/UMSD_v7.0.0/obj/dev/agate/src/api/msdDrv_obj/Agate_msdBrgFdbIntf.o
 *fill*         0x000000000000032e        0x2 
 .rodata.str1.8
                0x0000000000000330      0x163 /home/roscube/Desktop/UMSD_v7.0.0_ADLINK/UMSD_v7.0.0/obj/dev/agate/src/api/msdDrv_obj/Agate_msdLed.o

.rodata.str1.1  0x0000000000000000      0x666
 .rodata.str1.1
                0x0000000000000000      0x2a6 /home/roscube/Desktop/UMSD_v7.0.0_ADLINK/UMSD_v7.0.0/obj/dev/agate/src/api/msdDrv_obj/Agate_msdTCAM.o
 .rodata.str1.1
                0x00000000000002a6        0x2 /home/roscube/Desktop/UMSD_v7.0.0_ADLINK/UMSD_v7.0.0/obj/dev/agate/src/api/msdDrv_obj/Agate_msdBrgVtu.o
 .rodata.str1.1
                0x00000000000002a8       0x59 /home/roscube/Desktop/UMSD_v7.0.0_ADLINK/UMSD_v7.0.0/obj/dev/agate/src/api/msdDrv_obj/Agate_msdBrgStu.o
 .rodata.str1.1
                0x0000000000000301      0x342 /home/roscube/Desktop/UMSD_v7.0.0_ADLINK/UMSD_v7.0.0/obj/dev/agate/src/api/msdDrv_obj/Agate_msdPortRmon.o
 .rodata.str1.1
                0x0000000000000643        0xb /home/roscube/Desktop/UMSD_v7.0.0_ADLINK/UMSD_v7.0.0/obj/dev/agate/src/api/msdDrv_obj/Agate_msdPortCtrl.o
 .rodata.str1.1
                0x000000000000064e       0x16 /home/roscube/Desktop/UMSD_v7.0.0_ADLINK/UMSD_v7.0.0/obj/dev/agate/src/api/msdDrv_obj/Agate_msdSysCtrl.o
 .rodata.str1.1
                0x0000000000000664        0x2 /home/roscube/Desktop/UMSD_v7.0.0_ADLINK/UMSD_v7.0.0/obj/dev/agate/src/api/msdDrv_obj/Agate_msdBrgFdbIntf.o

.rodata.cst8    0x0000000000000000       0x28
 .rodata.cst8   0x0000000000000000       0x28 /home/roscube/Desktop/UMSD_v7.0.0_ADLINK/UMSD_v7.0.0/obj/dev/agate/src/api/msdDrv_obj/Agate_msdPIRL.o

.rodata1
 *(.rodata1)

.eh_frame_hdr
 *(.eh_frame_hdr)

.eh_frame       0x0000000000000000     0x496c
 *(.eh_frame)
 .eh_frame      0x0000000000000000      0x340 /home/roscube/Desktop/UMSD_v7.0.0_ADLINK/UMSD_v7.0.0/obj/dev/agate/src/api/msdDrv_obj/Agate_msdTCAM.o
 .eh_frame      0x0000000000000340      0x1a8 /home/roscube/Desktop/UMSD_v7.0.0_ADLINK/UMSD_v7.0.0/obj/dev/agate/src/api/msdDrv_obj/Agate_msdAdvVct.o
 .eh_frame      0x00000000000004e8      0x430 /home/roscube/Desktop/UMSD_v7.0.0_ADLINK/UMSD_v7.0.0/obj/dev/agate/src/api/msdDrv_obj/Agate_msdBrgFdb.o
 .eh_frame      0x0000000000000918      0x1d0 /home/roscube/Desktop/UMSD_v7.0.0_ADLINK/UMSD_v7.0.0/obj/dev/agate/src/api/msdDrv_obj/Agate_msdBrgVtu.o
 .eh_frame      0x0000000000000ae8      0x180 /home/roscube/Desktop/UMSD_v7.0.0_ADLINK/UMSD_v7.0.0/obj/dev/agate/src/api/msdDrv_obj/Agate_msdBrgStu.o
 .eh_frame      0x0000000000000c68      0x208 /home/roscube/Desktop/UMSD_v7.0.0_ADLINK/UMSD_v7.0.0/obj/dev/agate/src/api/msdDrv_obj/Agate_msdPIRL.o
 .eh_frame      0x0000000000000e70      0x1b8 /home/roscube/Desktop/UMSD_v7.0.0_ADLINK/UMSD_v7.0.0/obj/dev/agate/src/api/msdDrv_obj/Agate_msdPortRmon.o
 .eh_frame      0x0000000000001028     0x11d8 /home/roscube/Desktop/UMSD_v7.0.0_ADLINK/UMSD_v7.0.0/obj/dev/agate/src/api/msdDrv_obj/Agate_msdPortCtrl.o
 .eh_frame      0x0000000000002200      0x1a0 /home/roscube/Desktop/UMSD_v7.0.0_ADLINK/UMSD_v7.0.0/obj/dev/agate/src/api/msdDrv_obj/Agate_msdPortPrioMap.o
 .eh_frame      0x00000000000023a0      0x5a0 /home/roscube/Desktop/UMSD_v7.0.0_ADLINK/UMSD_v7.0.0/obj/dev/agate/src/api/msdDrv_obj/Agate_msdSysCtrl.o
 .eh_frame      0x0000000000002940      0x318 /home/roscube/Desktop/UMSD_v7.0.0_ADLINK/UMSD_v7.0.0/obj/dev/agate/src/api/msdDrv_obj/Agate_msdPhyCtrl.o
 .eh_frame      0x0000000000002c58      0x110 /home/roscube/Desktop/UMSD_v7.0.0_ADLINK/UMSD_v7.0.0/obj/dev/agate/src/api/msdDrv_obj/Agate_msdQueueCtrl.o
 .eh_frame      0x0000000000002d68      0x1e8 /home/roscube/Desktop/UMSD_v7.0.0_ADLINK/UMSD_v7.0.0/obj/dev/agate/src/api/msdDrv_obj/Agate_msdRMU.o
 .eh_frame      0x0000000000002f50       0x90 /home/roscube/Desktop/UMSD_v7.0.0_ADLINK/UMSD_v7.0.0/obj/dev/agate/src/api/msdDrv_obj/Agate_msdEEPROM.o
 .eh_frame      0x0000000000002fe0      0x160 /home/roscube/Desktop/UMSD_v7.0.0_ADLINK/UMSD_v7.0.0/obj/dev/agate/src/api/msdDrv_obj/Agate_msdTCAMIntf.o
 .eh_frame      0x0000000000003140       0x80 /home/roscube/Desktop/UMSD_v7.0.0_ADLINK/UMSD_v7.0.0/obj/dev/agate/src/api/msdDrv_obj/Agate_msdAdvVctIntf.o
 .eh_frame      0x00000000000031c0      0x1e0 /home/roscube/Desktop/UMSD_v7.0.0_ADLINK/UMSD_v7.0.0/obj/dev/agate/src/api/msdDrv_obj/Agate_msdBrgFdbIntf.o
 .eh_frame      0x00000000000033a0      0x220 /home/roscube/Desktop/UMSD_v7.0.0_ADLINK/UMSD_v7.0.0/obj/dev/agate/src/api/msdDrv_obj/Agate_msdBrgVtuIntf.o
 .eh_frame      0x00000000000035c0      0x108 /home/roscube/Desktop/UMSD_v7.0.0_ADLINK/UMSD_v7.0.0/obj/dev/agate/src/api/msdDrv_obj/Agate_msdBrgStuIntf.o
 .eh_frame      0x00000000000036c8      0x160 /home/roscube/Desktop/UMSD_v7.0.0_ADLINK/UMSD_v7.0.0/obj/dev/agate/src/api/msdDrv_obj/Agate_msdPIRLIntf.o
 .eh_frame      0x0000000000003828      0x148 /home/roscube/Desktop/UMSD_v7.0.0_ADLINK/UMSD_v7.0.0/obj/dev/agate/src/api/msdDrv_obj/Agate_msdQav.o
 .eh_frame      0x0000000000003970       0x88 /home/roscube/Desktop/UMSD_v7.0.0_ADLINK/UMSD_v7.0.0/obj/dev/agate/src/api/msdDrv_obj/Agate_msdPortRmonIntf.o
 .eh_frame      0x00000000000039f8      0x360 /home/roscube/Desktop/UMSD_v7.0.0_ADLINK/UMSD_v7.0.0/obj/dev/agate/src/api/msdDrv_obj/Agate_msdPortCtrlIntf.o
 .eh_frame      0x0000000000003d58       0x90 /home/roscube/Desktop/UMSD_v7.0.0_ADLINK/UMSD_v7.0.0/obj/dev/agate/src/api/msdDrv_obj/Agate_msdPortPrioMapIntf.o
 .eh_frame      0x0000000000003de8       0x80 /home/roscube/Desktop/UMSD_v7.0.0_ADLINK/UMSD_v7.0.0/obj/dev/agate/src/api/msdDrv_obj/Agate_msdQueueCtrlIntf.o
 .eh_frame      0x0000000000003e68       0x40 /home/roscube/Desktop/UMSD_v7.0.0_ADLINK/UMSD_v7.0.0/obj/dev/agate/src/api/msdDrv_obj/Agate_msdPhyCtrlIntf.o
 .eh_frame      0x0000000000003ea8       0x40 /home/roscube/Desktop/UMSD_v7.0.0_ADLINK/UMSD_v7.0.0/obj/dev/agate/src/api/msdDrv_obj/Agate_msdEEPROMIntf.o
 .eh_frame      0x0000000000003ee8      0x118 /home/roscube/Desktop/UMSD_v7.0.0_ADLINK/UMSD_v7.0.0/obj/dev/agate/src/api/msdDrv_obj/Agate_msdRMUIntf.o
 .eh_frame      0x0000000000004000      0x340 /home/roscube/Desktop/UMSD_v7.0.0_ADLINK/UMSD_v7.0.0/obj/dev/agate/src/api/msdDrv_obj/Agate_msdPTP.o
 .eh_frame      0x0000000000004340      0x120 /home/roscube/Desktop/UMSD_v7.0.0_ADLINK/UMSD_v7.0.0/obj/dev/agate/src/api/msdDrv_obj/Agate_msdPTPIntf.o
 .eh_frame      0x0000000000004460      0x3f0 /home/roscube/Desktop/UMSD_v7.0.0_ADLINK/UMSD_v7.0.0/obj/dev/agate/src/api/msdDrv_obj/Agate_msdLed.o
 .eh_frame      0x0000000000004850      0x11c /home/roscube/Desktop/UMSD_v7.0.0_ADLINK/UMSD_v7.0.0/obj/dev/agate/src/api/msdDrv_obj/Agate_msdLedIntf.o
                                        0x120 (size before relaxing)

.gcc_except_table
 *(.gcc_except_table)

.gnu_extab
 *(.gnu_extab*)

.exception_ranges
 *(.exception_ranges)

.eh_frame
 *(.eh_frame)

.gnu_extab
 *(.gnu_extab)

.gcc_except_table
 *(.gcc_except_table)

.exception_ranges
 *(.exception_ranges)

.tdata
 *(.tdata)

.tbss
 *(.tbss)

.jcr
 *(.jcr)

.dynamic
 *(.dynamic)

.got
 *(.got)

.got.plt
 *(.got.plt)

.data           0x0000000000000000      0x180
 *(.data)
 .data          0x0000000000000000        0x0 /home/roscube/Desktop/UMSD_v7.0.0_ADLINK/UMSD_v7.0.0/obj/dev/agate/src/api/msdDrv_obj/Agate_msdTCAM.o
 .data          0x0000000000000000      0x180 /home/roscube/Desktop/UMSD_v7.0.0_ADLINK/UMSD_v7.0.0/obj/dev/agate/src/api/msdDrv_obj/Agate_msdAdvVct.o
 .data          0x0000000000000180        0x0 /home/roscube/Desktop/UMSD_v7.0.0_ADLINK/UMSD_v7.0.0/obj/dev/agate/src/api/msdDrv_obj/Agate_msdBrgFdb.o
 .data          0x0000000000000180        0x0 /home/roscube/Desktop/UMSD_v7.0.0_ADLINK/UMSD_v7.0.0/obj/dev/agate/src/api/msdDrv_obj/Agate_msdBrgVtu.o
 .data          0x0000000000000180        0x0 /home/roscube/Desktop/UMSD_v7.0.0_ADLINK/UMSD_v7.0.0/obj/dev/agate/src/api/msdDrv_obj/Agate_msdBrgStu.o
 .data          0x0000000000000180        0x0 /home/roscube/Desktop/UMSD_v7.0.0_ADLINK/UMSD_v7.0.0/obj/dev/agate/src/api/msdDrv_obj/Agate_msdPIRL.o
 .data          0x0000000000000180        0x0 /home/roscube/Desktop/UMSD_v7.0.0_ADLINK/UMSD_v7.0.0/obj/dev/agate/src/api/msdDrv_obj/Agate_msdPortRmon.o
 .data          0x0000000000000180        0x0 /home/roscube/Desktop/UMSD_v7.0.0_ADLINK/UMSD_v7.0.0/obj/dev/agate/src/api/msdDrv_obj/Agate_msdPortCtrl.o
 .data          0x0000000000000180        0x0 /home/roscube/Desktop/UMSD_v7.0.0_ADLINK/UMSD_v7.0.0/obj/dev/agate/src/api/msdDrv_obj/Agate_msdPortPrioMap.o
 .data          0x0000000000000180        0x0 /home/roscube/Desktop/UMSD_v7.0.0_ADLINK/UMSD_v7.0.0/obj/dev/agate/src/api/msdDrv_obj/Agate_msdSysCtrl.o
 .data          0x0000000000000180        0x0 /home/roscube/Desktop/UMSD_v7.0.0_ADLINK/UMSD_v7.0.0/obj/dev/agate/src/api/msdDrv_obj/Agate_msdPhyCtrl.o
 .data          0x0000000000000180        0x0 /home/roscube/Desktop/UMSD_v7.0.0_ADLINK/UMSD_v7.0.0/obj/dev/agate/src/api/msdDrv_obj/Agate_msdQueueCtrl.o
 .data          0x0000000000000180        0x0 /home/roscube/Desktop/UMSD_v7.0.0_ADLINK/UMSD_v7.0.0/obj/dev/agate/src/api/msdDrv_obj/Agate_msdRMU.o
 .data          0x0000000000000180        0x0 /home/roscube/Desktop/UMSD_v7.0.0_ADLINK/UMSD_v7.0.0/obj/dev/agate/src/api/msdDrv_obj/Agate_msdEEPROM.o
 .data          0x0000000000000180        0x0 /home/roscube/Desktop/UMSD_v7.0.0_ADLINK/UMSD_v7.0.0/obj/dev/agate/src/api/msdDrv_obj/Agate_msdTCAMIntf.o
 .data          0x0000000000000180        0x0 /home/roscube/Desktop/UMSD_v7.0.0_ADLINK/UMSD_v7.0.0/obj/dev/agate/src/api/msdDrv_obj/Agate_msdAdvVctIntf.o
 .data          0x0000000000000180        0x0 /home/roscube/Desktop/UMSD_v7.0.0_ADLINK/UMSD_v7.0.0/obj/dev/agate/src/api/msdDrv_obj/Agate_msdBrgFdbIntf.o
 .data          0x0000000000000180        0x0 /home/roscube/Desktop/UMSD_v7.0.0_ADLINK/UMSD_v7.0.0/obj/dev/agate/src/api/msdDrv_obj/Agate_msdBrgVtuIntf.o
 .data          0x0000000000000180        0x0 /home/roscube/Desktop/UMSD_v7.0.0_ADLINK/UMSD_v7.0.0/obj/dev/agate/src/api/msdDrv_obj/Agate_msdBrgStuIntf.o
 .data          0x0000000000000180        0x0 /home/roscube/Desktop/UMSD_v7.0.0_ADLINK/UMSD_v7.0.0/obj/dev/agate/src/api/msdDrv_obj/Agate_msdPIRLIntf.o
 .data          0x0000000000000180        0x0 /home/roscube/Desktop/UMSD_v7.0.0_ADLINK/UMSD_v7.0.0/obj/dev/agate/src/api/msdDrv_obj/Agate_msdQav.o
 .data          0x0000000000000180        0x0 /home/roscube/Desktop/UMSD_v7.0.0_ADLINK/UMSD_v7.0.0/obj/dev/agate/src/api/msdDrv_obj/Agate_msdPortRmonIntf.o
 .data          0x0000000000000180        0x0 /home/roscube/Desktop/UMSD_v7.0.0_ADLINK/UMSD_v7.0.0/obj/dev/agate/src/api/msdDrv_obj/Agate_msdPortCtrlIntf.o
 .data          0x0000000000000180        0x0 /home/roscube/Desktop/UMSD_v7.0.0_ADLINK/UMSD_v7.0.0/obj/dev/agate/src/api/msdDrv_obj/Agate_msdPortPrioMapIntf.o
 .data          0x0000000000000180        0x0 /home/roscube/Desktop/UMSD_v7.0.0_ADLINK/UMSD_v7.0.0/obj/dev/agate/src/api/msdDrv_obj/Agate_msdQueueCtrlIntf.o
 .data          0x0000000000000180        0x0 /home/roscube/Desktop/UMSD_v7.0.0_ADLINK/UMSD_v7.0.0/obj/dev/agate/src/api/msdDrv_obj/Agate_msdSysCtrlIntf.o
 .data          0x0000000000000180        0x0 /home/roscube/Desktop/UMSD_v7.0.0_ADLINK/UMSD_v7.0.0/obj/dev/agate/src/api/msdDrv_obj/Agate_msdPhyCtrlIntf.o
 .data          0x0000000000000180        0x0 /home/roscube/Desktop/UMSD_v7.0.0_ADLINK/UMSD_v7.0.0/obj/dev/agate/src/api/msdDrv_obj/Agate_msdEEPROMIntf.o
 .data          0x0000000000000180        0x0 /home/roscube/Desktop/UMSD_v7.0.0_ADLINK/UMSD_v7.0.0/obj/dev/agate/src/api/msdDrv_obj/Agate_msdRMUIntf.o
 .data          0x0000000000000180        0x0 /home/roscube/Desktop/UMSD_v7.0.0_ADLINK/UMSD_v7.0.0/obj/dev/agate/src/api/msdDrv_obj/Agate_msdPTP.o
 .data          0x0000000000000180        0x0 /home/roscube/Desktop/UMSD_v7.0.0_ADLINK/UMSD_v7.0.0/obj/dev/agate/src/api/msdDrv_obj/Agate_msdPTPIntf.o
 .data          0x0000000000000180        0x0 /home/roscube/Desktop/UMSD_v7.0.0_ADLINK/UMSD_v7.0.0/obj/dev/agate/src/api/msdDrv_obj/Agate_msdLed.o
 .data          0x0000000000000180        0x0 /home/roscube/Desktop/UMSD_v7.0.0_ADLINK/UMSD_v7.0.0/obj/dev/agate/src/api/msdDrv_obj/Agate_msdLedIntf.o

.data1
 *(.data1)

.bss            0x0000000000000000        0x0
 *(.bss)
 .bss           0x0000000000000000        0x0 /home/roscube/Desktop/UMSD_v7.0.0_ADLINK/UMSD_v7.0.0/obj/dev/agate/src/api/msdDrv_obj/Agate_msdTCAM.o
 .bss           0x0000000000000000        0x0 /home/roscube/Desktop/UMSD_v7.0.0_ADLINK/UMSD_v7.0.0/obj/dev/agate/src/api/msdDrv_obj/Agate_msdAdvVct.o
 .bss           0x0000000000000000        0x0 /home/roscube/Desktop/UMSD_v7.0.0_ADLINK/UMSD_v7.0.0/obj/dev/agate/src/api/msdDrv_obj/Agate_msdBrgFdb.o
 .bss           0x0000000000000000        0x0 /home/roscube/Desktop/UMSD_v7.0.0_ADLINK/UMSD_v7.0.0/obj/dev/agate/src/api/msdDrv_obj/Agate_msdBrgVtu.o
 .bss           0x0000000000000000        0x0 /home/roscube/Desktop/UMSD_v7.0.0_ADLINK/UMSD_v7.0.0/obj/dev/agate/src/api/msdDrv_obj/Agate_msdBrgStu.o
 .bss           0x0000000000000000        0x0 /home/roscube/Desktop/UMSD_v7.0.0_ADLINK/UMSD_v7.0.0/obj/dev/agate/src/api/msdDrv_obj/Agate_msdPIRL.o
 .bss           0x0000000000000000        0x0 /home/roscube/Desktop/UMSD_v7.0.0_ADLINK/UMSD_v7.0.0/obj/dev/agate/src/api/msdDrv_obj/Agate_msdPortRmon.o
 .bss           0x0000000000000000        0x0 /home/roscube/Desktop/UMSD_v7.0.0_ADLINK/UMSD_v7.0.0/obj/dev/agate/src/api/msdDrv_obj/Agate_msdPortCtrl.o
 .bss           0x0000000000000000        0x0 /home/roscube/Desktop/UMSD_v7.0.0_ADLINK/UMSD_v7.0.0/obj/dev/agate/src/api/msdDrv_obj/Agate_msdPortPrioMap.o
 .bss           0x0000000000000000        0x0 /home/roscube/Desktop/UMSD_v7.0.0_ADLINK/UMSD_v7.0.0/obj/dev/agate/src/api/msdDrv_obj/Agate_msdSysCtrl.o
 .bss           0x0000000000000000        0x0 /home/roscube/Desktop/UMSD_v7.0.0_ADLINK/UMSD_v7.0.0/obj/dev/agate/src/api/msdDrv_obj/Agate_msdPhyCtrl.o
 .bss           0x0000000000000000        0x0 /home/roscube/Desktop/UMSD_v7.0.0_ADLINK/UMSD_v7.0.0/obj/dev/agate/src/api/msdDrv_obj/Agate_msdQueueCtrl.o
 .bss           0x0000000000000000        0x0 /home/roscube/Desktop/UMSD_v7.0.0_ADLINK/UMSD_v7.0.0/obj/dev/agate/src/api/msdDrv_obj/Agate_msdRMU.o
 .bss           0x0000000000000000        0x0 /home/roscube/Desktop/UMSD_v7.0.0_ADLINK/UMSD_v7.0.0/obj/dev/agate/src/api/msdDrv_obj/Agate_msdEEPROM.o
 .bss           0x0000000000000000        0x0 /home/roscube/Desktop/UMSD_v7.0.0_ADLINK/UMSD_v7.0.0/obj/dev/agate/src/api/msdDrv_obj/Agate_msdTCAMIntf.o
 .bss           0x0000000000000000        0x0 /home/roscube/Desktop/UMSD_v7.0.0_ADLINK/UMSD_v7.0.0/obj/dev/agate/src/api/msdDrv_obj/Agate_msdAdvVctIntf.o
 .bss           0x0000000000000000        0x0 /home/roscube/Desktop/UMSD_v7.0.0_ADLINK/UMSD_v7.0.0/obj/dev/agate/src/api/msdDrv_obj/Agate_msdBrgFdbIntf.o
 .bss           0x0000000000000000        0x0 /home/roscube/Desktop/UMSD_v7.0.0_ADLINK/UMSD_v7.0.0/obj/dev/agate/src/api/msdDrv_obj/Agate_msdBrgVtuIntf.o
 .bss           0x0000000000000000        0x0 /home/roscube/Desktop/UMSD_v7.0.0_ADLINK/UMSD_v7.0.0/obj/dev/agate/src/api/msdDrv_obj/Agate_msdBrgStuIntf.o
 .bss           0x0000000000000000        0x0 /home/roscube/Desktop/UMSD_v7.0.0_ADLINK/UMSD_v7.0.0/obj/dev/agate/src/api/msdDrv_obj/Agate_msdPIRLIntf.o
 .bss           0x0000000000000000        0x0 /home/roscube/Desktop/UMSD_v7.0.0_ADLINK/UMSD_v7.0.0/obj/dev/agate/src/api/msdDrv_obj/Agate_msdQav.o
 .bss           0x0000000000000000        0x0 /home/roscube/Desktop/UMSD_v7.0.0_ADLINK/UMSD_v7.0.0/obj/dev/agate/src/api/msdDrv_obj/Agate_msdPortRmonIntf.o
 .bss           0x0000000000000000        0x0 /home/roscube/Desktop/UMSD_v7.0.0_ADLINK/UMSD_v7.0.0/obj/dev/agate/src/api/msdDrv_obj/Agate_msdPortCtrlIntf.o
 .bss           0x0000000000000000        0x0 /home/roscube/Desktop/UMSD_v7.0.0_ADLINK/UMSD_v7.0.0/obj/dev/agate/src/api/msdDrv_obj/Agate_msdPortPrioMapIntf.o
 .bss           0x0000000000000000        0x0 /home/roscube/Desktop/UMSD_v7.0.0_ADLINK/UMSD_v7.0.0/obj/dev/agate/src/api/msdDrv_obj/Agate_msdQueueCtrlIntf.o
 .bss           0x0000000000000000        0x0 /home/roscube/Desktop/UMSD_v7.0.0_ADLINK/UMSD_v7.0.0/obj/dev/agate/src/api/msdDrv_obj/Agate_msdSysCtrlIntf.o
 .bss           0x0000000000000000        0x0 /home/roscube/Desktop/UMSD_v7.0.0_ADLINK/UMSD_v7.0.0/obj/dev/agate/src/api/msdDrv_obj/Agate_msdPhyCtrlIntf.o
 .bss           0x0000000000000000        0x0 /home/roscube/Desktop/UMSD_v7.0.0_ADLINK/UMSD_v7.0.0/obj/dev/agate/src/api/msdDrv_obj/Agate_msdEEPROMIntf.o
 .bss           0x0000000000000000        0x0 /home/roscube/Desktop/UMSD_v7.0.0_ADLINK/UMSD_v7.0.0/obj/dev/agate/src/api/msdDrv_obj/Agate_msdRMUIntf.o
 .bss           0x0000000000000000        0x0 /home/roscube/Desktop/UMSD_v7.0.0_ADLINK/UMSD_v7.0.0/obj/dev/agate/src/api/msdDrv_obj/Agate_msdPTP.o
 .bss           0x0000000000000000        0x0 /home/roscube/Desktop/UMSD_v7.0.0_ADLINK/UMSD_v7.0.0/obj/dev/agate/src/api/msdDrv_obj/Agate_msdPTPIntf.o
 .bss           0x0000000000000000        0x0 /home/roscube/Desktop/UMSD_v7.0.0_ADLINK/UMSD_v7.0.0/obj/dev/agate/src/api/msdDrv_obj/Agate_msdLed.o
 .bss           0x0000000000000000        0x0 /home/roscube/Desktop/UMSD_v7.0.0_ADLINK/UMSD_v7.0.0/obj/dev/agate/src/api/msdDrv_obj/Agate_msdLedIntf.o

.lbss
 *(.lbss)

.lrodata
 *(.lrodata)

.ldata
 *(.ldata)

.stab
 *(.stab)

.stabstr
 *(.stabstr)

.stab.excl
 *(.stab.excl)

.stab.exclstr
 *(.stab.exclstr)

.stab.index
 *(.stab.index)

.stab.indexstr
 *(.stab.indexstr)

.comment        0x0000000000000000      0x5ac
 *(.comment)
 .comment       0x0000000000000000       0x2c /home/roscube/Desktop/UMSD_v7.0.0_ADLINK/UMSD_v7.0.0/obj/dev/agate/src/api/msdDrv_obj/Agate_msdTCAM.o
 .comment       0x000000000000002c       0x2c /home/roscube/Desktop/UMSD_v7.0.0_ADLINK/UMSD_v7.0.0/obj/dev/agate/src/api/msdDrv_obj/Agate_msdAdvVct.o
 .comment       0x0000000000000058       0x2c /home/roscube/Desktop/UMSD_v7.0.0_ADLINK/UMSD_v7.0.0/obj/dev/agate/src/api/msdDrv_obj/Agate_msdBrgFdb.o
 .comment       0x0000000000000084       0x2c /home/roscube/Desktop/UMSD_v7.0.0_ADLINK/UMSD_v7.0.0/obj/dev/agate/src/api/msdDrv_obj/Agate_msdBrgVtu.o
 .comment       0x00000000000000b0       0x2c /home/roscube/Desktop/UMSD_v7.0.0_ADLINK/UMSD_v7.0.0/obj/dev/agate/src/api/msdDrv_obj/Agate_msdBrgStu.o
 .comment       0x00000000000000dc       0x2c /home/roscube/Desktop/UMSD_v7.0.0_ADLINK/UMSD_v7.0.0/obj/dev/agate/src/api/msdDrv_obj/Agate_msdPIRL.o
 .comment       0x0000000000000108       0x2c /home/roscube/Desktop/UMSD_v7.0.0_ADLINK/UMSD_v7.0.0/obj/dev/agate/src/api/msdDrv_obj/Agate_msdPortRmon.o
 .comment       0x0000000000000134       0x2c /home/roscube/Desktop/UMSD_v7.0.0_ADLINK/UMSD_v7.0.0/obj/dev/agate/src/api/msdDrv_obj/Agate_msdPortCtrl.o
 .comment       0x0000000000000160       0x2c /home/roscube/Desktop/UMSD_v7.0.0_ADLINK/UMSD_v7.0.0/obj/dev/agate/src/api/msdDrv_obj/Agate_msdPortPrioMap.o
 .comment       0x000000000000018c       0x2c /home/roscube/Desktop/UMSD_v7.0.0_ADLINK/UMSD_v7.0.0/obj/dev/agate/src/api/msdDrv_obj/Agate_msdSysCtrl.o
 .comment       0x00000000000001b8       0x2c /home/roscube/Desktop/UMSD_v7.0.0_ADLINK/UMSD_v7.0.0/obj/dev/agate/src/api/msdDrv_obj/Agate_msdPhyCtrl.o
 .comment       0x00000000000001e4       0x2c /home/roscube/Desktop/UMSD_v7.0.0_ADLINK/UMSD_v7.0.0/obj/dev/agate/src/api/msdDrv_obj/Agate_msdQueueCtrl.o
 .comment       0x0000000000000210       0x2c /home/roscube/Desktop/UMSD_v7.0.0_ADLINK/UMSD_v7.0.0/obj/dev/agate/src/api/msdDrv_obj/Agate_msdRMU.o
 .comment       0x000000000000023c       0x2c /home/roscube/Desktop/UMSD_v7.0.0_ADLINK/UMSD_v7.0.0/obj/dev/agate/src/api/msdDrv_obj/Agate_msdEEPROM.o
 .comment       0x0000000000000268       0x2c /home/roscube/Desktop/UMSD_v7.0.0_ADLINK/UMSD_v7.0.0/obj/dev/agate/src/api/msdDrv_obj/Agate_msdTCAMIntf.o
 .comment       0x0000000000000294       0x2c /home/roscube/Desktop/UMSD_v7.0.0_ADLINK/UMSD_v7.0.0/obj/dev/agate/src/api/msdDrv_obj/Agate_msdAdvVctIntf.o
 .comment       0x00000000000002c0       0x2c /home/roscube/Desktop/UMSD_v7.0.0_ADLINK/UMSD_v7.0.0/obj/dev/agate/src/api/msdDrv_obj/Agate_msdBrgFdbIntf.o
 .comment       0x00000000000002ec       0x2c /home/roscube/Desktop/UMSD_v7.0.0_ADLINK/UMSD_v7.0.0/obj/dev/agate/src/api/msdDrv_obj/Agate_msdBrgVtuIntf.o
 .comment       0x0000000000000318       0x2c /home/roscube/Desktop/UMSD_v7.0.0_ADLINK/UMSD_v7.0.0/obj/dev/agate/src/api/msdDrv_obj/Agate_msdBrgStuIntf.o
 .comment       0x0000000000000344       0x2c /home/roscube/Desktop/UMSD_v7.0.0_ADLINK/UMSD_v7.0.0/obj/dev/agate/src/api/msdDrv_obj/Agate_msdPIRLIntf.o
 .comment       0x0000000000000370       0x2c /home/roscube/Desktop/UMSD_v7.0.0_ADLINK/UMSD_v7.0.0/obj/dev/agate/src/api/msdDrv_obj/Agate_msdQav.o
 .comment       0x000000000000039c       0x2c /home/roscube/Desktop/UMSD_v7.0.0_ADLINK/UMSD_v7.0.0/obj/dev/agate/src/api/msdDrv_obj/Agate_msdPortRmonIntf.o
 .comment       0x00000000000003c8       0x2c /home/roscube/Desktop/UMSD_v7.0.0_ADLINK/UMSD_v7.0.0/obj/dev/agate/src/api/msdDrv_obj/Agate_msdPortCtrlIntf.o
 .comment       0x00000000000003f4       0x2c /home/roscube/Desktop/UMSD_v7.0.0_ADLINK/UMSD_v7.0.0/obj/dev/agate/src/api/msdDrv_obj/Agate_msdPortPrioMapIntf.o
 .comment       0x0000000000000420       0x2c /home/roscube/Desktop/UMSD_v7.0.0_ADLINK/UMSD_v7.0.0/obj/dev/agate/src/api/msdDrv_obj/Agate_msdQueueCtrlIntf.o
 .comment       0x000000000000044c       0x2c /home/roscube/Desktop/UMSD_v7.0.0_ADLINK/UMSD_v7.0.0/obj/dev/agate/src/api/msdDrv_obj/Agate_msdSysCtrlIntf.o
 .comment       0x0000000000000478       0x2c /home/roscube/Desktop/UMSD_v7.0.0_ADLINK/UMSD_v7.0.0/obj/dev/agate/src/api/msdDrv_obj/Agate_msdPhyCtrlIntf.o
 .comment       0x00000000000004a4       0x2c /home/roscube/Desktop/UMSD_v7.0.0_ADLINK/UMSD_v7.0.0/obj/dev/agate/src/api/msdDrv_obj/Agate_msdEEPROMIntf.o
 .comment       0x00000000000004d0       0x2c /home/roscube/Desktop/UMSD_v7.0.0_ADLINK/UMSD_v7.0.0/obj/dev/agate/src/api/msdDrv_obj/Agate_msdRMUIntf.o
 .comment       0x00000000000004fc       0x2c /home/roscube/Desktop/UMSD_v7.0.0_ADLINK/UMSD_v7.0.0/obj/dev/agate/src/api/msdDrv_obj/Agate_msdPTP.o
 .comment       0x0000000000000528       0x2c /home/roscube/Desktop/UMSD_v7.0.0_ADLINK/UMSD_v7.0.0/obj/dev/agate/src/api/msdDrv_obj/Agate_msdPTPIntf.o
 .comment       0x0000000000000554       0x2c /home/roscube/Desktop/UMSD_v7.0.0_ADLINK/UMSD_v7.0.0/obj/dev/agate/src/api/msdDrv_obj/Agate_msdLed.o
 .comment       0x0000000000000580       0x2c /home/roscube/Desktop/UMSD_v7.0.0_ADLINK/UMSD_v7.0.0/obj/dev/agate/src/api/msdDrv_obj/Agate_msdLedIntf.o

.note.GNU-stack
                0x0000000000000000        0x0
 .note.GNU-stack
                0x0000000000000000        0x0 /home/roscube/Desktop/UMSD_v7.0.0_ADLINK/UMSD_v7.0.0/obj/dev/agate/src/api/msdDrv_obj/Agate_msdTCAM.o
 .note.GNU-stack
                0x0000000000000000        0x0 /home/roscube/Desktop/UMSD_v7.0.0_ADLINK/UMSD_v7.0.0/obj/dev/agate/src/api/msdDrv_obj/Agate_msdAdvVct.o
 .note.GNU-stack
                0x0000000000000000        0x0 /home/roscube/Desktop/UMSD_v7.0.0_ADLINK/UMSD_v7.0.0/obj/dev/agate/src/api/msdDrv_obj/Agate_msdBrgFdb.o
 .note.GNU-stack
                0x0000000000000000        0x0 /home/roscube/Desktop/UMSD_v7.0.0_ADLINK/UMSD_v7.0.0/obj/dev/agate/src/api/msdDrv_obj/Agate_msdBrgVtu.o
 .note.GNU-stack
                0x0000000000000000        0x0 /home/roscube/Desktop/UMSD_v7.0.0_ADLINK/UMSD_v7.0.0/obj/dev/agate/src/api/msdDrv_obj/Agate_msdBrgStu.o
 .note.GNU-stack
                0x0000000000000000        0x0 /home/roscube/Desktop/UMSD_v7.0.0_ADLINK/UMSD_v7.0.0/obj/dev/agate/src/api/msdDrv_obj/Agate_msdPIRL.o
 .note.GNU-stack
                0x0000000000000000        0x0 /home/roscube/Desktop/UMSD_v7.0.0_ADLINK/UMSD_v7.0.0/obj/dev/agate/src/api/msdDrv_obj/Agate_msdPortRmon.o
 .note.GNU-stack
                0x0000000000000000        0x0 /home/roscube/Desktop/UMSD_v7.0.0_ADLINK/UMSD_v7.0.0/obj/dev/agate/src/api/msdDrv_obj/Agate_msdPortCtrl.o
 .note.GNU-stack
                0x0000000000000000        0x0 /home/roscube/Desktop/UMSD_v7.0.0_ADLINK/UMSD_v7.0.0/obj/dev/agate/src/api/msdDrv_obj/Agate_msdPortPrioMap.o
 .note.GNU-stack
                0x0000000000000000        0x0 /home/roscube/Desktop/UMSD_v7.0.0_ADLINK/UMSD_v7.0.0/obj/dev/agate/src/api/msdDrv_obj/Agate_msdSysCtrl.o
 .note.GNU-stack
                0x0000000000000000        0x0 /home/roscube/Desktop/UMSD_v7.0.0_ADLINK/UMSD_v7.0.0/obj/dev/agate/src/api/msdDrv_obj/Agate_msdPhyCtrl.o
 .note.GNU-stack
                0x0000000000000000        0x0 /home/roscube/Desktop/UMSD_v7.0.0_ADLINK/UMSD_v7.0.0/obj/dev/agate/src/api/msdDrv_obj/Agate_msdQueueCtrl.o
 .note.GNU-stack
                0x0000000000000000        0x0 /home/roscube/Desktop/UMSD_v7.0.0_ADLINK/UMSD_v7.0.0/obj/dev/agate/src/api/msdDrv_obj/Agate_msdRMU.o
 .note.GNU-stack
                0x0000000000000000        0x0 /home/roscube/Desktop/UMSD_v7.0.0_ADLINK/UMSD_v7.0.0/obj/dev/agate/src/api/msdDrv_obj/Agate_msdEEPROM.o
 .note.GNU-stack
                0x0000000000000000        0x0 /home/roscube/Desktop/UMSD_v7.0.0_ADLINK/UMSD_v7.0.0/obj/dev/agate/src/api/msdDrv_obj/Agate_msdTCAMIntf.o
 .note.GNU-stack
                0x0000000000000000        0x0 /home/roscube/Desktop/UMSD_v7.0.0_ADLINK/UMSD_v7.0.0/obj/dev/agate/src/api/msdDrv_obj/Agate_msdAdvVctIntf.o
 .note.GNU-stack
                0x0000000000000000        0x0 /home/roscube/Desktop/UMSD_v7.0.0_ADLINK/UMSD_v7.0.0/obj/dev/agate/src/api/msdDrv_obj/Agate_msdBrgFdbIntf.o
 .note.GNU-stack
                0x0000000000000000        0x0 /home/roscube/Desktop/UMSD_v7.0.0_ADLINK/UMSD_v7.0.0/obj/dev/agate/src/api/msdDrv_obj/Agate_msdBrgVtuIntf.o
 .note.GNU-stack
                0x0000000000000000        0x0 /home/roscube/Desktop/UMSD_v7.0.0_ADLINK/UMSD_v7.0.0/obj/dev/agate/src/api/msdDrv_obj/Agate_msdBrgStuIntf.o
 .note.GNU-stack
                0x0000000000000000        0x0 /home/roscube/Desktop/UMSD_v7.0.0_ADLINK/UMSD_v7.0.0/obj/dev/agate/src/api/msdDrv_obj/Agate_msdPIRLIntf.o
 .note.GNU-stack
                0x0000000000000000        0x0 /home/roscube/Desktop/UMSD_v7.0.0_ADLINK/UMSD_v7.0.0/obj/dev/agate/src/api/msdDrv_obj/Agate_msdQav.o
 .note.GNU-stack
                0x0000000000000000        0x0 /home/roscube/Desktop/UMSD_v7.0.0_ADLINK/UMSD_v7.0.0/obj/dev/agate/src/api/msdDrv_obj/Agate_msdPortRmonIntf.o
 .note.GNU-stack
                0x0000000000000000        0x0 /home/roscube/Desktop/UMSD_v7.0.0_ADLINK/UMSD_v7.0.0/obj/dev/agate/src/api/msdDrv_obj/Agate_msdPortCtrlIntf.o
 .note.GNU-stack
                0x0000000000000000        0x0 /home/roscube/Desktop/UMSD_v7.0.0_ADLINK/UMSD_v7.0.0/obj/dev/agate/src/api/msdDrv_obj/Agate_msdPortPrioMapIntf.o
 .note.GNU-stack
                0x0000000000000000        0x0 /home/roscube/Desktop/UMSD_v7.0.0_ADLINK/UMSD_v7.0.0/obj/dev/agate/src/api/msdDrv_obj/Agate_msdQueueCtrlIntf.o
 .note.GNU-stack
                0x0000000000000000        0x0 /home/roscube/Desktop/UMSD_v7.0.0_ADLINK/UMSD_v7.0.0/obj/dev/agate/src/api/msdDrv_obj/Agate_msdSysCtrlIntf.o
 .note.GNU-stack
                0x0000000000000000        0x0 /home/roscube/Desktop/UMSD_v7.0.0_ADLINK/UMSD_v7.0.0/obj/dev/agate/src/api/msdDrv_obj/Agate_msdPhyCtrlIntf.o
 .note.GNU-stack
                0x0000000000000000        0x0 /home/roscube/Desktop/UMSD_v7.0.0_ADLINK/UMSD_v7.0.0/obj/dev/agate/src/api/msdDrv_obj/Agate_msdEEPROMIntf.o
 .note.GNU-stack
                0x0000000000000000        0x0 /home/roscube/Desktop/UMSD_v7.0.0_ADLINK/UMSD_v7.0.0/obj/dev/agate/src/api/msdDrv_obj/Agate_msdRMUIntf.o
 .note.GNU-stack
                0x0000000000000000        0x0 /home/roscube/Desktop/UMSD_v7.0.0_ADLINK/UMSD_v7.0.0/obj/dev/agate/src/api/msdDrv_obj/Agate_msdPTP.o
 .note.GNU-stack
                0x0000000000000000        0x0 /home/roscube/Desktop/UMSD_v7.0.0_ADLINK/UMSD_v7.0.0/obj/dev/agate/src/api/msdDrv_obj/Agate_msdPTPIntf.o
 .note.GNU-stack
                0x0000000000000000        0x0 /home/roscube/Desktop/UMSD_v7.0.0_ADLINK/UMSD_v7.0.0/obj/dev/agate/src/api/msdDrv_obj/Agate_msdLed.o
 .note.GNU-stack
                0x0000000000000000        0x0 /home/roscube/Desktop/UMSD_v7.0.0_ADLINK/UMSD_v7.0.0/obj/dev/agate/src/api/msdDrv_obj/Agate_msdLedIntf.o

.gnu.build.attributes
 *(.gnu.build.attributes)

.debug
 *(.debug)

.line
 *(.line)

.debug_srcinfo
 *(.debug_srcinfo)

.debug_sfnames
 *(.debug_sfnames)

.debug_aranges
 *(.debug_aranges)

.debug_pubnames
 *(.debug_pubnames)

.debug_info
 *(.debug_info)

.debug_abbrev
 *(.debug_abbrev)

.debug_line
 *(.debug_line)

.debug_frame
 *(.debug_frame)

.debug_str
 *(.debug_str)

.debug_loc
 *(.debug_loc)

.debug_macinfo
 *(.debug_macinfo)

.debug_weaknames
 *(.debug_weaknames)

.debug_funcnames
 *(.debug_funcnames)

.debug_typenames
 *(.debug_typenames)

.debug_varnames
 *(.debug_varnames)

.debug_pubtypes
 *(.debug_pubtypes)

.debug_ranges
 *(.debug_ranges)

.debug_addr
 *(.debug_addr)

.debug_line_str
 *(.debug_line_str)

.debug_loclists
 *(.debug_loclists)

.debug_macro
 *(.debug_macro)

.debug_names
 *(.debug_names)

.debug_rnglists
 *(.debug_rnglists)

.debug_str_offsets
 *(.debug_str_offsets)

.debug_sup
 *(.debug_sup)

.gnu.attributes
 *(.gnu.attributes)
OUTPUT(/home/roscube/Desktop/UMSD_v7.0.0_ADLINK/UMSD_v7.0.0/obj/dev/agate/src/api/msdDrv_obj/api.o elf64-x86-64)
