
Merging program properties


Discarded input sections

 .note.gnu.property
                0x0000000000000000       0x20 /home/roscube/Desktop/UMSD_v7.0.0_ADLINK/UMSD_v7.0.0/obj/dev/peridot/src/api/msdDrv_obj/api.o

Memory Configuration

Name             Origin             Length             Attributes
*default*        0x0000000000000000 0xffffffffffffffff

Linker script and memory map

LOAD /home/roscube/Desktop/UMSD_v7.0.0_ADLINK/UMSD_v7.0.0/obj/dev/peridot/src/driver/msdDrv_obj/driver.o
LOAD /home/roscube/Desktop/UMSD_v7.0.0_ADLINK/UMSD_v7.0.0/obj/dev/peridot/src/api/msdDrv_obj/api.o

.interp
 *(.interp)

.note.gnu.property
                0x0000000000000000       0x20
 .note.gnu.property
                0x0000000000000000       0x20 /home/roscube/Desktop/UMSD_v7.0.0_ADLINK/UMSD_v7.0.0/obj/dev/peridot/src/driver/msdDrv_obj/driver.o

.note.gnu.build-id
 *(.note.gnu.build-id)

.hash
 *(.hash)

.gnu.hash
 *(.gnu.hash)

.dynsym
 *(.dynsym)

.dynstr
 *(.dynstr)

.gnu.version
 *(.gnu.version)

.gnu.version_d
 *(.gnu.version_d)

.gnu.version_r
 *(.gnu.version_r)

.rela.init
 *(.rela.init)

.rela.text
 *(.rela.text)

.rela.fini
 *(.rela.fini)

.rela.rodata
 *(.rela.rodata)

.rela.data.rel.ro
 *(.rela.data.rel.ro)

.rela.data
 *(.rela.data)

.rela.tdata
 *(.rela.tdata)

.rela.tbss
 *(.rela.tbss)

.rela.ctors
 *(.rela.ctors)

.rela.dtors
 *(.rela.dtors)

.rela.got
 *(.rela.got)

.rela.bss
 *(.rela.bss)

.rela.ldata
 *(.rela.ldata)

.rela.lbss
 *(.rela.lbss)

.rela.lrodata
 *(.rela.lrodata)

.rela.ifunc
 *(.rela.ifunc)

.rela.plt
 *(.rela.plt)

.relr.dyn
 *(.relr.dyn)

.init
 *(SORT_NONE(.init))

.plt
 *(.plt)

.plt.got
 *(.plt.got)

.plt.sec
 *(.plt.sec)

.text           0x0000000000000000    0x1957c
 *(.text .stub)
 .text          0x0000000000000000     0x11d7 /home/roscube/Desktop/UMSD_v7.0.0_ADLINK/UMSD_v7.0.0/obj/dev/peridot/src/driver/msdDrv_obj/driver.o
                0x0000000000000000                Peridot_msdSetSMIC45PhyReg
                0x0000000000000180                Peridot_msdGetSMIC45PhyReg
                0x0000000000000300                Peridot_msdSetSMIPhyReg
                0x00000000000003f0                Peridot_msdGetSMIPhyReg
                0x0000000000000520                Peridot_msdSetSMIPhyRegField
                0x0000000000000610                Peridot_msdGetSMIPhyRegField
                0x00000000000006b0                Peridot_msdSetPagedPhyRegField
                0x0000000000000730                Peridot_msdGetPagedPhyRegField
                0x0000000000000800                Peridot_msdWritePagedPhyReg
                0x0000000000000860                Peridot_msdReadPagedPhyReg
                0x00000000000008c0                Peridot_msdSetSMIPhyXMDIOReg
                0x00000000000009d0                Peridot_msdGetSMIPhyXMDIOReg
                0x0000000000000b10                Peridot_msdPhyReset
                0x0000000000000cd0                Peridot_msdSetSMIExtPhyReg
                0x0000000000000dc0                Peridot_msdGetSMIExtPhyReg
                0x0000000000000ef0                Peridot_msdWritePagedExtPhyReg
                0x0000000000000f50                Peridot_msdReadPagedExtPhyReg
                0x0000000000000fb0                Peridot_msdSetSMIExtPhyXMDIOReg
                0x00000000000010a0                Peridot_msdGetSMIExtPhyXMDIOReg
 *fill*         0x00000000000011d7        0x9 
 .text          0x00000000000011e0    0x1839c /home/roscube/Desktop/UMSD_v7.0.0_ADLINK/UMSD_v7.0.0/obj/dev/peridot/src/api/msdDrv_obj/api.o
                0x0000000000002800                Peridot_gtcamFlushAll
                0x0000000000002850                Peridot_gtcamFlushEntry
                0x00000000000028b0                Peridot_gtcamLoadEntry
                0x0000000000002940                Peridot_gtcamReadTCAMData
                0x00000000000029d0                Peridot_gtcamGetNextTCAMData
                0x0000000000002a70                Peridot_gtcamFindEntry
                0x0000000000002b50                Peridot_gtcamSetMode
                0x0000000000002bb0                Peridot_gtcamGetMode
                0x0000000000002c40                Peridot_gtcamAddEntryPort
                0x0000000000002d30                Peridot_gtcamRemoveEntryPort
                0x0000000000002e20                Peridot_gtcamEgrFlushEntry
                0x0000000000002ea0                Peridot_gtcamEgrFlushEntryAllPorts
                0x0000000000002f00                Peridot_gtcamEgrLoadEntry
                0x0000000000003090                Peridot_gtcamEgrGetNextTCAMData
                0x0000000000003150                Peridot_gtcamEgrReadTCAMData
                0x0000000000003200                Peridot_gtcamDump
                0x0000000000003630                Peridot_gtcamAdvConfig
                0x00000000000043f0                Peridot_gvctGetAdvCableDiag
                0x0000000000004860                Peridot_gvctGetAdvExtendedStatus
                0x00000000000053f0                Peridot_gfdbGetAtuEntryNext
                0x0000000000005410                Peridot_gfdbFlush
                0x0000000000005480                Peridot_gfdbFlushInDB
                0x0000000000005510                Peridot_gfdbMove
                0x0000000000005600                Peridot_gfdbMoveInDB
                0x0000000000005700                Peridot_gfdbAddMacEntry
                0x00000000000057d0                Peridot_gfdbDelAtuEntry
                0x0000000000005860                Peridot_gfdbGetViolation
                0x0000000000005950                Peridot_gfdbFindAtuMacEntry
                0x0000000000005a90                Peridot_gfdbSetAgingTimeout
                0x0000000000005af0                Peridot_gfdbGetAgingTimeout
                0x0000000000005b60                Peridot_gfdbGetLearn2All
                0x0000000000005be0                Peridot_gfdbSetLearn2All
                0x0000000000005c10                Peridot_gfdbSetPortLearnLimit
                0x0000000000005d80                Peridot_gfdbGetPortLearnLimit
                0x0000000000005e90                Peridot_gfdbGetPortLearnCount
                0x0000000000005f50                Peridot_gfdbGetEntryCount
                0x0000000000005fa0                Peridot_gfdbGetEntryCountPerFid
                0x0000000000005ff0                Peridot_gfdbGetNonStaticEntryCount
                0x0000000000006040                Peridot_gfdbGetNonStaticEntryCountPerFid
                0x0000000000006740                Peridot_gvtuGetEntryNext
                0x0000000000006880                Peridot_gvtuFindVidEntry
                0x0000000000006a30                Peridot_gvtuFlush
                0x0000000000006a50                Peridot_gvtuAddEntry
                0x0000000000006b90                Peridot_gvtuDelEntry
                0x0000000000006c00                Peridot_gvtuSetMode
                0x0000000000006ce0                Peridot_gvtuGetMode
                0x0000000000006e00                Peridot_gvtuGetViolation
                0x0000000000006f20                Peridot_gvtuDump
                0x00000000000074c0                Peridot_gstuGetEntryNext
                0x00000000000075a0                Peridot_gstuAddEntry
                0x0000000000007670                Peridot_gstuDelEntry
                0x00000000000076d0                Peridot_gstuFindSidEntry
                0x00000000000077d0                Peridot_gstuDump
                0x0000000000007b80                Peridot_gpirlInitialize
                0x0000000000007ba0                Peridot_gpirlInitResource
                0x0000000000007c20                Peridot_gpirlCustomSetup_sr2c
                0x0000000000007e10                Peridot_gpirlReadResource
                0x0000000000007fe0                Peridot_gpirlWriteResource
                0x0000000000008190                Peridot_gpirlGetResReg
                0x0000000000008230                Peridot_gpirlSetResReg
                0x0000000000008690                Peridot_gstatsFlushAll
                0x00000000000086b0                Peridot_gstatsFlushPort
                0x00000000000086f0                Peridot_gstatsGetPortCounter
                0x0000000000008750                Peridot_gstatsGetPortAllCounters
                0x00000000000087a0                Peridot_gstatsGetHistogramMode
                0x0000000000008850                Peridot_gstatsSetHistogramMode
                0x0000000000008890                Peridot_gmibDump
                0x0000000000009090                Peridot_gprtSetForceDefaultVid
                0x00000000000090f0                Peridot_gprtGetForceDefaultVid
                0x0000000000009180                Peridot_gvlnSetPortVid
                0x00000000000091e0                Peridot_gvlnGetPortVid
                0x0000000000009270                Peridot_gvlnSetPortVlanDot1qMode
                0x00000000000092d0                Peridot_gvlnGetPortVlanDot1qMode
                0x0000000000009360                Peridot_gprtSetDiscardTagged
                0x00000000000093c0                Peridot_gprtGetDiscardTagged
                0x0000000000009450                Peridot_gprtSetDiscardUntagged
                0x00000000000094b0                Peridot_gprtGetDiscardUntagged
                0x0000000000009540                Peridot_gprtSetUnicastFloodBlock
                0x00000000000095a0                Peridot_gprtGetUnicastFloodBlock
                0x0000000000009630                Peridot_gprtSetMulticastFloodBlock
                0x0000000000009690                Peridot_gprtGetMulticastFloodBlock
                0x0000000000009720                Peridot_gprtSetDiscardBCastMode
                0x0000000000009780                Peridot_gprtGetDiscardBCastMode
                0x0000000000009820                Peridot_gprtSetIGMPSnoopEnable
                0x0000000000009880                Peridot_gprtGetIGMPSnoopEnable
                0x0000000000009920                Peridot_gprtGetHeaderMode
                0x00000000000099c0                Peridot_gprtSetHeaderMode
                0x0000000000009a20                Peridot_gprtGetDropOnLock
                0x0000000000009ac0                Peridot_gprtSetDropOnLock
                0x0000000000009b20                Peridot_gprtSetJumboMode
                0x0000000000009b90                Peridot_gprtGetJumboMode
                0x0000000000009c20                Peridot_gprtSetLearnEnable
                0x0000000000009c90                Peridot_gprtGetLearnEnable
                0x0000000000009d20                Peridot_gprtGetVTUPriorityOverride
                0x0000000000009db0                Peridot_gprtSetVTUPriorityOverride
                0x0000000000009e10                Peridot_gprtGetSAPriorityOverride
                0x0000000000009ea0                Peridot_gprtSetSAPriorityOverride
                0x0000000000009f00                Peridot_gprtGetDAPriorityOverride
                0x0000000000009f90                Peridot_gprtSetDAPriorityOverride
                0x0000000000009ff0                Peridot_gprtGetMessagePort
                0x000000000000a080                Peridot_gprtSetMessagePort
                0x000000000000a0e0                Peridot_gprtGetEtherType
                0x000000000000a130                Peridot_gprtSetEtherType
                0x000000000000a180                Peridot_gprtGetAllowVidZero
                0x000000000000a210                Peridot_gprtSetAllowVidZero
                0x000000000000a270                Peridot_gprtSetTrunkPort
                0x000000000000a310                Peridot_gprtGetTrunkPort
                0x000000000000a3f0                Peridot_gprtSetFlowCtrl
                0x000000000000a4b0                Peridot_gprtGetFlowCtrl
                0x000000000000a520                Peridot_gprtSetEgressMonitorSource
                0x000000000000a580                Peridot_gprtGetEgressMonitorSource
                0x000000000000a610                Peridot_gprtSetIngressMonitorSource
                0x000000000000a670                Peridot_gprtGetIngressMonitorSource
                0x000000000000a700                Peridot_grcSetELimitMode
                0x000000000000a760                Peridot_grcSetEgressRate
                0x000000000000a940                Peridot_grcGetELimitMode
                0x000000000000a9d0                Peridot_grcGetEgressRate
                0x000000000000ab10                Peridot_gprtSetDuplex
                0x000000000000ab80                Peridot_gprtGetDuplex
                0x000000000000ac50                Peridot_gprtGetDuplexStatus
                0x000000000000ace0                Peridot_gprtGetForceLink
                0x000000000000ada0                Peridot_gprtSetForceLink
                0x000000000000ae10                Peridot_gprtGetLinkState
                0x000000000000aea0                Peridot_gprtSetForceSpeed
                0x000000000000b140                Peridot_gprtGetForceSpeed
                0x000000000000b2d0                Peridot_gprtGetSpeed
                0x000000000000b3e0                Peridot_gprtGetVlanPorts
                0x000000000000b4a0                Peridot_gprtSetVlanPorts
                0x000000000000b550                Peridot_gprtGetFrameMode
                0x000000000000b5e0                Peridot_gprtSetFrameMode
                0x000000000000b640                Peridot_gprtSetEgressMode
                0x000000000000b6a0                Peridot_gprtGetEgressMode
                0x000000000000b730                Peridot_gprtGetPortState
                0x000000000000b7c0                Peridot_gprtSetPortState
                0x000000000000b820                Peridot_gprtSetCutThrouthEnable
                0x000000000000b890                Peridot_gprtGetCutThrouthEnable
                0x000000000000b920                Peridot_gprtSetIgnoreFcs
                0x000000000000b980                Peridot_gprtGetIgnoreFcs
                0x000000000000ba10                Peridot_gprtSetAllowBadFcs
                0x000000000000ba70                Peridot_gprtGetAllowBadFcs
                0x000000000000bb00                Peridot_gprtSetPauseLimitOut
                0x000000000000bb50                Peridot_gprtGetPauseLimitOut
                0x000000000000bba0                Peridot_gprtSetPauseLimitIn
                0x000000000000bbe0                Peridot_gprtGetPauseLimitIn
                0x000000000000bc30                Peridot_gprtSetQueueToPause
                0x000000000000bc80                Peridot_gprtGetQueueToPause
                0x000000000000bcd0                Peridot_gprtSetRxPriorityFlowControlEnable
                0x000000000000bdc0                Peridot_gprtGetRxPriorityFlowControlEnable
                0x000000000000be60                Peridot_gprtSetRxPriorityFlowControlToQueue
                0x000000000000bf50                Peridot_gprtGetRxPriorityFlowControlToQueue
                0x000000000000bff0                Peridot_gprtSetTxPriorityFlowControlEnable
                0x000000000000c0e0                Peridot_gprtGetTxPriorityFlowControlEnable
                0x000000000000c180                Peridot_gprtGetOutQueueSize
                0x000000000000c220                Peridot_gprtSetMapDA
                0x000000000000c280                Peridot_gprtGetMapDA
                0x000000000000c310                Peridot_gprtSetPortLocked
                0x000000000000c370                Peridot_gprtGetPortLocked
                0x000000000000c400                Peridot_gprtSetHoldAt1
                0x000000000000c460                Peridot_gprtGetHoldAt1
                0x000000000000c4f0                Peridot_gprtSetInt0nAgeOut
                0x000000000000c550                Peridot_gprtGetInt0nAgeOut
                0x000000000000c5e0                Peridot_gprtSetRefreshLocked
                0x000000000000c640                Peridot_gprtGetRefreshLocked
                0x000000000000c6d0                Peridot_gprtSetIgnoreWrongData
                0x000000000000c730                Peridot_gprtGetIgnoreWrongData
                0x000000000000c7c0                Peridot_gprtSetARPMirror
                0x000000000000c820                Peridot_gprtGetARPMirror
                0x000000000000c8b0                Peridot_gprtRegDump
                0x000000000000c9b0                Peridot_gqosSetPrioMapRule
                0x000000000000ca10                Peridot_gqosGetPrioMapRule
                0x000000000000caa0                Peridot_gprtSetInitialPri
                0x000000000000cb10                Peridot_gprtGetInitialPri
                0x000000000000cbd0                Peridot_gprtSetDefQpri
                0x000000000000cc30                Peridot_gprtGetDefQpri
                0x000000000000ccd0                Peridot_gprtSetIEEEPrioMap
                0x000000000000cee0                Peridot_gprtGetIEEEPrioMap
                0x000000000000d100                Peridot_gprtRewriteDscp
                0x000000000000d160                Peridot_gprtSetCosToQueue
                0x000000000000d1e0                Peridot_gprtGetCosToQueue
                0x000000000000d240                Peridot_gprtSetCosToDscp
                0x000000000000d2d0                Peridot_gprtGetCosToDscp
                0x000000000000d330                Peridot_gprtSetDefFpri
                0x000000000000d390                Peridot_gprtGetDefFpri
                0x000000000000d420                Peridot_gprtSetQueueCtrl
                0x000000000000d530                Peridot_gprtGetQueueCtrl
                0x000000000000d670                Peridot_gprtSetPortSched
                0x000000000000d6c0                Peridot_gprtGetPortSched
                0x000000000000d7d0                Peridot_gsysSetQoSWeight
                0x000000000000da00                Peridot_gsysGetQoSWeight
                0x000000000000de80                Peridot_gsysSetTrunkMaskTable
                0x000000000000dfb0                Peridot_gsysGetTrunkMaskTable
                0x000000000000e110                Peridot_gsysSetHashTrunk
                0x000000000000e140                Peridot_gsysGetHashTrunk
                0x000000000000e1b0                Peridot_gsysSetTrunkRouting
                0x000000000000e310                Peridot_gsysGetTrunkRouting
                0x000000000000e4a0                Peridot_gsysSetFloodBC
                0x000000000000e4d0                Peridot_gsysGetFloodBC
                0x000000000000e540                Peridot_gsysSetMonitorMgmtCtrl
                0x000000000000e570                Peridot_gsysGetMonitorMgmtCtrl
                0x000000000000e590                Peridot_gsysSetCPUDest
                0x000000000000e650                Peridot_gsysGetCPUDest
                0x000000000000e6e0                Peridot_gsysSetIngressMonitorDest
                0x000000000000e740                Peridot_gsysGetIngressMonitorDest
                0x000000000000e7d0                Peridot_gsysSetEgressMonitorDest
                0x000000000000e830                Peridot_gsysGetEgressMonitorDest
                0x000000000000e8c0                Peridot_gsysSetRsvd2CpuEnables
                0x000000000000e900                Peridot_gsysGetRsvd2CpuEnables
                0x000000000000e980                Peridot_gsysSetMGMTPri
                0x000000000000ea20                Peridot_gsysGetMGMTPri
                0x000000000000ea80                Peridot_gsysSetSMISetup
                0x000000000000ebb0                Peridot_gsysGetSMISetup
                0x000000000000ecc0                Peridot_gsysGlobal1RegDump
                0x000000000000ed90                Peridot_gsysGlobal2RegDump
                0x000000000000ee60                Peridot_gsysSetRMUMode
                0x000000000000ef20                Peridot_gsysGetRMUMode
                0x000000000000efb0                Peridot_gsysQbvWrite
                0x000000000000f0c0                Peridot_gsysQbvRead
                0x000000000000f1c0                Peridot_gsysDevIntEnableSet
                0x000000000000f220                Peridot_gsysDevIntEnableGet
                0x000000000000f2b0                Peridot_gsysDevIntStatusGet
                0x000000000000f330                Peridot_gsysActiveIntEnableSet
                0x000000000000f3f0                Peridot_gsysActiveIntEnableGet
                0x000000000000f480                Peridot_gsysActiveIntStatusGet
                0x000000000000f7c0                Peridot_gphyReset
                0x000000000000f890                Peridot_serdesReset
                0x000000000000f950                Peridot_gphySetPortLoopback
                0x000000000000fa40                Peridot_gphySetPortSpeed
                0x000000000000fbd0                Peridot_gphyPortPowerDown
                0x000000000000fcc0                Peridot_gphySetPortDuplexMode
                0x000000000000fde0                Peridot_gphySetPortAutoMode
                0x000000000000feb0                Peridot_gphySetEEE
                0x000000000000ffa0                Peridot_gphySetFlowControlEnable
                0x00000000000100c0                Peridot_gphySetIntEnable
                0x0000000000010130                Peridot_gphyGetIntEnable
                0x00000000000101d0                Peridot_gphyGetIntStatus
                0x00000000000103e0                Peridot_impRun
                0x00000000000104c0                Peridot_impReset
                0x00000000000105c0                Peridot_impWriteEEPROM
                0x00000000000106c0                Peridot_impLoadToEEPROM
                0x0000000000010810                Peridot_impLoadToRAM
                0x0000000000010970                Peridot_impStop
                0x0000000000011080                Peridot_msdRmuGetID
                0x00000000000111b0                Peridot_msdRmuAtuDump
                0x00000000000113c0                Peridot_msdRmuMib2Dump
                0x00000000000117f0                Peridot_msdRmuReadRegister
                0x0000000000011820                Peridot_msdRmuWriteRegister
                0x0000000000011840                Peridot_msdRmuMultiRegAccess
                0x0000000000011a30                Peridot_msdRmuTCAMDump
                0x0000000000011ba0                Peridot_msdRmuTCAMWrite
                0x0000000000011d50                Peridot_msdRmuTCAMRead
                0x0000000000011f00                Peridot_msdRmuRegDump
                0x0000000000011fd0                Peridot_gtcamLoadEntryIntf
                0x0000000000012180                Peridot_gtcamReadTCAMDataIntf
                0x0000000000012350                Peridot_gtcamGetNextTCAMDataIntf
                0x0000000000012520                Peridot_gtcamFindEntryIntf
                0x0000000000012730                Peridot_gtcamSetModeIntf
                0x0000000000012740                Peridot_gtcamGetModeIntf
                0x00000000000127a0                Peridot_gtcamEgrFlushEntryIntf
                0x00000000000127b0                Peridot_gtcamEgrFlushEntryAllPortsIntf
                0x00000000000127c0                Peridot_gtcamEgrLoadEntryIntf
                0x0000000000012870                Peridot_gtcamEgrGetNextTCAMDataIntf
                0x0000000000012930                Peridot_gtcamEgrReadTCAMDataIntf
                0x00000000000129f0                Peridot_gtcamAdvConfigIntf
                0x0000000000012bc0                Peridot_gvctGetAdvCableDiagIntf
                0x0000000000012cc0                Peridot_gvctGetAdvExtendedStatusIntf
                0x0000000000012d60                Peridot_gfdbAddMacEntryIntf
                0x0000000000012de0                Peridot_gfdbGetAtuEntryNextIntf
                0x0000000000012ec0                Peridot_gfdbFlushIntf
                0x0000000000012ed0                Peridot_gfdbFlushInDBIntf
                0x0000000000012ee0                Peridot_gfdbMoveIntf
                0x0000000000012ef0                Peridot_gfdbMoveInDBIntf
                0x0000000000012f00                Peridot_gfdbPortRemoveIntf
                0x0000000000012f30                Peridot_gfdbPortRemoveInDBIntf
                0x0000000000012f60                Peridot_gfdbGetViolationIntf
                0x0000000000013040                Peridot_gfdbFindAtuMacEntryIntf
                0x0000000000013130                Peridot_gfdbDump
                0x00000000000132e0                Peridot_gvtuFindVidEntryIntf
                0x0000000000013440                Peridot_gvtuExistVidEntryIntf
                0x00000000000134d0                Peridot_gvtuFlushIntf
                0x00000000000134e0                Peridot_gvtuAddEntryIntf
                0x00000000000135f0                Peridot_gvtuDelEntryIntf
                0x0000000000013670                Peridot_gvtuSetModeIntf
                0x0000000000013680                Peridot_gvtuGetModeIntf
                0x0000000000013690                Peridot_gvtuGetViolationIntf
                0x0000000000013750                Peridot_gvtuGetEntryCountIntf
                0x0000000000013800                Peridot_gvtuSetMemberTagIntf
                0x00000000000138e0                Peridot_gvtuGetMemberTagIntf
                0x00000000000139b0                Peridot_gvtuGetEntryNextIntf
                0x0000000000013ad0                Peridot_gstuAddEntryIntf
                0x0000000000013ba0                Peridot_gstuGetEntryNextIntf
                0x0000000000013c50                Peridot_gstuDelEntryIntf
                0x0000000000013cb0                Peridot_gstuFindSidEntryIntf
                0x0000000000013dc0                Peridot_gstuGetEntryCountIntf
                0x0000000000013e60                Peridot_gpirlInitializeIntf
                0x0000000000013e70                Peridot_gpirlInitResourceIntf
                0x0000000000013e80                Peridot_gpirlCustomSetup_sr2cIntf
                0x0000000000013f40                Peridot_gpirlReadResourceIntf
                0x0000000000014020                Peridot_gpirlWriteResourceIntf
                0x00000000000140e0                Peridot_gpirlGetResRegIntf
                0x00000000000140f0                Peridot_gpirlSetResRegIntf
                0x0000000000014100                Peridot_gpirlAdvConfigIntf
                0x0000000000014200                Peridot_gpirlAdvConfigDisableIntf
                0x0000000000014270                Peridot_gqavSetPortQpriXRate
                0x0000000000014400                Peridot_gqavGetPortQpriXRate
                0x00000000000145f0                Peridot_gqavSetPortQpriXHiLimit
                0x0000000000014780                Peridot_gqavGetPortQpriXHiLimit
                0x0000000000014970                Peridot_gstatsGetPortCounterIntf
                0x0000000000014980                Peridot_gstatsGetPortAllCountersIntf
                0x0000000000014b80                Peridot_gstatsGetHistogramModeIntf
                0x0000000000014b90                Peridot_gstatsSetHistogramModeIntf
                0x0000000000014ba0                Peridot_gvlnSetPortVlanDot1qModeIntf
                0x0000000000014bb0                Peridot_gvlnGetPortVlanDot1qModeIntf
                0x0000000000014bc0                Peridot_gprtSetDiscardTaggedIntf
                0x0000000000014bd0                Peridot_gprtGetDiscardTaggedIntf
                0x0000000000014be0                Peridot_gprtSetDiscardUntaggedIntf
                0x0000000000014bf0                Peridot_gprtGetDiscardUntaggedIntf
                0x0000000000014c00                Peridot_gprtSetUnicastFloodBlockIntf
                0x0000000000014c10                Peridot_gprtGetUnicastFloodBlockIntf
                0x0000000000014c20                Peridot_gprtSetMulticastFloodBlockIntf
                0x0000000000014c30                Peridot_gprtGetMulticastFloodBlockIntf
                0x0000000000014c40                Peridot_gprtSetDiscardBCastModeIntf
                0x0000000000014c50                Peridot_gprtGetDiscardBCastModeIntf
                0x0000000000014c60                Peridot_gprtSetJumboModeIntf
                0x0000000000014c70                Peridot_gprtGetJumboModeIntf
                0x0000000000014c80                Peridot_gprtSetLearnEnableIntf
                0x0000000000014c90                Peridot_gprtGetLearnEnableIntf
                0x0000000000014ca0                Peridot_gprtGetVTUPriorityOverrideIntf
                0x0000000000014cb0                Peridot_gprtSetVTUPriorityOverrideIntf
                0x0000000000014cc0                Peridot_gprtGetSAPriorityOverrideIntf
                0x0000000000014cd0                Peridot_gprtSetSAPriorityOverrideIntf
                0x0000000000014ce0                Peridot_gprtGetDAPriorityOverrideIntf
                0x0000000000014cf0                Peridot_gprtSetDAPriorityOverrideIntf
                0x0000000000014d00                Peridot_gprtSetFlowCtrlIntf
                0x0000000000014d10                Peridot_gprtGetFlowCtrlIntf
                0x0000000000014d20                Peridot_gprtSetForceSpeedIntf
                0x0000000000014d60                Peridot_gprtGetForceSpeedIntf
                0x0000000000014d70                Peridot_grcSetEgressRateIntf
                0x0000000000014d80                Peridot_grcGetEgressRateIntf
                0x0000000000014d90                Peridot_grcSetELimitModeIntf
                0x0000000000014da0                Peridot_grcGetELimitModeIntf
                0x0000000000014db0                Peridot_gprtSetDuplexIntf
                0x0000000000014dc0                Peridot_gprtGetDuplexIntf
                0x0000000000014dd0                Peridot_gprtGetDuplexStatusIntf
                0x0000000000014de0                Peridot_gprtGetForceLinkIntf
                0x0000000000014df0                Peridot_gprtSetForceLinkIntf
                0x0000000000014e00                Peridot_gprtGetSpeedIntf
                0x0000000000014e10                Peridot_gprtGetFrameModeIntf
                0x0000000000014e20                Peridot_gprtSetFrameModeIntf
                0x0000000000014e30                Peridot_gprtSetEgressModeIntf
                0x0000000000014e50                Peridot_gprtGetEgressModeIntf
                0x0000000000014e60                Peridot_gprtGetPortStateIntf
                0x0000000000014e70                Peridot_gprtSetPortStateIntf
                0x0000000000014e80                Peridot_gprtSetCutThrouthEnableIntf
                0x0000000000014e90                Peridot_gprtGetCutThrouthEnableIntf
                0x0000000000014ea0                Peridot_gqosSetPrioMapRuleIntf
                0x0000000000014eb0                Peridot_gqosGetPrioMapRuleIntf
                0x0000000000014ec0                Peridot_gprtSetInitialPriIntf
                0x0000000000014ed0                Peridot_gprtGetInitialPriIntf
                0x0000000000014ee0                Peridot_gprtSetDefQpriIntf
                0x0000000000014ef0                Peridot_gprtGetDefQpriIntf
                0x0000000000014f00                Peridot_gprtSetIEEEPrioMapIntf
                0x0000000000014f90                Peridot_gprtGetIEEEPrioMapIntf
                0x0000000000015050                Peridot_EEPROMWrite
                0x0000000000015190                Peridot_EEPROMRead
                0x0000000000015310                Peridot_gprtSetQueueCtrlIntf
                0x0000000000015320                Peridot_gprtGetQueueCtrlIntf
                0x0000000000015330                Peridot_gprtSetPortSchedIntf
                0x0000000000015340                Peridot_gprtGetPortSchedIntf
                0x0000000000015350                Peridot_gsysSetQoSWeightIntf
                0x0000000000015450                Peridot_gsysGetQoSWeightIntf
                0x0000000000015550                Peridot_gphySetPortSpeedIntf
                0x0000000000015560                Peridot_gphySetPortAutoModeIntf
                0x0000000000015570                Peridot_EEPROMWriteIntf
                0x0000000000015580                Peridot_EEPROMReadIntf
                0x0000000000015590                Peridot_impRunIntf
                0x00000000000155a0                Peridot_impResetIntf
                0x00000000000155b0                Peridot_impWriteEEPROMIntf
                0x00000000000155c0                Peridot_impLoadToEEPROMIntf
                0x00000000000155d0                Peridot_impLoadToRAMIntf
                0x00000000000155e0                Peridot_impStopIntf
                0x00000000000155f0                Peridot_msdRmuGetIDIntf
                0x0000000000015600                Peridot_msdRmuAtuDumpIntf
                0x0000000000015760                Peridot_msdRmuMib2DumpIntf
                0x0000000000015960                Peridot_msdRmuReadRegisterIntf
                0x0000000000015970                Peridot_msdRmuWriteRegisterIntf
                0x0000000000015990                Peridot_msdRmuMultiRegAccessIntf
                0x00000000000159a0                Peridot_msdRmuTCAMDumpIntf
                0x0000000000015c50                Peridot_msdRmuTCAMWriteIntf
                0x0000000000015e00                Peridot_msdRmuTCAMReadIntf
                0x0000000000016860                Peridot_gptpSetIntEnable
                0x0000000000016950                Peridot_gptpGetIntEnable
                0x0000000000016a00                Peridot_gptpSetProtPTPEn
                0x0000000000016ad0                Peridot_gptpGetProtPTPEn
                0x0000000000016b70                Peridot_gptpSetPortConfig
                0x0000000000016dc0                Peridot_gptpGetPortConfig
                0x0000000000017010                Peridot_gptpGetTimeStamp
                0x0000000000017110                Peridot_gptpGetTSValidSt
                0x00000000000171d0                Peridot_gptpResetTimeStamp
                0x0000000000017290                Peridot_gptpSetGlobalConfig
                0x0000000000017350                Peridot_gptpGetGlobalConfig
                0x0000000000017410                Peridot_gptpGetIntStatus
                0x0000000000017490                Peridot_gptpSetMeanPathDelay
                0x0000000000017520                Peridot_gptpGetMeanPathDelay
                0x00000000000175c0                Peridot_gptpSetIgrPathDelayAsym
                0x0000000000017650                Peridot_gptpGetIgrPathDelayAsym
                0x00000000000176f0                Peridot_gptpSetEgrPathDelayAsym
                0x0000000000017780                Peridot_gptpGetEgrPathDelayAsym
                0x0000000000017820                Peridot_gptpSetMode
                0x00000000000178d0                Peridot_gptpGetMode
                0x0000000000017940                Peridot_gptpSetMasterSlave
                0x00000000000179f0                Peridot_gptpGetMasterSlave
                0x0000000000017a50                Peridot_gptpGetTODBusyBitStatus
                0x0000000000017ad0                Peridot_gptpTODStoreCompensation
                0x0000000000017b90                Peridot_gptpTODStoreAll
                0x0000000000017c50                Peridot_gptpTODCaptureAll
                0x0000000000017f20                Peridot_gptpSetPulse
                0x0000000000017fb0                Peridot_gptpGetPulse
                0x0000000000018040                Peridot_gtaiGetPTPGlobalTime
                0x00000000000180c0                Peridot_gptpSetIntEnableIntf
                0x0000000000018120                Peridot_gptpGetIntEnableIntf
                0x0000000000018180                Peridot_gptpSetPortConfigIntf
                0x0000000000018200                Peridot_gptpGetPortConfigIntf
                0x0000000000018290                Peridot_gptpGetTimeStampIntf
                0x0000000000018300                Peridot_gptpSetGlobalConfigIntf
                0x0000000000018360                Peridot_gptpGetGlobalConfigIntf
                0x00000000000183d0                Peridot_gptpGetIntStatusIntf
                0x0000000000018440                Peridot_gptpSetModeIntf
                0x00000000000184a0                Peridot_gptpGetModeIntf
                0x0000000000018500                Peridot_gptpSetMasterSlaveIntf
                0x0000000000018510                Peridot_gptpGetMasterSlaveIntf
                0x0000000000018520                Peridot_gptpTODStoreCompensationIntf
                0x00000000000185a0                Peridot_gptpTODStoreAllIntf
                0x0000000000018620                Peridot_gptpTODCaptureAllIntf
                0x00000000000186b0                Peridot_gptpSetPulseIntf
                0x0000000000018720                Peridot_gptpGetPulseIntf
                0x0000000000018a00                Peridot_gledForceOn
                0x0000000000018ab0                Peridot_gledForceOff
                0x0000000000018b70                Peridot_gledLinkAct
                0x0000000000018c60                Peridot_gledModeSet
                0x0000000000018d30                Peridot_gledModeGet
                0x0000000000018dd0                Peridot_gledBlinkRateSet
                0x0000000000018e80                Peridot_gledBlinkRateGet
                0x0000000000018f60                Peridot_gledPulseStretchSet
                0x0000000000019010                Peridot_gledPulseStretchGet
                0x00000000000190e0                Peridot_gledSpecialModeSet
                0x0000000000019190                Peridot_gledSpecialModeGet
                0x0000000000019200                Peridot_gledCtrlSet
                0x0000000000019240                Peridot_gledCtrlGet
                0x0000000000019270                Peridot_gledDump
                0x00000000000194b0                Peridot_gledForceOnIntf
                0x00000000000194c0                Peridot_gledForceOffIntf
                0x00000000000194d0                Peridot_gledLinkActIntf
                0x00000000000194e0                Peridot_gledModeSetIntf
                0x00000000000194f0                Peridot_gledModeGetIntf
                0x0000000000019500                Peridot_gledBlinkRateSetIntf
                0x0000000000019510                Peridot_gledBlinkRateGetIntf
                0x0000000000019520                Peridot_gledPulseStretchSetIntf
                0x0000000000019530                Peridot_gledPulseStretchGetIntf
                0x0000000000019540                Peridot_gledSpecialModeSetIntf
                0x0000000000019550                Peridot_gledSpecialModeGetIntf
                0x0000000000019560                Peridot_gledCtrlSetIntf
                0x0000000000019570                Peridot_gledCtrlGetIntf
 *(.gnu.warning)

.text.unlikely  0x0000000000000000       0x1e
 .text.unlikely
                0x0000000000000000       0x1e /home/roscube/Desktop/UMSD_v7.0.0_ADLINK/UMSD_v7.0.0/obj/dev/peridot/src/api/msdDrv_obj/api.o

.fini
 *(SORT_NONE(.fini))

.rodata         0x0000000000000000     0x135c
 *(.rodata)
 .rodata        0x0000000000000000     0x135c /home/roscube/Desktop/UMSD_v7.0.0_ADLINK/UMSD_v7.0.0/obj/dev/peridot/src/api/msdDrv_obj/api.o

.rodata.str1.8  0x0000000000000000      0x5b5
 .rodata.str1.8
                0x0000000000000000      0x5b5 /home/roscube/Desktop/UMSD_v7.0.0_ADLINK/UMSD_v7.0.0/obj/dev/peridot/src/api/msdDrv_obj/api.o

.rodata.str1.1  0x0000000000000000      0xaff
 .rodata.str1.1
                0x0000000000000000      0xaff /home/roscube/Desktop/UMSD_v7.0.0_ADLINK/UMSD_v7.0.0/obj/dev/peridot/src/api/msdDrv_obj/api.o

.rodata.cst8    0x0000000000000000       0x20
 .rodata.cst8   0x0000000000000000       0x20 /home/roscube/Desktop/UMSD_v7.0.0_ADLINK/UMSD_v7.0.0/obj/dev/peridot/src/api/msdDrv_obj/api.o

.rodata1
 *(.rodata1)

.eh_frame_hdr
 *(.eh_frame_hdr)

.eh_frame       0x0000000000000000     0x63c4
 *(.eh_frame)
 .eh_frame      0x0000000000000000      0x5d8 /home/roscube/Desktop/UMSD_v7.0.0_ADLINK/UMSD_v7.0.0/obj/dev/peridot/src/driver/msdDrv_obj/driver.o
                                        0x5d4 (size before relaxing)
 *fill*         0x00000000000005d8        0x0 
 .eh_frame      0x00000000000005d8     0x5dec /home/roscube/Desktop/UMSD_v7.0.0_ADLINK/UMSD_v7.0.0/obj/dev/peridot/src/api/msdDrv_obj/api.o
                                       0x5e1c (size before relaxing)

.gcc_except_table
 *(.gcc_except_table)

.gnu_extab
 *(.gnu_extab*)

.exception_ranges
 *(.exception_ranges)

.eh_frame
 *(.eh_frame)

.gnu_extab
 *(.gnu_extab)

.gcc_except_table
 *(.gcc_except_table)

.exception_ranges
 *(.exception_ranges)

.tdata
 *(.tdata)

.tbss
 *(.tbss)

.jcr
 *(.jcr)

.dynamic
 *(.dynamic)

.got
 *(.got)

.got.plt
 *(.got.plt)

.data           0x0000000000000000      0x200
 *(.data)
 .data          0x0000000000000000        0x0 /home/roscube/Desktop/UMSD_v7.0.0_ADLINK/UMSD_v7.0.0/obj/dev/peridot/src/driver/msdDrv_obj/driver.o
 .data          0x0000000000000000      0x200 /home/roscube/Desktop/UMSD_v7.0.0_ADLINK/UMSD_v7.0.0/obj/dev/peridot/src/api/msdDrv_obj/api.o

.data1
 *(.data1)

.bss            0x0000000000000000        0x0
 *(.bss)
 .bss           0x0000000000000000        0x0 /home/roscube/Desktop/UMSD_v7.0.0_ADLINK/UMSD_v7.0.0/obj/dev/peridot/src/driver/msdDrv_obj/driver.o
 .bss           0x0000000000000000        0x0 /home/roscube/Desktop/UMSD_v7.0.0_ADLINK/UMSD_v7.0.0/obj/dev/peridot/src/api/msdDrv_obj/api.o

.lbss
 *(.lbss)

.lrodata
 *(.lrodata)

.ldata
 *(.ldata)

.stab
 *(.stab)

.stabstr
 *(.stabstr)

.stab.excl
 *(.stab.excl)

.stab.exclstr
 *(.stab.exclstr)

.stab.index
 *(.stab.index)

.stab.indexstr
 *(.stab.indexstr)

.comment        0x0000000000000000      0x630
 *(.comment)
 .comment       0x0000000000000000       0x2c /home/roscube/Desktop/UMSD_v7.0.0_ADLINK/UMSD_v7.0.0/obj/dev/peridot/src/driver/msdDrv_obj/driver.o
 .comment       0x000000000000002c      0x604 /home/roscube/Desktop/UMSD_v7.0.0_ADLINK/UMSD_v7.0.0/obj/dev/peridot/src/api/msdDrv_obj/api.o

.note.GNU-stack
                0x0000000000000000        0x0
 .note.GNU-stack
                0x0000000000000000        0x0 /home/roscube/Desktop/UMSD_v7.0.0_ADLINK/UMSD_v7.0.0/obj/dev/peridot/src/driver/msdDrv_obj/driver.o
 .note.GNU-stack
                0x0000000000000000        0x0 /home/roscube/Desktop/UMSD_v7.0.0_ADLINK/UMSD_v7.0.0/obj/dev/peridot/src/api/msdDrv_obj/api.o

.gnu.build.attributes
 *(.gnu.build.attributes)

.debug
 *(.debug)

.line
 *(.line)

.debug_srcinfo
 *(.debug_srcinfo)

.debug_sfnames
 *(.debug_sfnames)

.debug_aranges
 *(.debug_aranges)

.debug_pubnames
 *(.debug_pubnames)

.debug_info
 *(.debug_info)

.debug_abbrev
 *(.debug_abbrev)

.debug_line
 *(.debug_line)

.debug_frame
 *(.debug_frame)

.debug_str
 *(.debug_str)

.debug_loc
 *(.debug_loc)

.debug_macinfo
 *(.debug_macinfo)

.debug_weaknames
 *(.debug_weaknames)

.debug_funcnames
 *(.debug_funcnames)

.debug_typenames
 *(.debug_typenames)

.debug_varnames
 *(.debug_varnames)

.debug_pubtypes
 *(.debug_pubtypes)

.debug_ranges
 *(.debug_ranges)

.debug_addr
 *(.debug_addr)

.debug_line_str
 *(.debug_line_str)

.debug_loclists
 *(.debug_loclists)

.debug_macro
 *(.debug_macro)

.debug_names
 *(.debug_names)

.debug_rnglists
 *(.debug_rnglists)

.debug_str_offsets
 *(.debug_str_offsets)

.debug_sup
 *(.debug_sup)

.gnu.attributes
 *(.gnu.attributes)
OUTPUT(/home/roscube/Desktop/UMSD_v7.0.0_ADLINK/UMSD_v7.0.0/obj/dev/peridot/msdDrv_Peridot.o elf64-x86-64)
