
Merging program properties


Discarded input sections

 .note.gnu.property
                0x0000000000000000       0x20 /home/roscube/Desktop/UMSD_v7.0.0_comb/UMSD_v7.0.0/obj/dev/bonsai/src/api/msdDrv_obj/api.o

Memory Configuration

Name             Origin             Length             Attributes
*default*        0x0000000000000000 0xffffffffffffffff

Linker script and memory map

LOAD /home/roscube/Desktop/UMSD_v7.0.0_comb/UMSD_v7.0.0/obj/dev/bonsai/src/driver/msdDrv_obj/driver.o
LOAD /home/roscube/Desktop/UMSD_v7.0.0_comb/UMSD_v7.0.0/obj/dev/bonsai/src/api/msdDrv_obj/api.o

.interp
 *(.interp)

.note.gnu.property
                0x0000000000000000       0x20
 .note.gnu.property
                0x0000000000000000       0x20 /home/roscube/Desktop/UMSD_v7.0.0_comb/UMSD_v7.0.0/obj/dev/bonsai/src/driver/msdDrv_obj/driver.o

.note.gnu.build-id
 *(.note.gnu.build-id)

.hash
 *(.hash)

.gnu.hash
 *(.gnu.hash)

.dynsym
 *(.dynsym)

.dynstr
 *(.dynstr)

.gnu.version
 *(.gnu.version)

.gnu.version_d
 *(.gnu.version_d)

.gnu.version_r
 *(.gnu.version_r)

.rela.init
 *(.rela.init)

.rela.text
 *(.rela.text)

.rela.fini
 *(.rela.fini)

.rela.rodata
 *(.rela.rodata)

.rela.data.rel.ro
 *(.rela.data.rel.ro)

.rela.data
 *(.rela.data)

.rela.tdata
 *(.rela.tdata)

.rela.tbss
 *(.rela.tbss)

.rela.ctors
 *(.rela.ctors)

.rela.dtors
 *(.rela.dtors)

.rela.got
 *(.rela.got)

.rela.bss
 *(.rela.bss)

.rela.ldata
 *(.rela.ldata)

.rela.lbss
 *(.rela.lbss)

.rela.lrodata
 *(.rela.lrodata)

.rela.ifunc
 *(.rela.ifunc)

.rela.plt
 *(.rela.plt)

.relr.dyn
 *(.relr.dyn)

.init
 *(SORT_NONE(.init))

.plt
 *(.plt)

.plt.got
 *(.plt.got)

.plt.sec
 *(.plt.sec)

.text           0x0000000000000000    0x28379
 *(.text .stub)
 .text          0x0000000000000000     0x1af7 /home/roscube/Desktop/UMSD_v7.0.0_comb/UMSD_v7.0.0/obj/dev/bonsai/src/driver/msdDrv_obj/driver.o
                0x0000000000000000                Bonsai_msdSetSMIC45PhyReg
                0x00000000000002a0                Bonsai_msdGetSMIC45PhyReg
                0x0000000000000560                Bonsai_msdSetSMIPhyReg
                0x00000000000006e0                Bonsai_msdGetSMIPhyReg
                0x00000000000008f0                Bonsai_msdSetSMIPhyRegField
                0x00000000000009e0                Bonsai_msdGetSMIPhyRegField
                0x0000000000000a80                Bonsai_msdSetPagedPhyRegField
                0x0000000000000b00                Bonsai_msdGetPagedPhyRegField
                0x0000000000000bd0                Bonsai_msdWritePagedPhyReg
                0x0000000000000c30                Bonsai_msdReadPagedPhyReg
                0x0000000000000c90                Bonsai_msdSetSMIPhyXMDIOReg
                0x0000000000000da0                Bonsai_msdGetSMIPhyXMDIOReg
                0x0000000000000ee0                Bonsai_msdPhyReset
                0x00000000000010a0                Bonsai_msdDirectSetMultiChipReg
                0x00000000000010c0                Bonsai_msdDirectGetMultiChipReg
                0x00000000000010e0                Bonsai_msdDirectSetMultiChipRegField
                0x00000000000011b0                Bonsai_msdDirectGetMultiChipRegField
                0x0000000000001250                Bonsai_msdDirectSetMultiChipExtendedReg
                0x00000000000012a0                Bonsai_msdDirectGetMultiChipExtendedReg
                0x0000000000001320                Bonsai_msdDirectSetMultiChipExtendedRegField
                0x00000000000013f0                Bonsai_msdDirectGetMultiChipExtendedRegField
                0x0000000000001480                Bonsai_msdSetSMIExtPhyReg
                0x0000000000001600                Bonsai_msdGetSMIExtPhyReg
                0x0000000000001810                Bonsai_msdWritePagedExtPhyReg
                0x0000000000001870                Bonsai_msdReadPagedExtPhyReg
                0x00000000000018d0                Bonsai_msdSetSMIExtPhyXMDIOReg
                0x00000000000019c0                Bonsai_msdGetSMIExtPhyXMDIOReg
 *fill*         0x0000000000001af7        0x9 
 .text          0x0000000000001b00    0x26879 /home/roscube/Desktop/UMSD_v7.0.0_comb/UMSD_v7.0.0/obj/dev/bonsai/src/api/msdDrv_obj/api.o
                0x0000000000003340                Bonsai_gtcamFlushAll
                0x0000000000003390                Bonsai_gtcamFlushEntry
                0x00000000000033f0                Bonsai_gtcamLoadEntry
                0x0000000000003480                Bonsai_gtcamReadTCAMData
                0x0000000000003500                Bonsai_gtcamGetNextTCAMData
                0x00000000000035a0                Bonsai_gtcamFindEntry
                0x0000000000003670                Bonsai_gtcamSetMode
                0x00000000000036d0                Bonsai_gtcamGetMode
                0x0000000000003760                Bonsai_gtcamAddEntryPort
                0x0000000000003850                Bonsai_gtcamRemoveEntryPort
                0x0000000000003950                Bonsai_gtcamEgrFlushEntry
                0x00000000000039d0                Bonsai_gtcamEgrFlushEntryAllPorts
                0x0000000000003a30                Bonsai_gtcamEgrLoadEntry
                0x0000000000003c00                Bonsai_gtcamEgrGetNextTCAMData
                0x0000000000003cd0                Bonsai_gtcamEgrReadTCAMData
                0x0000000000003d90                Bonsai_gtcamDump
                0x0000000000004490                Bonsai_gtcamAdvConfig
                0x00000000000057a0                Bonsai_gtcamRCFlushAllEntry
                0x0000000000005860                Bonsai_gtcamRCFlushEntry
                0x0000000000005940                Bonsai_gtcamRCLoadEntry
                0x0000000000005c40                Bonsai_gtcamRCReadEntry
                0x0000000000005d40                Bonsai_gtcamRCGetNextEntry
                0x0000000000005e80                Bonsai_gtcamRCFindEntry
                0x0000000000005fd0                Bonsai_gtcamRCEntryDump
                0x0000000000006a00                Bonsai_gtcamRCCompFlushAll
                0x0000000000006ac0                Bonsai_gtcamRCCompFlushPort
                0x0000000000006ba0                Bonsai_gtcamRCCompLoad
                0x0000000000006e00                Bonsai_gtcamRCCompRead
                0x00000000000081f0                Bonsai_gfdbGetAtuEntryNext
                0x0000000000008210                Bonsai_gfdbFlush
                0x0000000000008280                Bonsai_gfdbFlushInDB
                0x0000000000008300                Bonsai_gfdbMove
                0x00000000000083f0                Bonsai_gfdbMoveInDB
                0x00000000000084e0                Bonsai_gfdbAddMacEntry
                0x00000000000085b0                Bonsai_gfdbDelAtuEntry
                0x0000000000008640                Bonsai_gfdbGetViolation
                0x0000000000008770                Bonsai_gfdbFindAtuMacEntry
                0x00000000000088a0                Bonsai_gfdbSetAgingTimeout
                0x0000000000008920                Bonsai_gfdbGetAgingTimeout
                0x00000000000089b0                Bonsai_gfdbGetLearn2All
                0x0000000000008a50                Bonsai_gfdbSetLearn2All
                0x0000000000008aa0                Bonsai_gfdbSetPortLearnLimit
                0x0000000000008c10                Bonsai_gfdbGetPortLearnLimit
                0x0000000000008d20                Bonsai_gfdbGetPortLearnCount
                0x0000000000008de0                Bonsai_gfdbGetEntryCount
                0x0000000000008e30                Bonsai_gfdbGetEntryCountPerFid
                0x0000000000008e80                Bonsai_gfdbGetNonStaticEntryCount
                0x0000000000008ed0                Bonsai_gfdbGetNStaticEntryCountFid
                0x0000000000009180                Bonsai_gpolicySetMgmtCtrl
                0x00000000000091a0                Bonsai_gpolicyGetMgmtCtrl
                0x00000000000091c0                Bonsai_gpolicySetCpuDest
                0x0000000000009280                Bonsai_gpolicyGetCpuDest
                0x0000000000009310                Bonsai_gpolicySetIgrMonitorDest
                0x00000000000093d0                Bonsai_gpolicyGetIgrMonitorDest
                0x0000000000009460                Bonsai_gpolicySetRsvd2CpuEnables
                0x00000000000094b0                Bonsai_gpolicyGetRsvd2CpuEnables
                0x0000000000009550                Bonsai_gpolicySetMGMTPri
                0x00000000000095f0                Bonsai_gpolicyGetMGMTPri
                0x0000000000009650                Bonsai_gpolicySetRouteDest
                0x0000000000009710                Bonsai_gpolicyGetRouteDest
                0x00000000000097a0                Bonsai_gpolicySetMirrorDest
                0x0000000000009860                Bonsai_gpolicyGetMirrorDest
                0x00000000000098f0                Bonsai_gpolicySetIllegalIPAddr
                0x0000000000009990                Bonsai_gpolicyGetIllegalIPAddr
                0x00000000000099f0                Bonsai_gpolicySetDipDaMismatch
                0x0000000000009a90                Bonsai_gpolicyGetDipDaMismatch
                0x0000000000009af0                Bonsai_gpolicySetZeroSIP
                0x0000000000009b90                Bonsai_gpolicyGetZeroSIP
                0x0000000000009bf0                Bonsai_gpolicySetMcTtlExceeded
                0x0000000000009cc0                Bonsai_gpolicyGetMcTtlExceeded
                0x0000000000009d90                Bonsai_gpolicySetUcTtlExceeded
                0x0000000000009e50                Bonsai_gpolicyGetUcTtlExceeded
                0x0000000000009eb0                Bonsai_gprtSetPortTtlThreshold
                0x0000000000009f40                Bonsai_gprtGetPortTtlThreshold
                0x0000000000009fa0                Bonsai_gpolicySetIpHdrErr
                0x000000000000a040                Bonsai_gpolicyGetIpHdrErr
                0x000000000000a0a0                Bonsai_gpolicySetTCPFinUrgPsh
                0x000000000000a140                Bonsai_gpolicyGetTCPFinUrgPsh
                0x000000000000a1a0                Bonsai_gpolicySetTCPFlagsSeqNum
                0x000000000000a240                Bonsai_gpolicyGetTCPFlagsSeqNum
                0x000000000000a2a0                Bonsai_gpolicySetTCPSYN
                0x000000000000a340                Bonsai_gpolicyGetTCPSYN
                0x000000000000a3a0                Bonsai_gpolicySetTCPHSize
                0x000000000000a440                Bonsai_gpolicyGetTCPHSize
                0x000000000000a4a0                Bonsai_gprtSetPortTCPMinHdrSize
                0x000000000000a530                Bonsai_gprtGetPortTCPMinHdrSize
                0x000000000000a590                Bonsai_gpolicySetICMPSize
                0x000000000000a630                Bonsai_gpolicyGetICMPSize
                0x000000000000a690                Bonsai_gprtSetPortICMPMaxSize
                0x000000000000a6e0                Bonsai_gprtGetPortICMPMaxSize
                0x000000000000a770                Bonsai_gpolicySetUDPPort
                0x000000000000a810                Bonsai_gpolicyGetUDPPort
                0x000000000000a870                Bonsai_gpolicySetTCPPort
                0x000000000000a910                Bonsai_gpolicyGetTCPPort
                0x000000000000a970                Bonsai_gpolicySetTCPSynFin
                0x000000000000aa10                Bonsai_gpolicyGetTCPSynFin
                0x000000000000aa70                Bonsai_gpolicySetTCPFrag
                0x000000000000ab10                Bonsai_gpolicyGetTCPFrag
                0x000000000000ab70                Bonsai_gpolicySetNearNonTPMR
                0x000000000000ac10                Bonsai_gpolicyGetNearNonTPMR
                0x000000000000ac70                Bonsai_gpolicySetETag
                0x000000000000ad10                Bonsai_gpolicyGetETag
                0x000000000000ad70                Bonsai_gpolicySetNonETag
                0x000000000000ae10                Bonsai_gpolicyGetNonETag
                0x000000000000ae70                Bonsai_gpolicyDump
                0x000000000000fab0                Bonsai_gvtuGetEntryNext
                0x000000000000fc20                Bonsai_gvtuFindVidEntry
                0x000000000000fde0                Bonsai_gvtuFlush
                0x000000000000fe00                Bonsai_gvtuAddEntry
                0x000000000000ff50                Bonsai_gvtuDelEntry
                0x000000000000ffd0                Bonsai_gvtuSetMode
                0x0000000000010150                Bonsai_gvtuGetMode
                0x00000000000102f0                Bonsai_gvtuGetViolation_MultiChip
                0x0000000000010400                Bonsai_gvtuGetViolation
                0x0000000000010570                Bonsai_gvtuDump
                0x0000000000010d00                Bonsai_garpLoadMcEntry
                0x0000000000010e20                Bonsai_garpLoadUcEntry
                0x0000000000010ee0                Bonsai_garpFlushEntry
                0x0000000000010f40                Bonsai_garpFlushAll
                0x0000000000010f90                Bonsai_garpReadEntry
                0x0000000000011010                Bonsai_garpGetNextEntry
                0x0000000000011450                Bonsai_gstuGetEntryNext
                0x0000000000011550                Bonsai_gstuAddEntry
                0x0000000000011620                Bonsai_gstuDelEntry
                0x0000000000011680                Bonsai_gstuFindSidEntry
                0x0000000000011790                Bonsai_gstuDump
                0x0000000000011d10                Bonsai_gpirlInitialize
                0x0000000000011d30                Bonsai_gpirlInitResource
                0x0000000000011db0                Bonsai_gpirlCustomSetup_sr2c
                0x0000000000011fa0                Bonsai_gpirlReadResource
                0x0000000000012170                Bonsai_gpirlWriteResource
                0x0000000000012310                Bonsai_gpirlGetResReg
                0x00000000000123b0                Bonsai_gpirlSetResReg
                0x0000000000012a90                Bonsai_gstatsFlushAll
                0x0000000000012ab0                Bonsai_gstatsFlushPort
                0x0000000000012af0                Bonsai_gstatsGetPortCounter
                0x0000000000012b50                Bonsai_gstatsGetPortAllCounters
                0x0000000000012ba0                Bonsai_gstatsGetHistogramMode
                0x0000000000012c60                Bonsai_gstatsSetHistogramMode
                0x0000000000012ca0                Bonsai_gmibDump
                0x00000000000137c0                Bonsai_gvlnSetPortVid
                0x0000000000013820                Bonsai_gvlnGetPortVid
                0x00000000000138b0                Bonsai_gprtSetForceDefaultVid
                0x0000000000013910                Bonsai_gprtGetForceDefaultVid
                0x00000000000139b0                Bonsai_gvlnSetPortVlanDot1qMode
                0x0000000000013a10                Bonsai_gvlnGetPortVlanDot1qMode
                0x0000000000013aa0                Bonsai_gprtSetDiscardTagged
                0x0000000000013b00                Bonsai_gprtGetDiscardTagged
                0x0000000000013ba0                Bonsai_gprtSetDiscardUntagged
                0x0000000000013c00                Bonsai_gprtGetDiscardUntagged
                0x0000000000013ca0                Bonsai_gprtSetUnicastFloodBlock
                0x0000000000013d00                Bonsai_gprtGetUnicastFloodBlock
                0x0000000000013da0                Bonsai_gprtSetMulticastFloodBlock
                0x0000000000013e00                Bonsai_gprtGetMulticastFloodBlock
                0x0000000000013ea0                Bonsai_gprtSetDiscardBCastMode
                0x0000000000013f00                Bonsai_gprtGetDiscardBCastMode
                0x0000000000013fa0                Bonsai_gprtSetIGMPSnoopEnable
                0x0000000000014000                Bonsai_gprtGetIGMPSnoopEnable
                0x00000000000140a0                Bonsai_gprtGetHeaderMode
                0x0000000000014140                Bonsai_gprtSetHeaderMode
                0x00000000000141a0                Bonsai_gprtGetDropOnLock
                0x0000000000014240                Bonsai_gprtSetDropOnLock
                0x00000000000142a0                Bonsai_gprtSetJumboMode
                0x0000000000014310                Bonsai_gprtGetJumboMode
                0x00000000000143a0                Bonsai_gprtSetSpecifiedMTU
                0x0000000000014420                Bonsai_gprtGetSpecifiedMTU
                0x00000000000144b0                Bonsai_gprtSetLearnEnable
                0x00000000000145b0                Bonsai_gprtGetLearnEnable
                0x0000000000014640                Bonsai_gprtGetVTUPriorityOverride
                0x00000000000146d0                Bonsai_gprtSetVTUPriorityOverride
                0x0000000000014730                Bonsai_gprtGetSAPriorityOverride
                0x00000000000147c0                Bonsai_gprtSetSAPriorityOverride
                0x0000000000014820                Bonsai_gprtGetDAPriorityOverride
                0x00000000000148b0                Bonsai_gprtSetDAPriorityOverride
                0x0000000000014910                Bonsai_gprtGetMessagePort
                0x00000000000149b0                Bonsai_gprtSetMessagePort
                0x0000000000014a10                Bonsai_gprtGetEtherType
                0x0000000000014a30                Bonsai_gprtSetEtherType
                0x0000000000014a50                Bonsai_gprtGetAllowVidZero
                0x0000000000014af0                Bonsai_gprtSetAllowVidZero
                0x0000000000014b50                Bonsai_gprtSetTrunkPort
                0x0000000000014c10                Bonsai_gprtGetTrunkPort
                0x0000000000014cf0                Bonsai_gprtSetFlowCtrl
                0x0000000000014da0                Bonsai_gprtGetFlowCtrl
                0x0000000000014e10                Bonsai_gprtSetEgressMonitorSource
                0x0000000000014e70                Bonsai_gprtGetEgressMonitorSource
                0x0000000000014f10                Bonsai_gprtSetIngressMonitorSource
                0x0000000000014f70                Bonsai_gprtGetIngressMonitorSource
                0x0000000000015010                Bonsai_grcSetEgressRate
                0x0000000000015240                Bonsai_grcSetELimitMode
                0x00000000000152a0                Bonsai_grcGetELimitMode
                0x0000000000015330                Bonsai_grcGetEgressRate
                0x0000000000015470                Bonsai_gprtSetDuplex
                0x00000000000154e0                Bonsai_gprtGetDuplex
                0x00000000000155b0                Bonsai_gprtGetDuplexStatus
                0x0000000000015640                Bonsai_gprtGetForceLink
                0x0000000000015710                Bonsai_gprtSetForceLink
                0x0000000000015780                Bonsai_gprtGetLinkState
                0x0000000000015810                Bonsai_gprtSetForceSpeed
                0x0000000000015a90                Bonsai_gprtGetForceSpeed
                0x0000000000015c30                Bonsai_gprtGetSpeed
                0x0000000000015d60                Bonsai_gprtGetVlanPorts
                0x0000000000015e40                Bonsai_gprtSetVlanPorts
                0x0000000000015f80                Bonsai_gprtGetFrameMode
                0x0000000000016010                Bonsai_gprtSetFrameMode
                0x0000000000016070                Bonsai_gprtSetPortECID
                0x0000000000016110                Bonsai_gprtGetPortECID
                0x0000000000016170                Bonsai_gprtSetIgnoreETag
                0x0000000000016200                Bonsai_gprtGetIgnoreETag
                0x0000000000016260                Bonsai_gprtSetEgressMode
                0x00000000000162c0                Bonsai_gprtGetEgressMode
                0x0000000000016350                Bonsai_gprtSetExtendedPortCtrlReg
                0x0000000000016430                Bonsai_gprtGetExtendedPortCtrlReg
                0x00000000000164d0                Bonsai_gprtGetPortState
                0x0000000000016560                Bonsai_gprtSetPortState
                0x00000000000165c0                Bonsai_gprtSetIgnoreFcs
                0x0000000000016620                Bonsai_gprtGetIgnoreFcs
                0x00000000000166c0                Bonsai_gprtSetAllowBadFcs
                0x0000000000016720                Bonsai_gprtGetAllowBadFcs
                0x00000000000167c0                Bonsai_gprtSetPauseLimitOut
                0x0000000000016810                Bonsai_gprtGetPauseLimitOut
                0x0000000000016860                Bonsai_gprtSetPauseLimitIn
                0x00000000000168a0                Bonsai_gprtGetPauseLimitIn
                0x00000000000168f0                Bonsai_gprtSetQueueToPause
                0x0000000000016940                Bonsai_gprtGetQueueToPause
                0x0000000000016990                Bonsai_gprtSetRxPriFlowCtrlEnable
                0x0000000000016a80                Bonsai_gprtGetRxPriFlowCtrlEnable
                0x0000000000016b30                Bonsai_gprtSetRxPriFlowCtrlToQueue
                0x0000000000016c20                Bonsai_gprtGetRxPriFlowCtrlToQueue
                0x0000000000016cc0                Bonsai_gprtSetTxPriFlowCtrlEnable
                0x0000000000016db0                Bonsai_gprtGetTxPriFlowCtrlEnable
                0x0000000000016e60                Bonsai_gprtGetOutQueueSize
                0x0000000000016ef0                Bonsai_gprtSetMapDA
                0x0000000000016f50                Bonsai_gprtGetMapDA
                0x0000000000016ff0                Bonsai_gprtSetPortLocked
                0x0000000000017050                Bonsai_gprtGetPortLocked
                0x00000000000170f0                Bonsai_gprtSetHoldAt1
                0x0000000000017150                Bonsai_gprtGetHoldAt1
                0x00000000000171f0                Bonsai_gprtSetInt0nAgeOut
                0x0000000000017250                Bonsai_gprtGetInt0nAgeOut
                0x00000000000172f0                Bonsai_gprtSetRefreshLocked
                0x0000000000017350                Bonsai_gprtGetRefreshLocked
                0x00000000000173f0                Bonsai_gprtSetIgnoreWrongData
                0x0000000000017450                Bonsai_gprtGetIgnoreWrongData
                0x00000000000174f0                Bonsai_gprtSetARPMirror
                0x0000000000017550                Bonsai_gprtGetARPMirror
                0x00000000000175f0                Bonsai_gprtSetPreemptSize
                0x0000000000017650                Bonsai_gprtGetPreemptSize
                0x00000000000176f0                Bonsai_gprtSetPreemptEnable
                0x0000000000017750                Bonsai_gprtGetPreemptEnable
                0x00000000000177f0                Bonsai_gprtSetPreemptQueue
                0x0000000000017850                Bonsai_gprtGetPreemptQueue
                0x00000000000178f0                Bonsai_gprtRegDump
                0x00000000000183c0                Bonsai_gBpeEnableSet
                0x0000000000018510                Bonsai_gBpeEnableGet
                0x00000000000185b0                Bonsai_gecidAddEntry
                0x00000000000185f0                Bonsai_gecidFlushAll
                0x0000000000018660                Bonsai_gecidMove
                0x0000000000018720                Bonsai_gecidFlushEntry
                0x00000000000187b0                Bonsai_gecidGetEcidEntryNext
                0x0000000000018830                Bonsai_gecidFindEcidEntry
                0x0000000000018930                Bonsai_gecidGetEntryCount
                0x0000000000018c20                Bonsai_gecidDump
                0x0000000000018d90                Bonsai_gqosSetPrioMapRule
                0x0000000000018df0                Bonsai_gqosGetPrioMapRule
                0x0000000000018e90                Bonsai_gprtSetInitialPri
                0x0000000000018f00                Bonsai_gprtGetInitialPri
                0x0000000000018fd0                Bonsai_gprtSetDefQpri
                0x0000000000019030                Bonsai_gprtGetDefQpri
                0x00000000000190d0                Bonsai_gprtSetIEEEPrioMap
                0x00000000000192e0                Bonsai_gprtGetIEEEPrioMap
                0x0000000000019500                Bonsai_gprtRewriteDscp
                0x0000000000019560                Bonsai_gprtSetCosToQueue
                0x00000000000195f0                Bonsai_gprtGetCosToQueue
                0x0000000000019650                Bonsai_gprtSetCosToDscp
                0x00000000000196e0                Bonsai_gprtGetCosToDscp
                0x0000000000019740                Bonsai_gprtSetDefFpri
                0x00000000000197a0                Bonsai_gprtGetDefFpri
                0x0000000000019840                Bonsai_gprtSetQueueCtrl
                0x0000000000019950                Bonsai_gprtGetQueueCtrl
                0x0000000000019a90                Bonsai_gprtSetPortSched
                0x0000000000019ae0                Bonsai_gprtGetPortSched
                0x0000000000019bf0                Bonsai_gprtSetQoSWeight
                0x0000000000019f20                Bonsai_gprtGetQoSWeight
                0x000000000001a240                Bonsai_gsysSetTrunkMaskTable
                0x000000000001a380                Bonsai_gsysGetTrunkMaskTable
                0x000000000001a510                Bonsai_gsysSetHashTrunk
                0x000000000001a540                Bonsai_gsysGetHashTrunk
                0x000000000001a5b0                Bonsai_gsysSetTrunkRouting
                0x000000000001a710                Bonsai_gsysGetTrunkRouting
                0x000000000001a8d0                Bonsai_gsysSetFloodBC
                0x000000000001a900                Bonsai_gsysGetFloodBC
                0x000000000001a970                Bonsai_gsysSetEgressMonitorDest
                0x000000000001a9c0                Bonsai_gsysGetEgressMonitorDest
                0x000000000001aa60                Bonsai_gsysSetSMISetup
                0x000000000001ac40                Bonsai_gsysGetSMISetup
                0x000000000001ae20                Bonsai_gsysGlobal1RegDump
                0x000000000001aef0                Bonsai_gsysGlobal2RegDump
                0x000000000001afc0                Bonsai_gsysSetRMUMode
                0x000000000001b050                Bonsai_gsysGetRMUMode
                0x000000000001b0b0                Bonsai_gsysQbvWrite
                0x000000000001b180                Bonsai_gsysQbvRead
                0x000000000001b260                Bonsai_gsysDevIntEnableSet
                0x000000000001b290                Bonsai_gsysDevIntEnableGet
                0x000000000001b310                Bonsai_gsysDevIntStatusGet
                0x000000000001b380                Bonsai_gsysActiveIntEnableSet
                0x000000000001b410                Bonsai_gsysActiveIntEnableGet
                0x000000000001b470                Bonsai_gsysActiveIntStatusGet
                0x000000000001b4d0                Bonsai_serdesReset
                0x000000000001bd70                Bonsai_msdRmuGetID
                0x000000000001bea0                Bonsai_msdRmuAtuDump
                0x000000000001c0c0                Bonsai_msdRmuEcidDump
                0x000000000001c310                Bonsai_msdRmuMib2Dump
                0x000000000001c740                Bonsai_msdRmuReadRegister
                0x000000000001c770                Bonsai_msdRmuWriteRegister
                0x000000000001c790                Bonsai_msdRmuMultiRegAccess
                0x000000000001c980                Bonsai_msdRmuTCAMDump
                0x000000000001caf0                Bonsai_msdRmuTCAMWrite
                0x000000000001cca0                Bonsai_msdRmuTCAMRead
                0x000000000001ce50                Bonsai_msdRmuRegDump
                0x000000000001cf20                Bonsai_gtcamLoadEntryIntf
                0x000000000001d100                Bonsai_gtcamReadTCAMDataIntf
                0x000000000001d300                Bonsai_gtcamGetNextTCAMDataIntf
                0x000000000001d500                Bonsai_gtcamFindEntryIntf
                0x000000000001d740                Bonsai_gtcamSetModeIntf
                0x000000000001d750                Bonsai_gtcamGetModeIntf
                0x000000000001d7b0                Bonsai_gtcamEgrFlushEntryIntf
                0x000000000001d7c0                Bonsai_gtcamEgrFlushAllPortsIntf
                0x000000000001d7d0                Bonsai_gtcamEgrLoadEntryIntf
                0x000000000001d890                Bonsai_gtcamEgrGetNextTCAMDataIntf
                0x000000000001d970                Bonsai_gtcamEgrReadTCAMDataIntf
                0x000000000001da50                Bonsai_gtcamAdvConfigIntf
                0x000000000001e3e0                Bonsai_gqciStreamFiltFlushAll
                0x000000000001e430                Bonsai_gqciStreamFiltSet
                0x000000000001e5c0                Bonsai_gqciStreamFiltBlockStatSet
                0x000000000001e6f0                Bonsai_gqciStreamFiltBlockStatGet
                0x000000000001e7c0                Bonsai_gqciStreamFiltEnAts
                0x000000000001e8f0                Bonsai_gqciStreamFiltEnGate
                0x000000000001ea20                Bonsai_gqciStreamFiltMatchCtrGet
                0x000000000001eaf0                Bonsai_gqciStreamFiltFilterCtrGet
                0x000000000001ebc0                Bonsai_gqciStreamGateFiltCtrGet
                0x000000000001ec90                Bonsai_gqciFlowMeterFiltCtrGet
                0x000000000001ed60                Bonsai_gqciStreamGateFlushAll
                0x000000000001edb0                Bonsai_gqciStreamGateDefStateSet
                0x000000000001ef10                Bonsai_gqciStreamGateScaleSet
                0x000000000001f050                Bonsai_gqciStreamGateTimeGenIdSet
                0x000000000001f170                Bonsai_gqciStreamGateEntryAdd
                0x000000000001f480                Bonsai_gqciStreamGateTimeGenFlush
                0x000000000001f550                Bonsai_gqciStreamGateTimeGenSet
                0x000000000001f760                Bonsai_gqciFlowMeterFlushAll
                0x000000000001f7b0                Bonsai_gqciFlowMeterCoupleFlagSet
                0x000000000001f8e0                Bonsai_gqciFlowMeterCoupleFlagGet
                0x000000000001f9c0                Bonsai_gqciFlowMeterDropOnYelSet
                0x000000000001faf0                Bonsai_gqciFlowMeterDropOnYelGet
                0x000000000001fbd0                Bonsai_gqciFlowMeterRedBlockEnSet
                0x000000000001fcf0                Bonsai_gqciFlowMeterRedBlockEnGet
                0x000000000001fdd0                Bonsai_gqciFlowMeterRedBlkStatSet
                0x000000000001ff00                Bonsai_gqciFlowMeterRedBlkStatGet
                0x000000000001ffe0                Bonsai_gqciFlowMeterAdvConfig
                0x00000000000204a0                Bonsai_gqciStreamGateEntryAddIntf
                0x0000000000020540                Bonsai_gfdbAddMacEntryIntf
                0x00000000000205c0                Bonsai_gfdbGetAtuEntryNextIntf
                0x00000000000206a0                Bonsai_gfdbFlushIntf
                0x00000000000206b0                Bonsai_gfdbFlushInDBIntf
                0x00000000000206c0                Bonsai_gfdbMoveIntf
                0x00000000000206d0                Bonsai_gfdbMoveInDBIntf
                0x00000000000206e0                Bonsai_gfdbPortRemoveIntf
                0x0000000000020710                Bonsai_gfdbPortRemoveInDBIntf
                0x0000000000020740                Bonsai_gfdbGetViolationIntf
                0x0000000000020820                Bonsai_gfdbFindAtuMacEntryIntf
                0x0000000000020910                Bonsai_gfdbDump
                0x0000000000020ac0                Bonsai_gvtuFindVidEntryIntf
                0x0000000000020c30                Bonsai_gvtuExistVidEntryIntf
                0x0000000000020cd0                Bonsai_gvtuFlushIntf
                0x0000000000020ce0                Bonsai_gvtuAddEntryIntf
                0x0000000000020e00                Bonsai_gvtuDelEntryIntf
                0x0000000000020e80                Bonsai_gvtuSetModeIntf
                0x0000000000020e90                Bonsai_gvtuGetModeIntf
                0x0000000000020ea0                Bonsai_gvtuGetViolationIntf
                0x0000000000020f60                Bonsai_gvtuGetEntryCountIntf
                0x0000000000021010                Bonsai_gvtuSetMemberTagIntf
                0x0000000000021100                Bonsai_gvtuGetMemberTagIntf
                0x00000000000211e0                Bonsai_gvtuGetEntryNextIntf
                0x0000000000021310                Bonsai_gstuAddEntryIntf
                0x00000000000213e0                Bonsai_gstuGetEntryNextIntf
                0x0000000000021490                Bonsai_gstuDelEntryIntf
                0x00000000000214f0                Bonsai_gstuFindSidEntryIntf
                0x0000000000021600                Bonsai_gstuGetEntryCountIntf
                0x00000000000216a0                Bonsai_gpirlInitializeIntf
                0x00000000000216b0                Bonsai_gpirlInitResourceIntf
                0x00000000000216c0                Bonsai_gpirlCustomSetup_sr2cIntf
                0x0000000000021780                Bonsai_gpirlReadResourceIntf
                0x0000000000021860                Bonsai_gpirlWriteResourceIntf
                0x0000000000021920                Bonsai_gpirlGetResRegIntf
                0x0000000000021930                Bonsai_gpirlSetResRegIntf
                0x0000000000021940                Bonsai_gpirlAdvConfigIntf
                0x0000000000021a40                Bonsai_gpirlAdvConfigDisableIntf
                0x0000000000021e70                Bonsai_gqavSetPortQpriXRate
                0x0000000000021fa0                Bonsai_gqavGetPortQpriXRate
                0x0000000000022080                Bonsai_gqavSetPortQpriXHiLimit
                0x0000000000022150                Bonsai_gqavGetPortQpriXHiLimit
                0x0000000000022200                Bonsai_garpLoadMcEntryIntf
                0x0000000000022260                Bonsai_garpLoadUcEntryIntf
                0x00000000000222c0                Bonsai_garpReadEntryIntf
                0x0000000000022350                Bonsai_garpGetNextEntryIntf
                0x00000000000223e0                Bonsai_gstatsGetPortCounterIntf
                0x00000000000223f0                Bonsai_gstatsGetPortAllCntersIntf
                0x0000000000022600                Bonsai_gstatsGetHistogramModeIntf
                0x0000000000022610                Bonsai_gstatsSetHistogramModeIntf
                0x0000000000022620                Bonsai_gvlnSetPortVlanQModeIntf
                0x0000000000022630                Bonsai_gvlnGetPortVlanQModeIntf
                0x0000000000022640                Bonsai_gprtSetDiscardTaggedIntf
                0x0000000000022650                Bonsai_gprtGetDiscardTaggedIntf
                0x0000000000022660                Bonsai_gprtSetDiscardUntaggedIntf
                0x0000000000022670                Bonsai_gprtGetDiscardUntaggedIntf
                0x0000000000022680                Bonsai_gprtSetUnicFloodBlockIntf
                0x0000000000022690                Bonsai_gprtGetUnicFloodBlockIntf
                0x00000000000226a0                Bonsai_gprtSetMultiFloodBlockIntf
                0x00000000000226b0                Bonsai_gprtGetMultiFloodBlockIntf
                0x00000000000226c0                Bonsai_gprtSetDiscardBCastModeIntf
                0x00000000000226d0                Bonsai_gprtGetDiscardBCastModeIntf
                0x00000000000226e0                Bonsai_gprtSetJumboModeIntf
                0x00000000000226f0                Bonsai_gprtGetJumboModeIntf
                0x0000000000022700                Bonsai_gprtSetSpecifiedMTUIntf
                0x0000000000022710                Bonsai_gprtGetSpecifiedMTUIntf
                0x0000000000022720                Bonsai_gprtSetLearnEnableIntf
                0x0000000000022730                Bonsai_gprtGetLearnEnableIntf
                0x0000000000022740                Bonsai_gprtGetVTUPriOverrideIntf
                0x0000000000022750                Bonsai_gprtSetVTUPriOverrideIntf
                0x0000000000022760                Bonsai_gprtGetSAPriOverrideIntf
                0x0000000000022770                Bonsai_gprtSetSAPriOverrideIntf
                0x0000000000022780                Bonsai_gprtGetDAPriOverrideIntf
                0x0000000000022790                Bonsai_gprtSetDAPriOverrideIntf
                0x00000000000227a0                Bonsai_gprtSetFlowCtrlIntf
                0x00000000000227b0                Bonsai_gprtGetFlowCtrlIntf
                0x00000000000227c0                Bonsai_gprtSetForceSpeedIntf
                0x00000000000227e0                Bonsai_gprtGetForceSpeedIntf
                0x00000000000227f0                Bonsai_grcSetEgressRateIntf
                0x0000000000022800                Bonsai_grcGetEgressRateIntf
                0x0000000000022810                Bonsai_grcSetELimitModeIntf
                0x0000000000022820                Bonsai_grcGetELimitModeIntf
                0x0000000000022830                Bonsai_gprtSetDuplexIntf
                0x0000000000022840                Bonsai_gprtGetDuplexIntf
                0x0000000000022850                Bonsai_gprtGetDuplexStatusIntf
                0x0000000000022860                Bonsai_gprtGetForceLinkIntf
                0x0000000000022870                Bonsai_gprtSetForceLinkIntf
                0x0000000000022880                Bonsai_gprtGetSpeedIntf
                0x0000000000022890                Bonsai_gprtGetFrameModeIntf
                0x00000000000228a0                Bonsai_gprtSetFrameModeIntf
                0x00000000000228b0                Bonsai_gprtSetEgressModeIntf
                0x00000000000228d0                Bonsai_gprtGetEgressModeIntf
                0x00000000000228e0                Bonsai_gprtGetPortStateIntf
                0x00000000000228f0                Bonsai_gprtSetPortStateIntf
                0x0000000000022900                Bonsai_gqosSetPrioMapRuleIntf
                0x0000000000022910                Bonsai_gqosGetPrioMapRuleIntf
                0x0000000000022920                Bonsai_gprtSetInitialPriIntf
                0x0000000000022930                Bonsai_gprtGetInitialPriIntf
                0x0000000000022940                Bonsai_gprtSetDefQpriIntf
                0x0000000000022950                Bonsai_gprtGetDefQpriIntf
                0x0000000000022960                Bonsai_gprtSetIEEEPrioMapIntf
                0x00000000000229c0                Bonsai_gprtGetIEEEPrioMapIntf
                0x0000000000022a80                Bonsai_gecidAddEntryIntf
                0x0000000000022b10                Bonsai_gecidGetEcidEntryNextIntf
                0x0000000000022bd0                Bonsai_gecidFindEcidEntryIntf
                0x0000000000022ca0                Bonsai_gprtSetQueueCtrlIntf
                0x0000000000022cb0                Bonsai_gprtGetQueueCtrlIntf
                0x0000000000022cc0                Bonsai_gprtSetPortSchedIntf
                0x0000000000022cd0                Bonsai_gprtGetPortSchedIntf
                0x0000000000022ce0                Bonsai_gprtSetQoSWeightIntf
                0x0000000000022de0                Bonsai_gprtGetQoSWeightIntf
                0x0000000000022ee0                Bonsai_gtcamRCLoadEntryIntf
                0x0000000000023010                Bonsai_gtcamRCReadEntryIntf
                0x0000000000023160                Bonsai_gtcamRCGetNextEntryIntf
                0x00000000000232b0                Bonsai_gtcamRCFindEntryIntf
                0x0000000000023440                Bonsai_msdRmuGetIDIntf
                0x0000000000023450                Bonsai_msdRmuAtuDumpIntf
                0x00000000000235b0                Bonsai_msdRmuEcidDumpIntf
                0x0000000000023710                Bonsai_msdRmuMib2DumpIntf
                0x0000000000023920                Bonsai_msdRmuReadRegisterIntf
                0x0000000000023930                Bonsai_msdRmuWriteRegisterIntf
                0x0000000000023950                Bonsai_msdRmuMultiRegAccessIntf
                0x0000000000023960                Bonsai_msdRmuTCAMDumpIntf
                0x0000000000023c60                Bonsai_msdRmuTCAMWriteIntf
                0x0000000000023e30                Bonsai_msdRmuTCAMReadIntf
                0x0000000000024d30                Bonsai_gptpSetIntEnable
                0x0000000000024e20                Bonsai_gptpGetIntEnable
                0x0000000000024ed0                Bonsai_gptpSetPortPTPEn
                0x0000000000024fb0                Bonsai_gptpGetPortPTPEn
                0x0000000000025050                Bonsai_gptpGetTimeStamp
                0x0000000000025180                Bonsai_gptpGetTSValidSt
                0x0000000000025250                Bonsai_gptpResetTimeStamp
                0x0000000000025320                Bonsai_gptpGetIntStatus
                0x00000000000253e0                Bonsai_gptpSetMeanPathDelay
                0x0000000000025480                Bonsai_gptpGetMeanPathDelay
                0x0000000000025520                Bonsai_gptpSetIgrPathDelayAsym
                0x00000000000255c0                Bonsai_gptpGetIgrPathDelayAsym
                0x0000000000025660                Bonsai_gptpSetEgrPathDelayAsym
                0x0000000000025700                Bonsai_gptpGetEgrPathDelayAsym
                0x00000000000257a0                Bonsai_gptpGetTODBusyBitStatus
                0x0000000000025820                Bonsai_gptpTODStoreCompensation
                0x00000000000258e0                Bonsai_gptpTODStoreAll
                0x00000000000259a0                Bonsai_gptpTODCaptureAll
                0x0000000000025c70                Bonsai_gptpSetPulse
                0x0000000000025d20                Bonsai_gptpGetPulse
                0x0000000000025dc0                Bonsai_gtaiGetPTPGlobalTime
                0x0000000000025e40                Bonsai_gptpPortRegGet
                0x0000000000025ef0                Bonsai_gptpPortRegSet
                0x0000000000025f90                Bonsai_gptpGlobalRegGet
                0x0000000000026000                Bonsai_gptpGlobalRegSet
                0x0000000000026070                Bonsai_gptp1588v2ConfigSet
                0x0000000000026240                Bonsai_gptp8021asConfigSet
                0x0000000000026400                Bonsai_gptp8021asRevConfigSet
                0x00000000000265c0                Bonsai_gptpPreemptTsSelSet
                0x00000000000266a0                Bonsai_gptpPreemptTsSelGet
                0x0000000000026740                Bonsai_gptpPreemptCtrlSet
                0x0000000000026820                Bonsai_gptpPreemptCtrlGet
                0x00000000000268c0                Bonsai_gtaiTrigGenTimerSelGet
                0x0000000000026940                Bonsai_gtaiTrigGenTimerSelSet
                0x0000000000026a00                Bonsai_gptpSetIntEnableIntf
                0x0000000000026a60                Bonsai_gptpGetIntEnableIntf
                0x0000000000026ac0                Bonsai_gptpGetTimeStampIntf
                0x0000000000026b30                Bonsai_gptpGetIntStatusIntf
                0x0000000000026ba0                Bonsai_gptpTODStoreCompenIntf
                0x0000000000026c20                Bonsai_gptpTODStoreAllIntf
                0x0000000000026ca0                Bonsai_gptpTODCaptureAllIntf
                0x0000000000026d30                Bonsai_gptpSetPulseIntf
                0x0000000000026d90                Bonsai_gptpGetPulseIntf
                0x0000000000026df0                Bonsai_gptp1588v2ConfigSetIntf
                0x0000000000026e00                Bonsai_gptp8021asConfigSetIntf
                0x0000000000026e10                Bonsai_gptp8021asRevCfgSetIntf
                0x0000000000027080                Bonsai_gledForceOn
                0x0000000000027140                Bonsai_gledForceOff
                0x0000000000027200                Bonsai_gledLinkAct
                0x00000000000272f0                Bonsai_gledModeSet
                0x00000000000273c0                Bonsai_gledModeGet
                0x0000000000027450                Bonsai_gledBlinkRateSet
                0x0000000000027500                Bonsai_gledBlinkRateGet
                0x00000000000275e0                Bonsai_gledPulseStretchSet
                0x0000000000027690                Bonsai_gledPulseStretchGet
                0x0000000000027760                Bonsai_gledSpecialModeSet
                0x0000000000027810                Bonsai_gledSpecialModeGet
                0x0000000000027880                Bonsai_gledCtrlSet
                0x00000000000278c0                Bonsai_gledCtrlGet
                0x0000000000027930                Bonsai_gledDump
                0x0000000000027c00                Bonsai_gledForceOnIntf
                0x0000000000027c10                Bonsai_gledForceOffIntf
                0x0000000000027c20                Bonsai_gledLinkActIntf
                0x0000000000027c30                Bonsai_gledModeSetIntf
                0x0000000000027c40                Bonsai_gledModeGetIntf
                0x0000000000027c50                Bonsai_gledBlinkRateSetIntf
                0x0000000000027c60                Bonsai_gledBlinkRateGetIntf
                0x0000000000027c70                Bonsai_gledPulseStretchSetIntf
                0x0000000000027c80                Bonsai_gledPulseStretchGetIntf
                0x0000000000027c90                Bonsai_gledSpecialModeSetIntf
                0x0000000000027ca0                Bonsai_gledSpecialModeGetIntf
                0x0000000000027cb0                Bonsai_gledCtrlSetIntf
                0x0000000000027cc0                Bonsai_gledCtrlGetIntf
                0x0000000000027cd0                Bonsai_gtcamRCCompLoadIntf
                0x0000000000027db0                Bonsai_gtcamRCCompReadIntf
                0x0000000000027ea0                Bonsai_EEPROMWrite
                0x0000000000027fd0                Bonsai_EEPROMRead
                0x0000000000028130                Bonsai_EEPROMChipSelSet
                0x0000000000028200                Bonsai_EEPROMChipSelGet
                0x0000000000028340                Bonsai_EEPROMWriteIntf
                0x0000000000028350                Bonsai_EEPROMReadIntf
                0x0000000000028360                Bonsai_EEPROMChipSelSetIntf
                0x0000000000028370                Bonsai_EEPROMChipSelGetIntf
 *(.gnu.warning)

.text.unlikely  0x0000000000000000       0x28
 .text.unlikely
                0x0000000000000000       0x28 /home/roscube/Desktop/UMSD_v7.0.0_comb/UMSD_v7.0.0/obj/dev/bonsai/src/api/msdDrv_obj/api.o

.fini
 *(SORT_NONE(.fini))

.rodata         0x0000000000000000     0x130c
 *(.rodata)
 .rodata        0x0000000000000000     0x130c /home/roscube/Desktop/UMSD_v7.0.0_comb/UMSD_v7.0.0/obj/dev/bonsai/src/api/msdDrv_obj/api.o

.rodata.str1.8  0x0000000000000000     0x33f5
 .rodata.str1.8
                0x0000000000000000     0x33f5 /home/roscube/Desktop/UMSD_v7.0.0_comb/UMSD_v7.0.0/obj/dev/bonsai/src/api/msdDrv_obj/api.o

.rodata.str1.1  0x0000000000000000      0x941
 .rodata.str1.1
                0x0000000000000000      0x941 /home/roscube/Desktop/UMSD_v7.0.0_comb/UMSD_v7.0.0/obj/dev/bonsai/src/api/msdDrv_obj/api.o

.rodata.cst8    0x0000000000000000       0x38
 .rodata.cst8   0x0000000000000000       0x38 /home/roscube/Desktop/UMSD_v7.0.0_comb/UMSD_v7.0.0/obj/dev/bonsai/src/api/msdDrv_obj/api.o

.rodata1
 *(.rodata1)

.eh_frame_hdr
 *(.eh_frame_hdr)

.eh_frame       0x0000000000000000     0x8784
 *(.eh_frame)
 .eh_frame      0x0000000000000000      0x758 /home/roscube/Desktop/UMSD_v7.0.0_comb/UMSD_v7.0.0/obj/dev/bonsai/src/driver/msdDrv_obj/driver.o
 .eh_frame      0x0000000000000758     0x802c /home/roscube/Desktop/UMSD_v7.0.0_comb/UMSD_v7.0.0/obj/dev/bonsai/src/api/msdDrv_obj/api.o
                                       0x8070 (size before relaxing)

.gcc_except_table
 *(.gcc_except_table)

.gnu_extab
 *(.gnu_extab*)

.exception_ranges
 *(.exception_ranges)

.eh_frame
 *(.eh_frame)

.gnu_extab
 *(.gnu_extab)

.gcc_except_table
 *(.gcc_except_table)

.exception_ranges
 *(.exception_ranges)

.tdata
 *(.tdata)

.tbss
 *(.tbss)

.jcr
 *(.jcr)

.dynamic
 *(.dynamic)

.got
 *(.got)

.got.plt
 *(.got.plt)

.data           0x0000000000000000        0x0
 *(.data)
 .data          0x0000000000000000        0x0 /home/roscube/Desktop/UMSD_v7.0.0_comb/UMSD_v7.0.0/obj/dev/bonsai/src/driver/msdDrv_obj/driver.o
 .data          0x0000000000000000        0x0 /home/roscube/Desktop/UMSD_v7.0.0_comb/UMSD_v7.0.0/obj/dev/bonsai/src/api/msdDrv_obj/api.o

.data1
 *(.data1)

.bss            0x0000000000000000        0x0
 *(.bss)
 .bss           0x0000000000000000        0x0 /home/roscube/Desktop/UMSD_v7.0.0_comb/UMSD_v7.0.0/obj/dev/bonsai/src/driver/msdDrv_obj/driver.o
 .bss           0x0000000000000000        0x0 /home/roscube/Desktop/UMSD_v7.0.0_comb/UMSD_v7.0.0/obj/dev/bonsai/src/api/msdDrv_obj/api.o

.lbss
 *(.lbss)

.lrodata
 *(.lrodata)

.ldata
 *(.ldata)

.stab
 *(.stab)

.stabstr
 *(.stabstr)

.stab.excl
 *(.stab.excl)

.stab.exclstr
 *(.stab.exclstr)

.stab.index
 *(.stab.index)

.stab.indexstr
 *(.stab.indexstr)

.comment        0x0000000000000000      0x790
 *(.comment)
 .comment       0x0000000000000000       0x2c /home/roscube/Desktop/UMSD_v7.0.0_comb/UMSD_v7.0.0/obj/dev/bonsai/src/driver/msdDrv_obj/driver.o
 .comment       0x000000000000002c      0x764 /home/roscube/Desktop/UMSD_v7.0.0_comb/UMSD_v7.0.0/obj/dev/bonsai/src/api/msdDrv_obj/api.o

.note.GNU-stack
                0x0000000000000000        0x0
 .note.GNU-stack
                0x0000000000000000        0x0 /home/roscube/Desktop/UMSD_v7.0.0_comb/UMSD_v7.0.0/obj/dev/bonsai/src/driver/msdDrv_obj/driver.o
 .note.GNU-stack
                0x0000000000000000        0x0 /home/roscube/Desktop/UMSD_v7.0.0_comb/UMSD_v7.0.0/obj/dev/bonsai/src/api/msdDrv_obj/api.o

.gnu.build.attributes
 *(.gnu.build.attributes)

.debug
 *(.debug)

.line
 *(.line)

.debug_srcinfo
 *(.debug_srcinfo)

.debug_sfnames
 *(.debug_sfnames)

.debug_aranges
 *(.debug_aranges)

.debug_pubnames
 *(.debug_pubnames)

.debug_info
 *(.debug_info)

.debug_abbrev
 *(.debug_abbrev)

.debug_line
 *(.debug_line)

.debug_frame
 *(.debug_frame)

.debug_str
 *(.debug_str)

.debug_loc
 *(.debug_loc)

.debug_macinfo
 *(.debug_macinfo)

.debug_weaknames
 *(.debug_weaknames)

.debug_funcnames
 *(.debug_funcnames)

.debug_typenames
 *(.debug_typenames)

.debug_varnames
 *(.debug_varnames)

.debug_pubtypes
 *(.debug_pubtypes)

.debug_ranges
 *(.debug_ranges)

.debug_addr
 *(.debug_addr)

.debug_line_str
 *(.debug_line_str)

.debug_loclists
 *(.debug_loclists)

.debug_macro
 *(.debug_macro)

.debug_names
 *(.debug_names)

.debug_rnglists
 *(.debug_rnglists)

.debug_str_offsets
 *(.debug_str_offsets)

.debug_sup
 *(.debug_sup)

.gnu.attributes
 *(.gnu.attributes)
OUTPUT(/home/roscube/Desktop/UMSD_v7.0.0_comb/UMSD_v7.0.0/obj/dev/bonsai/msdDrv_Bonsai.o elf64-x86-64)
