
Merging program properties


Discarded input sections

 .note.gnu.property
                0x0000000000000000       0x20 /home/roscube/Desktop/UMSD_v7.0.0_ADLINK/UMSD_v7.0.0/obj/dev/topaz/src/api/msdDrv_obj/api.o

Memory Configuration

Name             Origin             Length             Attributes
*default*        0x0000000000000000 0xffffffffffffffff

Linker script and memory map

LOAD /home/roscube/Desktop/UMSD_v7.0.0_ADLINK/UMSD_v7.0.0/obj/dev/topaz/src/driver/msdDrv_obj/driver.o
LOAD /home/roscube/Desktop/UMSD_v7.0.0_ADLINK/UMSD_v7.0.0/obj/dev/topaz/src/api/msdDrv_obj/api.o

.interp
 *(.interp)

.note.gnu.property
                0x0000000000000000       0x20
 .note.gnu.property
                0x0000000000000000       0x20 /home/roscube/Desktop/UMSD_v7.0.0_ADLINK/UMSD_v7.0.0/obj/dev/topaz/src/driver/msdDrv_obj/driver.o

.note.gnu.build-id
 *(.note.gnu.build-id)

.hash
 *(.hash)

.gnu.hash
 *(.gnu.hash)

.dynsym
 *(.dynsym)

.dynstr
 *(.dynstr)

.gnu.version
 *(.gnu.version)

.gnu.version_d
 *(.gnu.version_d)

.gnu.version_r
 *(.gnu.version_r)

.rela.init
 *(.rela.init)

.rela.text
 *(.rela.text)

.rela.fini
 *(.rela.fini)

.rela.rodata
 *(.rela.rodata)

.rela.data.rel.ro
 *(.rela.data.rel.ro)

.rela.data
 *(.rela.data)

.rela.tdata
 *(.rela.tdata)

.rela.tbss
 *(.rela.tbss)

.rela.ctors
 *(.rela.ctors)

.rela.dtors
 *(.rela.dtors)

.rela.got
 *(.rela.got)

.rela.bss
 *(.rela.bss)

.rela.ldata
 *(.rela.ldata)

.rela.lbss
 *(.rela.lbss)

.rela.lrodata
 *(.rela.lrodata)

.rela.ifunc
 *(.rela.ifunc)

.rela.plt
 *(.rela.plt)

.relr.dyn
 *(.relr.dyn)

.init
 *(SORT_NONE(.init))

.plt
 *(.plt)

.plt.got
 *(.plt.got)

.plt.sec
 *(.plt.sec)

.text           0x0000000000000000    0x15e6c
 *(.text .stub)
 .text          0x0000000000000000     0x1227 /home/roscube/Desktop/UMSD_v7.0.0_ADLINK/UMSD_v7.0.0/obj/dev/topaz/src/driver/msdDrv_obj/driver.o
                0x0000000000000000                Topaz_msdSetSMIC45PhyReg
                0x0000000000000180                Topaz_msdGetSMIC45PhyReg
                0x0000000000000300                Topaz_msdSetSMIPhyReg
                0x00000000000003f0                Topaz_msdGetSMIPhyReg
                0x0000000000000540                Topaz_msdSetSMIPhyRegField
                0x0000000000000630                Topaz_msdGetSMIPhyRegField
                0x00000000000006d0                Topaz_msdSetPagedPhyRegField
                0x0000000000000750                Topaz_msdGetPagedPhyRegField
                0x0000000000000820                Topaz_msdWritePagedPhyReg
                0x0000000000000880                Topaz_msdReadPagedPhyReg
                0x00000000000008e0                Topaz_msdSetSMIPhyXMDIOReg
                0x00000000000009f0                Topaz_msdGetSMIPhyXMDIOReg
                0x0000000000000b40                Topaz_msdPhyReset
                0x0000000000000d00                Topaz_msdSetSMIExtPhyReg
                0x0000000000000df0                Topaz_msdGetSMIExtPhyReg
                0x0000000000000f40                Topaz_msdWritePagedExtPhyReg
                0x0000000000000fa0                Topaz_msdReadPagedExtPhyReg
                0x0000000000001000                Topaz_msdSetSMIExtPhyXMDIOReg
                0x00000000000010f0                Topaz_msdGetSMIExtPhyXMDIOReg
 *fill*         0x0000000000001227        0x9 
 .text          0x0000000000001230    0x14c3c /home/roscube/Desktop/UMSD_v7.0.0_ADLINK/UMSD_v7.0.0/obj/dev/topaz/src/api/msdDrv_obj/api.o
                0x00000000000020e0                Topaz_gtcamFlushAll
                0x0000000000002130                Topaz_gtcamFlushEntry
                0x0000000000002190                Topaz_gtcamLoadEntry
                0x0000000000002210                Topaz_gtcamReadTCAMData
                0x00000000000022a0                Topaz_gtcamGetNextTCAMData
                0x0000000000002340                Topaz_gtcamFindEntry
                0x0000000000002410                Topaz_gtcamSetMode
                0x0000000000002470                Topaz_gtcamGetMode
                0x0000000000002500                Topaz_gtcamAddEntryPort
                0x00000000000025f0                Topaz_gtcamRemoveEntryPort
                0x00000000000026e0                Topaz_gtcamDump
                0x0000000000002a80                Topaz_gtcamAdvConfig
                0x0000000000003770                Topaz_gvctGetAdvCableDiag
                0x0000000000003be0                Topaz_gvctGetAdvExtendedStatus
                0x0000000000004730                Topaz_gfdbGetAtuEntryNext
                0x0000000000004750                Topaz_gfdbFlush
                0x00000000000047c0                Topaz_gfdbFlushInDB
                0x0000000000004850                Topaz_gfdbMove
                0x0000000000004940                Topaz_gfdbMoveInDB
                0x0000000000004a40                Topaz_gfdbAddMacEntry
                0x0000000000004b00                Topaz_gfdbDelAtuEntry
                0x0000000000004b90                Topaz_gfdbGetViolation
                0x0000000000004c90                Topaz_gfdbFindAtuMacEntry
                0x0000000000004dc0                Topaz_gfdbSetAgingTimeout
                0x0000000000004e20                Topaz_gfdbGetAgingTimeout
                0x0000000000004e90                Topaz_gfdbGetLearn2All
                0x0000000000004f10                Topaz_gfdbSetLearn2All
                0x0000000000004f40                Topaz_gfdbSetPortLearnLimit
                0x0000000000005070                Topaz_gfdbGetPortLearnLimit
                0x0000000000005180                Topaz_gfdbGetPortLearnCount
                0x0000000000005240                Topaz_gfdbGetEntryCount
                0x0000000000005290                Topaz_gfdbGetEntryCountPerFid
                0x00000000000052e0                Topaz_gfdbGetNonStaticEntryCount
                0x0000000000005330                Topaz_gfdbGetNonStaticEntryCountPerFid
                0x0000000000005a20                Topaz_gvtuGetEntryNext
                0x0000000000005b30                Topaz_gvtuFlush
                0x0000000000005b50                Topaz_gvtuAddEntry
                0x0000000000005c70                Topaz_gvtuDelEntry
                0x0000000000005cd0                Topaz_gvtuGetViolation
                0x0000000000005de0                Topaz_gvtuFindVidEntry
                0x0000000000005f50                Topaz_gvtuDump
                0x0000000000006660                Topaz_gstuGetEntryNext
                0x0000000000006740                Topaz_gstuAddEntry
                0x0000000000006810                Topaz_gstuDelEntry
                0x0000000000006870                Topaz_gstuFindSidEntry
                0x0000000000006970                Topaz_gstuDump
                0x0000000000006d00                Topaz_gpirlInitialize
                0x0000000000006d20                Topaz_gpirlInitResource
                0x0000000000006da0                Topaz_gpirlCustomSetup
                0x0000000000007120                Topaz_gpirlReadResource
                0x0000000000007350                Topaz_gpirlWriteResource
                0x00000000000075b0                Topaz_gpirlGetResReg
                0x0000000000007660                Topaz_gpirlSetResReg
                0x0000000000007af0                Topaz_gstatsFlushAll
                0x0000000000007b10                Topaz_gstatsFlushPort
                0x0000000000007b50                Topaz_gstatsGetPortCounter
                0x0000000000007bb0                Topaz_gstatsGetPortAllCounters
                0x0000000000007c00                Topaz_gstatsGetHistogramMode
                0x0000000000007cb0                Topaz_gstatsSetHistogramMode
                0x0000000000007cf0                Topaz_gmibDump
                0x00000000000083f0                Topaz_impRun
                0x00000000000084d0                Topaz_impReset
                0x00000000000085d0                Topaz_impWriteEEPROM
                0x00000000000086d0                Topaz_impLoadToEEPROM
                0x0000000000008820                Topaz_impLoadToRAM
                0x0000000000008980                Topaz_impStop
                0x0000000000008c70                Topaz_gphyReset
                0x0000000000008d40                Topaz_serdesReset
                0x0000000000008e00                Topaz_gphySetPortLoopback
                0x0000000000008ef0                Topaz_gphySetPortSpeed
                0x0000000000009080                Topaz_gphyPortPowerDown
                0x0000000000009170                Topaz_gphySetPortDuplexMode
                0x0000000000009290                Topaz_gphySetPortAutoMode
                0x0000000000009360                Topaz_gphySetEEE
                0x0000000000009460                Topaz_gphySetFlowControlEnable
                0x0000000000009580                Topaz_gphySetIntEnable
                0x00000000000095f0                Topaz_gphyGetIntEnable
                0x0000000000009690                Topaz_gphyGetIntStatus
                0x0000000000009730                Topaz_gprtSetForceDefaultVid
                0x0000000000009790                Topaz_gprtGetForceDefaultVid
                0x0000000000009820                Topaz_gvlnSetPortVid
                0x0000000000009880                Topaz_gvlnGetPortVid
                0x0000000000009910                Topaz_gvlnSetPortVlanDot1qMode
                0x0000000000009970                Topaz_gvlnGetPortVlanDot1qMode
                0x0000000000009a00                Topaz_gprtSetDiscardTagged
                0x0000000000009a60                Topaz_gprtGetDiscardTagged
                0x0000000000009af0                Topaz_gprtSetDiscardUntagged
                0x0000000000009b50                Topaz_gprtGetDiscardUntagged
                0x0000000000009be0                Topaz_gprtSetUnicastFloodBlock
                0x0000000000009c40                Topaz_gprtGetUnicastFloodBlock
                0x0000000000009cd0                Topaz_gprtSetMulticastFloodBlock
                0x0000000000009d30                Topaz_gprtGetMulticastFloodBlock
                0x0000000000009dc0                Topaz_gprtSetDiscardBCastMode
                0x0000000000009e20                Topaz_gprtGetDiscardBCastMode
                0x0000000000009ec0                Topaz_gprtSetIGMPSnoopEnable
                0x0000000000009f20                Topaz_gprtGetIGMPSnoopEnable
                0x0000000000009fc0                Topaz_gprtGetHeaderMode
                0x000000000000a060                Topaz_gprtSetHeaderMode
                0x000000000000a0c0                Topaz_gprtGetDropOnLock
                0x000000000000a160                Topaz_gprtSetDropOnLock
                0x000000000000a1c0                Topaz_gprtSetJumboMode
                0x000000000000a230                Topaz_gprtGetJumboMode
                0x000000000000a2c0                Topaz_gprtSetLearnEnable
                0x000000000000a330                Topaz_gprtGetLearnEnable
                0x000000000000a3c0                Topaz_gprtGetVTUPriorityOverride
                0x000000000000a450                Topaz_gprtSetVTUPriorityOverride
                0x000000000000a4b0                Topaz_gprtGetSAPriorityOverride
                0x000000000000a540                Topaz_gprtSetSAPriorityOverride
                0x000000000000a5a0                Topaz_gprtGetDAPriorityOverride
                0x000000000000a630                Topaz_gprtSetDAPriorityOverride
                0x000000000000a690                Topaz_gprtGetMessagePort
                0x000000000000a720                Topaz_gprtSetMessagePort
                0x000000000000a780                Topaz_gprtGetEtherType
                0x000000000000a7d0                Topaz_gprtSetEtherType
                0x000000000000a820                Topaz_gprtSetTrunkPort
                0x000000000000a8c0                Topaz_gprtGetTrunkPort
                0x000000000000a9a0                Topaz_gprtSetFlowCtrl
                0x000000000000aa10                Topaz_gprtGetFlowCtrl
                0x000000000000aac0                Topaz_gprtSetEgressMonitorSource
                0x000000000000ab20                Topaz_gprtGetEgressMonitorSource
                0x000000000000abb0                Topaz_gprtSetIngressMonitorSource
                0x000000000000ac10                Topaz_gprtGetIngressMonitorSource
                0x000000000000aca0                Topaz_grcSetELimitMode
                0x000000000000ad00                Topaz_grcSetEgressRate
                0x000000000000aeb0                Topaz_grcGetELimitMode
                0x000000000000af40                Topaz_grcGetEgressRate
                0x000000000000b080                Topaz_gprtSetDuplex
                0x000000000000b0f0                Topaz_gprtGetDuplex
                0x000000000000b1c0                Topaz_gprtGetDuplexStatus
                0x000000000000b250                Topaz_gprtGetForceLink
                0x000000000000b310                Topaz_gprtSetForceLink
                0x000000000000b380                Topaz_gprtGetLinkState
                0x000000000000b410                Topaz_gprtSetForceSpeed
                0x000000000000b680                Topaz_gprtGetForceSpeed
                0x000000000000b800                Topaz_gprtGetSpeed
                0x000000000000b980                Topaz_gprtGetVlanPorts
                0x000000000000ba40                Topaz_gprtSetVlanPorts
                0x000000000000baf0                Topaz_gprtGetFrameMode
                0x000000000000bb80                Topaz_gprtSetFrameMode
                0x000000000000bbe0                Topaz_gprtSetEgressMode
                0x000000000000bc40                Topaz_gprtGetEgressMode
                0x000000000000bcd0                Topaz_gprtGetPortState
                0x000000000000bd60                Topaz_gprtSetPortState
                0x000000000000bdc0                Topaz_gprtSetCutThrouthEnable
                0x000000000000be30                Topaz_gprtGetCutThrouthEnable
                0x000000000000bec0                Topaz_gprtSetIgnoreFcs
                0x000000000000bf20                Topaz_gprtGetIgnoreFcs
                0x000000000000bfb0                Topaz_gprtSetAllowBadFcs
                0x000000000000c010                Topaz_gprtGetAllowBadFcs
                0x000000000000c0a0                Topaz_gprtSetPauseLimitOut
                0x000000000000c100                Topaz_gprtGetPauseLimitOut
                0x000000000000c160                Topaz_gprtSetPauseLimitIn
                0x000000000000c1c0                Topaz_gprtGetPauseLimitIn
                0x000000000000c220                Topaz_gprtGetOutQueueSize
                0x000000000000c2c0                Topaz_gprtSetMapDA
                0x000000000000c320                Topaz_gprtGetMapDA
                0x000000000000c3b0                Topaz_gprtSetPortLocked
                0x000000000000c410                Topaz_gprtGetPortLocked
                0x000000000000c4a0                Topaz_gprtSetHoldAt1
                0x000000000000c500                Topaz_gprtGetHoldAt1
                0x000000000000c590                Topaz_gprtSetInt0nAgeOut
                0x000000000000c5f0                Topaz_gprtGetInt0nAgeOut
                0x000000000000c680                Topaz_gprtSetRefreshLocked
                0x000000000000c6e0                Topaz_gprtGetRefreshLocked
                0x000000000000c770                Topaz_gprtSetIgnoreWrongData
                0x000000000000c7d0                Topaz_gprtGetIgnoreWrongData
                0x000000000000c860                Topaz_gprtSetARPMirror
                0x000000000000c8c0                Topaz_gprtGetARPMirror
                0x000000000000c950                Topaz_gprtRegDump
                0x000000000000ca50                Topaz_gqosSetPrioMapRule
                0x000000000000cab0                Topaz_gqosGetPrioMapRule
                0x000000000000cb40                Topaz_gprtSetInitialPri
                0x000000000000cbb0                Topaz_gprtGetInitialPri
                0x000000000000cc70                Topaz_gprtSetDefQpri
                0x000000000000ccd0                Topaz_gprtGetDefQpri
                0x000000000000cd70                Topaz_gprtSetDefFpri
                0x000000000000cdd0                Topaz_gprtGetDefFpri
                0x000000000000d170                Topaz_gqavSetPortQpriXRate
                0x000000000000d210                Topaz_gqavGetPortQpriXRate
                0x000000000000d2b0                Topaz_gqavSetPortQpriXHiLimit
                0x000000000000d360                Topaz_gqavGetPortQpriXHiLimit
                0x000000000000d400                Topaz_gprtSetQueueCtrl
                0x000000000000d510                Topaz_gprtGetQueueCtrl
                0x000000000000d650                Topaz_gprtSetPortSched
                0x000000000000d6b0                Topaz_gprtGetPortSched
                0x000000000000d780                Topaz_gsysSetQoSWeight
                0x000000000000da30                Topaz_gsysGetQoSWeight
                0x000000000000df10                Topaz_gsysSetTrunkMaskTable
                0x000000000000e040                Topaz_gsysGetTrunkMaskTable
                0x000000000000e1a0                Topaz_gsysSetHashTrunk
                0x000000000000e1d0                Topaz_gsysGetHashTrunk
                0x000000000000e240                Topaz_gsysSetTrunkRouting
                0x000000000000e360                Topaz_gsysGetTrunkRouting
                0x000000000000e4b0                Topaz_gsysSetFloodBC
                0x000000000000e4e0                Topaz_gsysGetFloodBC
                0x000000000000e550                Topaz_gsysSetMonitorMgmtCtrl
                0x000000000000e580                Topaz_gsysGetMonitorMgmtCtrl
                0x000000000000e5a0                Topaz_gsysSetCPUDest
                0x000000000000e660                Topaz_gsysGetCPUDest
                0x000000000000e6f0                Topaz_gsysSetIngressMonitorDest
                0x000000000000e750                Topaz_gsysGetIngressMonitorDest
                0x000000000000e7d0                Topaz_gsysSetEgressMonitorDest
                0x000000000000e830                Topaz_gsysGetEgressMonitorDest
                0x000000000000e8b0                Topaz_gsysSetRsvd2CpuEnables
                0x000000000000e8f0                Topaz_gsysGetRsvd2CpuEnables
                0x000000000000e970                Topaz_gsysSetMGMTPri
                0x000000000000ea10                Topaz_gsysGetMGMTPri
                0x000000000000ea70                Topaz_gsysSetSMISetup
                0x000000000000eb90                Topaz_gsysGetSMISetup
                0x000000000000eca0                Topaz_gsysGlobal1RegDump
                0x000000000000ed70                Topaz_gsysGlobal2RegDump
                0x000000000000ee40                Topaz_gsysSetRMUMode
                0x000000000000ef00                Topaz_gsysGetRMUMode
                0x000000000000ef90                Topaz_gsysQbvWrite
                0x000000000000f0a0                Topaz_gsysQbvRead
                0x000000000000f1a0                Topaz_gsysDevIntEnableSet
                0x000000000000f200                Topaz_gsysDevIntEnableGet
                0x000000000000f290                Topaz_gsysDevIntStatusGet
                0x000000000000f310                Topaz_gsysActiveIntEnableSet
                0x000000000000f3d0                Topaz_gsysActiveIntEnableGet
                0x000000000000f460                Topaz_gsysActiveIntStatusGet
                0x000000000000fac0                Topaz_msdRmuGetID
                0x000000000000fbf0                Topaz_msdRmuAtuDump
                0x000000000000fe00                Topaz_msdRmuMib2Dump
                0x0000000000010230                Topaz_msdRmuReadRegister
                0x0000000000010260                Topaz_msdRmuWriteRegister
                0x0000000000010280                Topaz_msdRmuMultiRegAccess
                0x0000000000010470                Topaz_msdRmuTCAMDump
                0x00000000000105e0                Topaz_msdRmuTCAMWrite
                0x0000000000010790                Topaz_msdRmuTCAMRead
                0x0000000000010940                Topaz_msdRmuRegDump
                0x0000000000010a10                Topaz_gtcamLoadEntryIntf
                0x0000000000010b80                Topaz_gtcamReadTCAMDataIntf
                0x0000000000010d10                Topaz_gtcamGetNextTCAMDataIntf
                0x0000000000010ea0                Topaz_gtcamFindEntryIntf
                0x0000000000011070                Topaz_gtcamSetModeIntf
                0x0000000000011080                Topaz_gtcamGetModeIntf
                0x00000000000110e0                Topaz_gtcamAdvConfigIntf
                0x0000000000011280                Topaz_gvctGetAdvCableDiagIntf
                0x0000000000011380                Topaz_gvctGetAdvExtendedStatusIntf
                0x0000000000011420                Topaz_gfdbAddMacEntryIntf
                0x00000000000114a0                Topaz_gfdbFlushIntf
                0x00000000000114b0                Topaz_gfdbFlushInDBIntf
                0x00000000000114c0                Topaz_gfdbMoveIntf
                0x00000000000114d0                Topaz_gfdbMoveInDBIntf
                0x00000000000114e0                Topaz_gfdbPortRemoveIntf
                0x0000000000011510                Topaz_gfdbPortRemoveInDBIntf
                0x0000000000011540                Topaz_gfdbGetAtuEntryNextIntf
                0x0000000000011610                Topaz_gfdbGetViolationIntf
                0x00000000000116f0                Topaz_gfdbFindAtuMacEntryIntf
                0x00000000000117e0                Topaz_gfdbDump
                0x0000000000011950                Topaz_gvtuFindVidEntryIntf
                0x0000000000011ac0                Topaz_gvtuGetEntryNextIntf
                0x0000000000011bc0                Topaz_gvtuExistVidEntryIntf
                0x0000000000011c50                Topaz_gvtuFlushIntf
                0x0000000000011c60                Topaz_gvtuAddEntryIntf
                0x0000000000011d60                Topaz_gvtuDelEntryIntf
                0x0000000000011dd0                Topaz_gvtuGetViolationIntf
                0x0000000000011e90                Topaz_gvtuGetEntryCountIntf
                0x0000000000011f30                Topaz_gvtuSetMemberTagIntf
                0x0000000000012000                Topaz_gvtuGetMemberTagIntf
                0x00000000000120c0                Topaz_gstuAddEntryIntf
                0x0000000000012190                Topaz_gstuGetEntryNextIntf
                0x0000000000012240                Topaz_gstuDelEntryIntf
                0x00000000000122a0                Topaz_gstuFindSidEntryIntf
                0x00000000000123d0                Topaz_gstuGetEntryCountIntf
                0x0000000000012470                Topaz_gpirlInitializeIntf
                0x0000000000012480                Topaz_gpirlInitResourceIntf
                0x0000000000012490                Topaz_gpirlCustomSetupIntf
                0x0000000000012550                Topaz_gpirlReadResourceIntf
                0x0000000000012630                Topaz_gpirlWriteResourceIntf
                0x0000000000012710                Topaz_gpirlGetResRegIntf
                0x0000000000012720                Topaz_gpirlSetResRegIntf
                0x0000000000012730                Topaz_gpirlAdvConfigIntf
                0x0000000000012850                Topaz_gpirlAdvConfigDisableIntf
                0x00000000000128d0                Topaz_gstatsGetPortCounterIntf
                0x00000000000128e0                Topaz_gstatsGetPortAllCountersIntf
                0x0000000000012ae0                Topaz_gstatsGetHistogramModeIntf
                0x0000000000012af0                Topaz_gstatsSetHistogramModeIntf
                0x0000000000012b00                Topaz_impRunIntf
                0x0000000000012b10                Topaz_impResetIntf
                0x0000000000012b20                Topaz_impWriteEEPROMIntf
                0x0000000000012b30                Topaz_impLoadToEEPROMIntf
                0x0000000000012b40                Topaz_impLoadToRAMIntf
                0x0000000000012b50                Topaz_impStopIntf
                0x0000000000012b60                Topaz_EEPROMWrite
                0x0000000000012ce0                Topaz_EEPROMRead
                0x0000000000012e60                Topaz_gphySetPortSpeedIntf
                0x0000000000012e70                Topaz_gphySetPortAutoModeIntf
                0x0000000000012e80                Topaz_gvlnSetPortVlanDot1qModeIntf
                0x0000000000012e90                Topaz_gvlnGetPortVlanDot1qModeIntf
                0x0000000000012ea0                Topaz_gprtSetDiscardTaggedIntf
                0x0000000000012eb0                Topaz_gprtGetDiscardTaggedIntf
                0x0000000000012ec0                Topaz_gprtSetDiscardUntaggedIntf
                0x0000000000012ed0                Topaz_gprtGetDiscardUntaggedIntf
                0x0000000000012ee0                Topaz_gprtSetUnicastFloodBlockIntf
                0x0000000000012ef0                Topaz_gprtGetUnicastFloodBlockIntf
                0x0000000000012f00                Topaz_gprtSetMulticastFloodBlockIntf
                0x0000000000012f10                Topaz_gprtGetMulticastFloodBlockIntf
                0x0000000000012f20                Topaz_gprtSetDiscardBCastModeIntf
                0x0000000000012f30                Topaz_gprtGetDiscardBCastModeIntf
                0x0000000000012f40                Topaz_gprtSetJumboModeIntf
                0x0000000000012f50                Topaz_gprtGetJumboModeIntf
                0x0000000000012f60                Topaz_gprtSetLearnEnableIntf
                0x0000000000012f70                Topaz_gprtGetLearnEnableIntf
                0x0000000000012f80                Topaz_gprtGetVTUPriorityOverrideIntf
                0x0000000000012f90                Topaz_gprtSetVTUPriorityOverrideIntf
                0x0000000000012fa0                Topaz_gprtGetSAPriorityOverrideIntf
                0x0000000000012fb0                Topaz_gprtSetSAPriorityOverrideIntf
                0x0000000000012fc0                Topaz_gprtGetDAPriorityOverrideIntf
                0x0000000000012fd0                Topaz_gprtSetDAPriorityOverrideIntf
                0x0000000000012fe0                Topaz_gprtSetFlowCtrlIntf
                0x0000000000013010                Topaz_gprtGetFlowCtrlIntf
                0x0000000000013020                Topaz_gprtSetForceSpeedIntf
                0x0000000000013060                Topaz_gprtGetForceSpeedIntf
                0x0000000000013070                Topaz_grcSetEgressRateIntf
                0x0000000000013080                Topaz_grcGetEgressRateIntf
                0x0000000000013090                Topaz_grcSetELimitModeIntf
                0x00000000000130a0                Topaz_grcGetELimitModeIntf
                0x00000000000130b0                Topaz_gprtSetDuplexIntf
                0x00000000000130c0                Topaz_gprtGetDuplexIntf
                0x00000000000130d0                Topaz_gprtGetDuplexStatusIntf
                0x00000000000130e0                Topaz_gprtGetForceLinkIntf
                0x00000000000130f0                Topaz_gprtSetForceLinkIntf
                0x0000000000013100                Topaz_gprtGetSpeedIntf
                0x0000000000013110                Topaz_gprtGetFrameModeIntf
                0x0000000000013120                Topaz_gprtSetFrameModeIntf
                0x0000000000013130                Topaz_gprtSetEgressModeIntf
                0x0000000000013150                Topaz_gprtGetEgressModeIntf
                0x0000000000013160                Topaz_gprtGetPortStateIntf
                0x0000000000013170                Topaz_gprtSetPortStateIntf
                0x0000000000013180                Topaz_gprtSetCutThrouthEnableIntf
                0x0000000000013190                Topaz_gprtGetCutThrouthEnableIntf
                0x00000000000131a0                Topaz_gqosSetPrioMapRuleIntf
                0x00000000000131b0                Topaz_gqosGetPrioMapRuleIntf
                0x00000000000131c0                Topaz_gprtSetInitialPriIntf
                0x00000000000131d0                Topaz_gprtGetInitialPriIntf
                0x00000000000131e0                Topaz_gprtSetDefQpriIntf
                0x00000000000131f0                Topaz_gprtGetDefQpriIntf
                0x0000000000013200                Topaz_gprtSetQueueCtrlIntf
                0x0000000000013210                Topaz_gprtGetQueueCtrlIntf
                0x0000000000013220                Topaz_gprtSetPortSchedIntf
                0x0000000000013260                Topaz_gprtGetPortSchedIntf
                0x0000000000013270                Topaz_gsysSetQoSWeightIntf
                0x0000000000013370                Topaz_gsysGetQoSWeightIntf
                0x0000000000013470                Topaz_EEPROMWriteIntf
                0x0000000000013480                Topaz_EEPROMReadIntf
                0x0000000000013490                Topaz_msdRmuGetIDIntf
                0x00000000000134a0                Topaz_msdRmuAtuDumpIntf
                0x00000000000135f0                Topaz_msdRmuMib2DumpIntf
                0x00000000000137f0                Topaz_msdRmuReadRegisterIntf
                0x0000000000013800                Topaz_msdRmuWriteRegisterIntf
                0x0000000000013820                Topaz_msdRmuMultiRegAccessIntf
                0x0000000000013830                Topaz_msdRmuTCAMDumpIntf
                0x0000000000013a90                Topaz_msdRmuTCAMWriteIntf
                0x0000000000013c00                Topaz_msdRmuTCAMReadIntf
                0x0000000000014150                Topaz_gptpSetIntEnable
                0x0000000000014230                Topaz_gptpGetIntEnable
                0x00000000000142d0                Topaz_gptpSetProtPTPEn
                0x0000000000014390                Topaz_gptpGetProtPTPEn
                0x0000000000014420                Topaz_gptpSetPortConfig
                0x0000000000014600                Topaz_gptpGetPortConfig
                0x00000000000147c0                Topaz_gptpGetTimeStamp
                0x00000000000148c0                Topaz_gptpGetTSValidSt
                0x0000000000014980                Topaz_gptpResetTimeStamp
                0x0000000000014a40                Topaz_gptpSetGlobalConfig
                0x0000000000014b00                Topaz_gptpGetGlobalConfig
                0x0000000000014bc0                Topaz_gptpGetIntStatus
                0x0000000000014c40                Topaz_gptpSetIntEnableIntf
                0x0000000000014ca0                Topaz_gptpGetIntEnableIntf
                0x0000000000014d00                Topaz_gptpSetPortConfigIntf
                0x0000000000014d80                Topaz_gptpGetPortConfigIntf
                0x0000000000014e00                Topaz_gptpGetTimeStampIntf
                0x0000000000014e70                Topaz_gptpSetGlobalConfigIntf
                0x0000000000014ed0                Topaz_gptpGetGlobalConfigIntf
                0x0000000000014f40                Topaz_gptpGetIntStatusIntf
                0x0000000000015220                Topaz_gledForceOn
                0x00000000000152e0                Topaz_gledForceOff
                0x00000000000153b0                Topaz_gledLinkAct
                0x0000000000015490                Topaz_gledModeSet
                0x00000000000155c0                Topaz_gledModeGet
                0x0000000000015650                Topaz_gledBlinkRateSet
                0x0000000000015700                Topaz_gledBlinkRateGet
                0x00000000000157e0                Topaz_gledPulseStretchSet
                0x0000000000015890                Topaz_gledPulseStretchGet
                0x0000000000015960                Topaz_gledSpecialModeSet
                0x0000000000015a10                Topaz_gledSpecialModeGet
                0x0000000000015a80                Topaz_gledCtrlSet
                0x0000000000015ac0                Topaz_gledCtrlGet
                0x0000000000015af0                Topaz_gledDump
                0x0000000000015da0                Topaz_gledForceOnIntf
                0x0000000000015db0                Topaz_gledForceOffIntf
                0x0000000000015dc0                Topaz_gledLinkActIntf
                0x0000000000015dd0                Topaz_gledModeSetIntf
                0x0000000000015de0                Topaz_gledModeGetIntf
                0x0000000000015df0                Topaz_gledBlinkRateSetIntf
                0x0000000000015e00                Topaz_gledBlinkRateGetIntf
                0x0000000000015e10                Topaz_gledPulseStretchSetIntf
                0x0000000000015e20                Topaz_gledPulseStretchGetIntf
                0x0000000000015e30                Topaz_gledSpecialModeSetIntf
                0x0000000000015e40                Topaz_gledSpecialModeGetIntf
                0x0000000000015e50                Topaz_gledCtrlSetIntf
                0x0000000000015e60                Topaz_gledCtrlGetIntf
 *(.gnu.warning)

.text.unlikely  0x0000000000000000       0x1e
 .text.unlikely
                0x0000000000000000       0x1e /home/roscube/Desktop/UMSD_v7.0.0_ADLINK/UMSD_v7.0.0/obj/dev/topaz/src/api/msdDrv_obj/api.o

.fini
 *(SORT_NONE(.fini))

.rodata         0x0000000000000000     0x1360
 *(.rodata)
 .rodata        0x0000000000000000     0x1360 /home/roscube/Desktop/UMSD_v7.0.0_ADLINK/UMSD_v7.0.0/obj/dev/topaz/src/api/msdDrv_obj/api.o

.rodata.str1.8  0x0000000000000000      0x585
 .rodata.str1.8
                0x0000000000000000      0x585 /home/roscube/Desktop/UMSD_v7.0.0_ADLINK/UMSD_v7.0.0/obj/dev/topaz/src/api/msdDrv_obj/api.o

.rodata.str1.1  0x0000000000000000      0xa82
 .rodata.str1.1
                0x0000000000000000      0xa82 /home/roscube/Desktop/UMSD_v7.0.0_ADLINK/UMSD_v7.0.0/obj/dev/topaz/src/api/msdDrv_obj/api.o

.rodata.cst8    0x0000000000000000       0x28
 .rodata.cst8   0x0000000000000000       0x28 /home/roscube/Desktop/UMSD_v7.0.0_ADLINK/UMSD_v7.0.0/obj/dev/topaz/src/api/msdDrv_obj/api.o

.rodata1
 *(.rodata1)

.eh_frame_hdr
 *(.eh_frame_hdr)

.eh_frame       0x0000000000000000     0x56f0
 *(.eh_frame)
 .eh_frame      0x0000000000000000      0x5b8 /home/roscube/Desktop/UMSD_v7.0.0_ADLINK/UMSD_v7.0.0/obj/dev/topaz/src/driver/msdDrv_obj/driver.o
                                        0x5b4 (size before relaxing)
 *fill*         0x00000000000005b8        0x0 
 .eh_frame      0x00000000000005b8     0x5138 /home/roscube/Desktop/UMSD_v7.0.0_ADLINK/UMSD_v7.0.0/obj/dev/topaz/src/api/msdDrv_obj/api.o
                                       0x515c (size before relaxing)

.gcc_except_table
 *(.gcc_except_table)

.gnu_extab
 *(.gnu_extab*)

.exception_ranges
 *(.exception_ranges)

.eh_frame
 *(.eh_frame)

.gnu_extab
 *(.gnu_extab)

.gcc_except_table
 *(.gcc_except_table)

.exception_ranges
 *(.exception_ranges)

.tdata
 *(.tdata)

.tbss
 *(.tbss)

.jcr
 *(.jcr)

.dynamic
 *(.dynamic)

.got
 *(.got)

.got.plt
 *(.got.plt)

.data           0x0000000000000000      0x180
 *(.data)
 .data          0x0000000000000000        0x0 /home/roscube/Desktop/UMSD_v7.0.0_ADLINK/UMSD_v7.0.0/obj/dev/topaz/src/driver/msdDrv_obj/driver.o
 .data          0x0000000000000000      0x180 /home/roscube/Desktop/UMSD_v7.0.0_ADLINK/UMSD_v7.0.0/obj/dev/topaz/src/api/msdDrv_obj/api.o

.data1
 *(.data1)

.bss            0x0000000000000000        0x0
 *(.bss)
 .bss           0x0000000000000000        0x0 /home/roscube/Desktop/UMSD_v7.0.0_ADLINK/UMSD_v7.0.0/obj/dev/topaz/src/driver/msdDrv_obj/driver.o
 .bss           0x0000000000000000        0x0 /home/roscube/Desktop/UMSD_v7.0.0_ADLINK/UMSD_v7.0.0/obj/dev/topaz/src/api/msdDrv_obj/api.o

.lbss
 *(.lbss)

.lrodata
 *(.lrodata)

.ldata
 *(.ldata)

.stab
 *(.stab)

.stabstr
 *(.stabstr)

.stab.excl
 *(.stab.excl)

.stab.exclstr
 *(.stab.exclstr)

.stab.index
 *(.stab.index)

.stab.indexstr
 *(.stab.indexstr)

.comment        0x0000000000000000      0x630
 *(.comment)
 .comment       0x0000000000000000       0x2c /home/roscube/Desktop/UMSD_v7.0.0_ADLINK/UMSD_v7.0.0/obj/dev/topaz/src/driver/msdDrv_obj/driver.o
 .comment       0x000000000000002c      0x604 /home/roscube/Desktop/UMSD_v7.0.0_ADLINK/UMSD_v7.0.0/obj/dev/topaz/src/api/msdDrv_obj/api.o

.note.GNU-stack
                0x0000000000000000        0x0
 .note.GNU-stack
                0x0000000000000000        0x0 /home/roscube/Desktop/UMSD_v7.0.0_ADLINK/UMSD_v7.0.0/obj/dev/topaz/src/driver/msdDrv_obj/driver.o
 .note.GNU-stack
                0x0000000000000000        0x0 /home/roscube/Desktop/UMSD_v7.0.0_ADLINK/UMSD_v7.0.0/obj/dev/topaz/src/api/msdDrv_obj/api.o

.gnu.build.attributes
 *(.gnu.build.attributes)

.debug
 *(.debug)

.line
 *(.line)

.debug_srcinfo
 *(.debug_srcinfo)

.debug_sfnames
 *(.debug_sfnames)

.debug_aranges
 *(.debug_aranges)

.debug_pubnames
 *(.debug_pubnames)

.debug_info
 *(.debug_info)

.debug_abbrev
 *(.debug_abbrev)

.debug_line
 *(.debug_line)

.debug_frame
 *(.debug_frame)

.debug_str
 *(.debug_str)

.debug_loc
 *(.debug_loc)

.debug_macinfo
 *(.debug_macinfo)

.debug_weaknames
 *(.debug_weaknames)

.debug_funcnames
 *(.debug_funcnames)

.debug_typenames
 *(.debug_typenames)

.debug_varnames
 *(.debug_varnames)

.debug_pubtypes
 *(.debug_pubtypes)

.debug_ranges
 *(.debug_ranges)

.debug_addr
 *(.debug_addr)

.debug_line_str
 *(.debug_line_str)

.debug_loclists
 *(.debug_loclists)

.debug_macro
 *(.debug_macro)

.debug_names
 *(.debug_names)

.debug_rnglists
 *(.debug_rnglists)

.debug_str_offsets
 *(.debug_str_offsets)

.debug_sup
 *(.debug_sup)

.gnu.attributes
 *(.gnu.attributes)
OUTPUT(/home/roscube/Desktop/UMSD_v7.0.0_ADLINK/UMSD_v7.0.0/obj/dev/topaz/msdDrv_Topaz.o elf64-x86-64)
