
Merging program properties


Discarded input sections

 .note.gnu.property
                0x0000000000000000       0x20 /home/roscube/Desktop/UMSD_v7.0.0_ADLINK/UMSD_v7.0.0/obj/dev/bonsaiz1/src/api/msdDrv_obj/api.o

Memory Configuration

Name             Origin             Length             Attributes
*default*        0x0000000000000000 0xffffffffffffffff

Linker script and memory map

LOAD /home/roscube/Desktop/UMSD_v7.0.0_ADLINK/UMSD_v7.0.0/obj/dev/bonsaiz1/src/driver/msdDrv_obj/driver.o
LOAD /home/roscube/Desktop/UMSD_v7.0.0_ADLINK/UMSD_v7.0.0/obj/dev/bonsaiz1/src/api/msdDrv_obj/api.o

.interp
 *(.interp)

.note.gnu.property
                0x0000000000000000       0x20
 .note.gnu.property
                0x0000000000000000       0x20 /home/roscube/Desktop/UMSD_v7.0.0_ADLINK/UMSD_v7.0.0/obj/dev/bonsaiz1/src/driver/msdDrv_obj/driver.o

.note.gnu.build-id
 *(.note.gnu.build-id)

.hash
 *(.hash)

.gnu.hash
 *(.gnu.hash)

.dynsym
 *(.dynsym)

.dynstr
 *(.dynstr)

.gnu.version
 *(.gnu.version)

.gnu.version_d
 *(.gnu.version_d)

.gnu.version_r
 *(.gnu.version_r)

.rela.init
 *(.rela.init)

.rela.text
 *(.rela.text)

.rela.fini
 *(.rela.fini)

.rela.rodata
 *(.rela.rodata)

.rela.data.rel.ro
 *(.rela.data.rel.ro)

.rela.data
 *(.rela.data)

.rela.tdata
 *(.rela.tdata)

.rela.tbss
 *(.rela.tbss)

.rela.ctors
 *(.rela.ctors)

.rela.dtors
 *(.rela.dtors)

.rela.got
 *(.rela.got)

.rela.bss
 *(.rela.bss)

.rela.ldata
 *(.rela.ldata)

.rela.lbss
 *(.rela.lbss)

.rela.lrodata
 *(.rela.lrodata)

.rela.ifunc
 *(.rela.ifunc)

.rela.plt
 *(.rela.plt)

.relr.dyn
 *(.relr.dyn)

.init
 *(SORT_NONE(.init))

.plt
 *(.plt)

.plt.got
 *(.plt.got)

.plt.sec
 *(.plt.sec)

.text           0x0000000000000000    0x256e9
 *(.text .stub)
 .text          0x0000000000000000     0x1af7 /home/roscube/Desktop/UMSD_v7.0.0_ADLINK/UMSD_v7.0.0/obj/dev/bonsaiz1/src/driver/msdDrv_obj/driver.o
                0x0000000000000000                BonsaiZ1_msdSetSMIC45PhyReg
                0x00000000000002a0                BonsaiZ1_msdGetSMIC45PhyReg
                0x0000000000000560                BonsaiZ1_msdSetSMIPhyReg
                0x00000000000006e0                BonsaiZ1_msdGetSMIPhyReg
                0x00000000000008f0                BonsaiZ1_msdSetSMIPhyRegField
                0x00000000000009e0                BonsaiZ1_msdGetSMIPhyRegField
                0x0000000000000a80                BonsaiZ1_msdSetPagedPhyRegField
                0x0000000000000b00                BonsaiZ1_msdGetPagedPhyRegField
                0x0000000000000bd0                BonsaiZ1_msdWritePagedPhyReg
                0x0000000000000c30                BonsaiZ1_msdReadPagedPhyReg
                0x0000000000000c90                BonsaiZ1_msdSetSMIPhyXMDIOReg
                0x0000000000000da0                BonsaiZ1_msdGetSMIPhyXMDIOReg
                0x0000000000000ee0                BonsaiZ1_msdPhyReset
                0x00000000000010a0                BonsaiZ1_msdDirectSetMultiChipReg
                0x00000000000010c0                BonsaiZ1_msdDirectGetMultiChipReg
                0x00000000000010e0                BonsaiZ1_msdDirectSetMultiChipRegField
                0x00000000000011b0                BonsaiZ1_msdDirectGetMultiChipRegField
                0x0000000000001250                BonsaiZ1_msdDirectSetMultiChipExtendedReg
                0x00000000000012a0                BonsaiZ1_msdDirectGetMultiChipExtendedReg
                0x0000000000001320                BonsaiZ1_msdDirectSetMultiChipExtendedRegField
                0x00000000000013f0                BonsaiZ1_msdDirectGetMultiChipExtendedRegField
                0x0000000000001480                BonsaiZ1_msdSetSMIExtPhyReg
                0x0000000000001600                BonsaiZ1_msdGetSMIExtPhyReg
                0x0000000000001810                BonsaiZ1_msdWritePagedExtPhyReg
                0x0000000000001870                BonsaiZ1_msdReadPagedExtPhyReg
                0x00000000000018d0                BonsaiZ1_msdSetSMIExtPhyXMDIOReg
                0x00000000000019c0                BonsaiZ1_msdGetSMIExtPhyXMDIOReg
 *fill*         0x0000000000001af7        0x9 
 .text          0x0000000000001b00    0x23be9 /home/roscube/Desktop/UMSD_v7.0.0_ADLINK/UMSD_v7.0.0/obj/dev/bonsaiz1/src/api/msdDrv_obj/api.o
                0x0000000000003300                BonsaiZ1_gtcamFlushAll
                0x0000000000003350                BonsaiZ1_gtcamFlushEntry
                0x00000000000033b0                BonsaiZ1_gtcamLoadEntry
                0x0000000000003440                BonsaiZ1_gtcamReadTCAMData
                0x00000000000034c0                BonsaiZ1_gtcamGetNextTCAMData
                0x0000000000003560                BonsaiZ1_gtcamFindEntry
                0x0000000000003630                BonsaiZ1_gtcamSetMode
                0x0000000000003690                BonsaiZ1_gtcamGetMode
                0x0000000000003720                BonsaiZ1_gtcamAddEntryPort
                0x0000000000003810                BonsaiZ1_gtcamRemoveEntryPort
                0x0000000000003910                BonsaiZ1_gtcamEgrFlushEntry
                0x0000000000003990                BonsaiZ1_gtcamEgrFlushEntryAllPorts
                0x00000000000039f0                BonsaiZ1_gtcamEgrLoadEntry
                0x0000000000003bc0                BonsaiZ1_gtcamEgrGetNextTCAMData
                0x0000000000003c90                BonsaiZ1_gtcamEgrReadTCAMData
                0x0000000000003d50                BonsaiZ1_gtcamDump
                0x00000000000043d0                BonsaiZ1_gtcamAdvConfig
                0x0000000000005670                BonsaiZ1_gtcamRCFlushAllEntry
                0x0000000000005730                BonsaiZ1_gtcamRCFlushEntry
                0x0000000000005810                BonsaiZ1_gtcamRCLoadEntry
                0x0000000000005af0                BonsaiZ1_gtcamRCReadEntry
                0x0000000000005bf0                BonsaiZ1_gtcamRCGetNextEntry
                0x0000000000005d30                BonsaiZ1_gtcamRCFindEntry
                0x0000000000005e80                BonsaiZ1_gtcamRCEntryDump
                0x0000000000006830                BonsaiZ1_gtcamRCCompFlushAll
                0x00000000000068f0                BonsaiZ1_gtcamRCCompFlushPort
                0x00000000000069d0                BonsaiZ1_gtcamRCCompLoad
                0x0000000000006c30                BonsaiZ1_gtcamRCCompRead
                0x0000000000008060                BonsaiZ1_gfdbGetAtuEntryNext
                0x0000000000008080                BonsaiZ1_gfdbFlush
                0x00000000000080f0                BonsaiZ1_gfdbFlushInDB
                0x0000000000008170                BonsaiZ1_gfdbMove
                0x0000000000008260                BonsaiZ1_gfdbMoveInDB
                0x0000000000008350                BonsaiZ1_gfdbAddMacEntry
                0x0000000000008420                BonsaiZ1_gfdbDelAtuEntry
                0x00000000000084b0                BonsaiZ1_gfdbGetViolation
                0x00000000000085e0                BonsaiZ1_gfdbFindAtuMacEntry
                0x0000000000008710                BonsaiZ1_gfdbSetAgingTimeout
                0x0000000000008790                BonsaiZ1_gfdbGetAgingTimeout
                0x0000000000008820                BonsaiZ1_gfdbGetLearn2All
                0x00000000000088c0                BonsaiZ1_gfdbSetLearn2All
                0x0000000000008910                BonsaiZ1_gfdbSetPortLearnLimit
                0x0000000000008a80                BonsaiZ1_gfdbGetPortLearnLimit
                0x0000000000008b90                BonsaiZ1_gfdbGetPortLearnCount
                0x0000000000008c50                BonsaiZ1_gfdbGetEntryCount
                0x0000000000008ca0                BonsaiZ1_gfdbGetEntryCountPerFid
                0x0000000000008cf0                BonsaiZ1_gfdbGetNonStaticEntryCount
                0x0000000000008d40                BonsaiZ1_gfdbGetNStaticEntryCountFid
                0x0000000000008ff0                BonsaiZ1_gpolicySetMgmtCtrl
                0x0000000000009010                BonsaiZ1_gpolicyGetMgmtCtrl
                0x0000000000009030                BonsaiZ1_gpolicySetCpuDest
                0x00000000000090f0                BonsaiZ1_gpolicyGetCpuDest
                0x0000000000009180                BonsaiZ1_gpolicySetIgrMonitorDest
                0x0000000000009240                BonsaiZ1_gpolicyGetIgrMonitorDest
                0x00000000000092d0                BonsaiZ1_gpolicySetRsvd2CpuEnables
                0x0000000000009320                BonsaiZ1_gpolicyGetRsvd2CpuEnables
                0x00000000000093c0                BonsaiZ1_gpolicySetMGMTPri
                0x0000000000009460                BonsaiZ1_gpolicyGetMGMTPri
                0x00000000000094c0                BonsaiZ1_gpolicySetRouteDest
                0x0000000000009580                BonsaiZ1_gpolicyGetRouteDest
                0x0000000000009610                BonsaiZ1_gpolicySetMirrorDest
                0x00000000000096d0                BonsaiZ1_gpolicyGetMirrorDest
                0x0000000000009760                BonsaiZ1_gpolicySetIllegalIPAddr
                0x0000000000009800                BonsaiZ1_gpolicyGetIllegalIPAddr
                0x0000000000009860                BonsaiZ1_gpolicySetDipDaMismatch
                0x0000000000009900                BonsaiZ1_gpolicyGetDipDaMismatch
                0x0000000000009960                BonsaiZ1_gpolicySetZeroSIP
                0x0000000000009a00                BonsaiZ1_gpolicyGetZeroSIP
                0x0000000000009a60                BonsaiZ1_gpolicySetMcTtlExceeded
                0x0000000000009b30                BonsaiZ1_gpolicyGetMcTtlExceeded
                0x0000000000009c00                BonsaiZ1_gpolicySetUcTtlExceeded
                0x0000000000009cc0                BonsaiZ1_gpolicyGetUcTtlExceeded
                0x0000000000009d20                BonsaiZ1_gprtSetPortTtlThreshold
                0x0000000000009db0                BonsaiZ1_gprtGetPortTtlThreshold
                0x0000000000009e10                BonsaiZ1_gpolicySetIpHdrErr
                0x0000000000009eb0                BonsaiZ1_gpolicyGetIpHdrErr
                0x0000000000009f10                BonsaiZ1_gpolicySetTCPFinUrgPsh
                0x0000000000009fb0                BonsaiZ1_gpolicyGetTCPFinUrgPsh
                0x000000000000a010                BonsaiZ1_gpolicySetTCPFlagsSeqNum
                0x000000000000a0b0                BonsaiZ1_gpolicyGetTCPFlagsSeqNum
                0x000000000000a110                BonsaiZ1_gpolicySetTCPSYN
                0x000000000000a1b0                BonsaiZ1_gpolicyGetTCPSYN
                0x000000000000a210                BonsaiZ1_gpolicySetTCPHSize
                0x000000000000a2b0                BonsaiZ1_gpolicyGetTCPHSize
                0x000000000000a310                BonsaiZ1_gprtSetPortTCPMinHdrSize
                0x000000000000a3a0                BonsaiZ1_gprtGetPortTCPMinHdrSize
                0x000000000000a400                BonsaiZ1_gpolicySetICMPSize
                0x000000000000a4a0                BonsaiZ1_gpolicyGetICMPSize
                0x000000000000a500                BonsaiZ1_gprtSetPortICMPMaxSize
                0x000000000000a550                BonsaiZ1_gprtGetPortICMPMaxSize
                0x000000000000a5e0                BonsaiZ1_gpolicySetUDPPort
                0x000000000000a680                BonsaiZ1_gpolicyGetUDPPort
                0x000000000000a6e0                BonsaiZ1_gpolicySetTCPPort
                0x000000000000a780                BonsaiZ1_gpolicyGetTCPPort
                0x000000000000a7e0                BonsaiZ1_gpolicySetTCPSynFin
                0x000000000000a880                BonsaiZ1_gpolicyGetTCPSynFin
                0x000000000000a8e0                BonsaiZ1_gpolicySetTCPFrag
                0x000000000000a980                BonsaiZ1_gpolicyGetTCPFrag
                0x000000000000a9e0                BonsaiZ1_gpolicySetNearNonTPMR
                0x000000000000aa80                BonsaiZ1_gpolicyGetNearNonTPMR
                0x000000000000aae0                BonsaiZ1_gpolicySetETag
                0x000000000000ab80                BonsaiZ1_gpolicyGetETag
                0x000000000000abe0                BonsaiZ1_gpolicySetNonETag
                0x000000000000ac80                BonsaiZ1_gpolicyGetNonETag
                0x000000000000ace0                BonsaiZ1_gpolicyDump
                0x000000000000fa20                BonsaiZ1_gvtuGetEntryNext
                0x000000000000fb90                BonsaiZ1_gvtuFindVidEntry
                0x000000000000fd50                BonsaiZ1_gvtuFlush
                0x000000000000fd70                BonsaiZ1_gvtuAddEntry
                0x000000000000fec0                BonsaiZ1_gvtuDelEntry
                0x000000000000ff40                BonsaiZ1_gvtuSetMode
                0x00000000000100c0                BonsaiZ1_gvtuGetMode
                0x0000000000010260                BonsaiZ1_gvtuGetViolation_MultiChip
                0x0000000000010370                BonsaiZ1_gvtuGetViolation
                0x00000000000104e0                BonsaiZ1_gvtuDump
                0x0000000000010c60                BonsaiZ1_garpLoadMcEntry
                0x0000000000010d80                BonsaiZ1_garpLoadUcEntry
                0x0000000000010e40                BonsaiZ1_garpFlushEntry
                0x0000000000010ea0                BonsaiZ1_garpFlushAll
                0x0000000000010ef0                BonsaiZ1_garpReadEntry
                0x0000000000010f70                BonsaiZ1_garpGetNextEntry
                0x0000000000011430                BonsaiZ1_gstuGetEntryNext
                0x0000000000011530                BonsaiZ1_gstuAddEntry
                0x0000000000011600                BonsaiZ1_gstuDelEntry
                0x0000000000011660                BonsaiZ1_gstuFindSidEntry
                0x0000000000011770                BonsaiZ1_gstuDump
                0x0000000000011ce0                BonsaiZ1_gpirlInitialize
                0x0000000000011d00                BonsaiZ1_gpirlInitResource
                0x0000000000011d80                BonsaiZ1_gpirlCustomSetup_sr2c
                0x0000000000011f70                BonsaiZ1_gpirlReadResource
                0x0000000000012140                BonsaiZ1_gpirlWriteResource
                0x00000000000122e0                BonsaiZ1_gpirlGetResReg
                0x0000000000012380                BonsaiZ1_gpirlSetResReg
                0x0000000000012a60                BonsaiZ1_gstatsFlushAll
                0x0000000000012a80                BonsaiZ1_gstatsFlushPort
                0x0000000000012ac0                BonsaiZ1_gstatsGetPortCounter
                0x0000000000012b20                BonsaiZ1_gstatsGetPortAllCounters
                0x0000000000012b70                BonsaiZ1_gstatsGetHistogramMode
                0x0000000000012c30                BonsaiZ1_gstatsSetHistogramMode
                0x0000000000012c70                BonsaiZ1_gmibDump
                0x0000000000013790                BonsaiZ1_gvlnSetPortVid
                0x00000000000137f0                BonsaiZ1_gvlnGetPortVid
                0x0000000000013880                BonsaiZ1_gprtSetForceDefaultVid
                0x00000000000138e0                BonsaiZ1_gprtGetForceDefaultVid
                0x0000000000013980                BonsaiZ1_gvlnSetPortVlanDot1qMode
                0x00000000000139e0                BonsaiZ1_gvlnGetPortVlanDot1qMode
                0x0000000000013a70                BonsaiZ1_gprtSetDiscardTagged
                0x0000000000013ad0                BonsaiZ1_gprtGetDiscardTagged
                0x0000000000013b70                BonsaiZ1_gprtSetDiscardUntagged
                0x0000000000013bd0                BonsaiZ1_gprtGetDiscardUntagged
                0x0000000000013c70                BonsaiZ1_gprtSetUnicastFloodBlock
                0x0000000000013cd0                BonsaiZ1_gprtGetUnicastFloodBlock
                0x0000000000013d70                BonsaiZ1_gprtSetMulticastFloodBlock
                0x0000000000013dd0                BonsaiZ1_gprtGetMulticastFloodBlock
                0x0000000000013e70                BonsaiZ1_gprtSetDiscardBCastMode
                0x0000000000013ed0                BonsaiZ1_gprtGetDiscardBCastMode
                0x0000000000013f70                BonsaiZ1_gprtSetIGMPSnoopEnable
                0x0000000000013fd0                BonsaiZ1_gprtGetIGMPSnoopEnable
                0x0000000000014070                BonsaiZ1_gprtGetHeaderMode
                0x0000000000014110                BonsaiZ1_gprtSetHeaderMode
                0x0000000000014170                BonsaiZ1_gprtGetDropOnLock
                0x0000000000014210                BonsaiZ1_gprtSetDropOnLock
                0x0000000000014270                BonsaiZ1_gprtSetJumboMode
                0x00000000000142e0                BonsaiZ1_gprtGetJumboMode
                0x0000000000014370                BonsaiZ1_gprtSetSpecifiedMTU
                0x00000000000143f0                BonsaiZ1_gprtGetSpecifiedMTU
                0x0000000000014480                BonsaiZ1_gprtSetLearnEnable
                0x0000000000014580                BonsaiZ1_gprtGetLearnEnable
                0x0000000000014610                BonsaiZ1_gprtGetVTUPriorityOverride
                0x00000000000146a0                BonsaiZ1_gprtSetVTUPriorityOverride
                0x0000000000014700                BonsaiZ1_gprtGetSAPriorityOverride
                0x0000000000014790                BonsaiZ1_gprtSetSAPriorityOverride
                0x00000000000147f0                BonsaiZ1_gprtGetDAPriorityOverride
                0x0000000000014880                BonsaiZ1_gprtSetDAPriorityOverride
                0x00000000000148e0                BonsaiZ1_gprtGetMessagePort
                0x0000000000014980                BonsaiZ1_gprtSetMessagePort
                0x00000000000149e0                BonsaiZ1_gprtGetEtherType
                0x0000000000014a00                BonsaiZ1_gprtSetEtherType
                0x0000000000014a20                BonsaiZ1_gprtGetAllowVidZero
                0x0000000000014ac0                BonsaiZ1_gprtSetAllowVidZero
                0x0000000000014b20                BonsaiZ1_gprtSetTrunkPort
                0x0000000000014be0                BonsaiZ1_gprtGetTrunkPort
                0x0000000000014cc0                BonsaiZ1_gprtSetFlowCtrl
                0x0000000000014d70                BonsaiZ1_gprtGetFlowCtrl
                0x0000000000014de0                BonsaiZ1_gprtSetEgressMonitorSource
                0x0000000000014e40                BonsaiZ1_gprtGetEgressMonitorSource
                0x0000000000014ee0                BonsaiZ1_gprtSetIngressMonitorSource
                0x0000000000014f40                BonsaiZ1_gprtGetIngressMonitorSource
                0x0000000000014fe0                BonsaiZ1_grcSetEgressRate
                0x0000000000015210                BonsaiZ1_grcSetELimitMode
                0x0000000000015270                BonsaiZ1_grcGetELimitMode
                0x0000000000015300                BonsaiZ1_grcGetEgressRate
                0x0000000000015440                BonsaiZ1_gprtSetDuplex
                0x00000000000154b0                BonsaiZ1_gprtGetDuplex
                0x0000000000015580                BonsaiZ1_gprtGetDuplexStatus
                0x0000000000015610                BonsaiZ1_gprtGetForceLink
                0x00000000000156e0                BonsaiZ1_gprtSetForceLink
                0x0000000000015750                BonsaiZ1_gprtGetLinkState
                0x00000000000157e0                BonsaiZ1_gprtSetForceSpeed
                0x0000000000015a20                BonsaiZ1_gprtGetForceSpeed
                0x0000000000015bc0                BonsaiZ1_gprtGetSpeed
                0x0000000000015cf0                BonsaiZ1_gprtGetVlanPorts
                0x0000000000015dd0                BonsaiZ1_gprtSetVlanPorts
                0x0000000000015f10                BonsaiZ1_gprtGetFrameMode
                0x0000000000015fa0                BonsaiZ1_gprtSetFrameMode
                0x0000000000016000                BonsaiZ1_gprtSetPortECID
                0x00000000000160a0                BonsaiZ1_gprtGetPortECID
                0x0000000000016100                BonsaiZ1_gprtSetIgnoreETag
                0x0000000000016190                BonsaiZ1_gprtGetIgnoreETag
                0x00000000000161f0                BonsaiZ1_gprtSetEgressMode
                0x0000000000016250                BonsaiZ1_gprtGetEgressMode
                0x00000000000162e0                BonsaiZ1_gprtSetExtendedPortCtrlReg
                0x00000000000163c0                BonsaiZ1_gprtGetExtendedPortCtrlReg
                0x0000000000016460                BonsaiZ1_gprtGetPortState
                0x00000000000164f0                BonsaiZ1_gprtSetPortState
                0x0000000000016550                BonsaiZ1_gprtSetIgnoreFcs
                0x00000000000165b0                BonsaiZ1_gprtGetIgnoreFcs
                0x0000000000016650                BonsaiZ1_gprtSetAllowBadFcs
                0x00000000000166b0                BonsaiZ1_gprtGetAllowBadFcs
                0x0000000000016750                BonsaiZ1_gprtSetPauseLimitOut
                0x00000000000167a0                BonsaiZ1_gprtGetPauseLimitOut
                0x00000000000167f0                BonsaiZ1_gprtSetPauseLimitIn
                0x0000000000016830                BonsaiZ1_gprtGetPauseLimitIn
                0x0000000000016880                BonsaiZ1_gprtSetQueueToPause
                0x00000000000168d0                BonsaiZ1_gprtGetQueueToPause
                0x0000000000016920                BonsaiZ1_gprtSetRxPriFlowCtrlEnable
                0x0000000000016a10                BonsaiZ1_gprtGetRxPriFlowCtrlEnable
                0x0000000000016ac0                BonsaiZ1_gprtSetRxPriFlowCtrlToQueue
                0x0000000000016bb0                BonsaiZ1_gprtGetRxPriFlowCtrlToQueue
                0x0000000000016c50                BonsaiZ1_gprtSetTxPriFlowCtrlEnable
                0x0000000000016d40                BonsaiZ1_gprtGetTxPriFlowCtrlEnable
                0x0000000000016df0                BonsaiZ1_gprtGetOutQueueSize
                0x0000000000016e80                BonsaiZ1_gprtSetMapDA
                0x0000000000016ee0                BonsaiZ1_gprtGetMapDA
                0x0000000000016f80                BonsaiZ1_gprtSetPortLocked
                0x0000000000016fe0                BonsaiZ1_gprtGetPortLocked
                0x0000000000017080                BonsaiZ1_gprtSetHoldAt1
                0x00000000000170e0                BonsaiZ1_gprtGetHoldAt1
                0x0000000000017180                BonsaiZ1_gprtSetInt0nAgeOut
                0x00000000000171e0                BonsaiZ1_gprtGetInt0nAgeOut
                0x0000000000017280                BonsaiZ1_gprtSetRefreshLocked
                0x00000000000172e0                BonsaiZ1_gprtGetRefreshLocked
                0x0000000000017380                BonsaiZ1_gprtSetIgnoreWrongData
                0x00000000000173e0                BonsaiZ1_gprtGetIgnoreWrongData
                0x0000000000017480                BonsaiZ1_gprtSetARPMirror
                0x00000000000174e0                BonsaiZ1_gprtGetARPMirror
                0x0000000000017580                BonsaiZ1_gprtSetPreemptSize
                0x00000000000175e0                BonsaiZ1_gprtGetPreemptSize
                0x0000000000017680                BonsaiZ1_gprtSetPreemptEnable
                0x00000000000176e0                BonsaiZ1_gprtGetPreemptEnable
                0x0000000000017780                BonsaiZ1_gprtSetPreemptQueue
                0x00000000000177e0                BonsaiZ1_gprtGetPreemptQueue
                0x0000000000017880                BonsaiZ1_gprtRegDump
                0x00000000000183f0                BonsaiZ1_gBpeEnableSet
                0x0000000000018540                BonsaiZ1_gBpeEnableGet
                0x00000000000185e0                BonsaiZ1_gecidAddEntry
                0x0000000000018620                BonsaiZ1_gecidFlushAll
                0x0000000000018690                BonsaiZ1_gecidMove
                0x0000000000018750                BonsaiZ1_gecidFlushEntry
                0x00000000000187e0                BonsaiZ1_gecidGetEcidEntryNext
                0x0000000000018860                BonsaiZ1_gecidFindEcidEntry
                0x0000000000018960                BonsaiZ1_gecidGetEntryCount
                0x0000000000018c50                BonsaiZ1_gecidDump
                0x0000000000018dc0                BonsaiZ1_gqosSetPrioMapRule
                0x0000000000018e20                BonsaiZ1_gqosGetPrioMapRule
                0x0000000000018ec0                BonsaiZ1_gprtSetInitialPri
                0x0000000000018f30                BonsaiZ1_gprtGetInitialPri
                0x0000000000019000                BonsaiZ1_gprtSetDefQpri
                0x0000000000019060                BonsaiZ1_gprtGetDefQpri
                0x0000000000019100                BonsaiZ1_gprtSetIEEEPrioMap
                0x0000000000019310                BonsaiZ1_gprtGetIEEEPrioMap
                0x0000000000019530                BonsaiZ1_gprtRewriteDscp
                0x0000000000019590                BonsaiZ1_gprtSetCosToQueue
                0x0000000000019620                BonsaiZ1_gprtGetCosToQueue
                0x0000000000019680                BonsaiZ1_gprtSetCosToDscp
                0x0000000000019710                BonsaiZ1_gprtGetCosToDscp
                0x0000000000019770                BonsaiZ1_gprtSetDefFpri
                0x00000000000197d0                BonsaiZ1_gprtGetDefFpri
                0x0000000000019870                BonsaiZ1_gprtSetQueueCtrl
                0x0000000000019980                BonsaiZ1_gprtGetQueueCtrl
                0x0000000000019ac0                BonsaiZ1_gprtSetPortSched
                0x0000000000019b10                BonsaiZ1_gprtGetPortSched
                0x0000000000019c20                BonsaiZ1_gsysSetQoSWeight
                0x0000000000019e60                BonsaiZ1_gsysGetQoSWeight
                0x000000000001a0b0                BonsaiZ1_gsysSetTrunkMaskTable
                0x000000000001a1f0                BonsaiZ1_gsysGetTrunkMaskTable
                0x000000000001a380                BonsaiZ1_gsysSetHashTrunk
                0x000000000001a3b0                BonsaiZ1_gsysGetHashTrunk
                0x000000000001a420                BonsaiZ1_gsysSetTrunkRouting
                0x000000000001a580                BonsaiZ1_gsysGetTrunkRouting
                0x000000000001a740                BonsaiZ1_gsysSetFloodBC
                0x000000000001a770                BonsaiZ1_gsysGetFloodBC
                0x000000000001a7e0                BonsaiZ1_gsysSetEgressMonitorDest
                0x000000000001a830                BonsaiZ1_gsysGetEgressMonitorDest
                0x000000000001a8d0                BonsaiZ1_gsysSetSMISetup
                0x000000000001aab0                BonsaiZ1_gsysGetSMISetup
                0x000000000001ac90                BonsaiZ1_gsysGlobal1RegDump
                0x000000000001ad60                BonsaiZ1_gsysGlobal2RegDump
                0x000000000001ae30                BonsaiZ1_gsysSetRMUMode
                0x000000000001aec0                BonsaiZ1_gsysGetRMUMode
                0x000000000001af20                BonsaiZ1_gsysQbvWrite
                0x000000000001aff0                BonsaiZ1_gsysQbvRead
                0x000000000001b0d0                BonsaiZ1_gsysDevIntEnableSet
                0x000000000001b100                BonsaiZ1_gsysDevIntEnableGet
                0x000000000001b180                BonsaiZ1_gsysDevIntStatusGet
                0x000000000001b1f0                BonsaiZ1_gsysActiveIntEnableSet
                0x000000000001b280                BonsaiZ1_gsysActiveIntEnableGet
                0x000000000001b2e0                BonsaiZ1_gsysActiveIntStatusGet
                0x000000000001b340                BonsaiZ1_serdesReset
                0x000000000001bbe0                BonsaiZ1_msdRmuGetID
                0x000000000001bd10                BonsaiZ1_msdRmuAtuDump
                0x000000000001bf30                BonsaiZ1_msdRmuEcidDump
                0x000000000001c180                BonsaiZ1_msdRmuMib2Dump
                0x000000000001c5b0                BonsaiZ1_msdRmuReadRegister
                0x000000000001c5e0                BonsaiZ1_msdRmuWriteRegister
                0x000000000001c600                BonsaiZ1_msdRmuMultiRegAccess
                0x000000000001c7f0                BonsaiZ1_msdRmuTCAMDump
                0x000000000001c960                BonsaiZ1_msdRmuTCAMWrite
                0x000000000001cb10                BonsaiZ1_msdRmuTCAMRead
                0x000000000001ccc0                BonsaiZ1_msdRmuRegDump
                0x000000000001cd90                BonsaiZ1_gtcamLoadEntryIntf
                0x000000000001cf60                BonsaiZ1_gtcamReadTCAMDataIntf
                0x000000000001d150                BonsaiZ1_gtcamGetNextTCAMDataIntf
                0x000000000001d340                BonsaiZ1_gtcamFindEntryIntf
                0x000000000001d570                BonsaiZ1_gtcamSetModeIntf
                0x000000000001d580                BonsaiZ1_gtcamGetModeIntf
                0x000000000001d5e0                BonsaiZ1_gtcamEgrFlushEntryIntf
                0x000000000001d5f0                BonsaiZ1_gtcamEgrFlushAllPortsIntf
                0x000000000001d600                BonsaiZ1_gtcamEgrLoadEntryIntf
                0x000000000001d6c0                BonsaiZ1_gtcamEgrGetNextTCAMDataIntf
                0x000000000001d7a0                BonsaiZ1_gtcamEgrReadTCAMDataIntf
                0x000000000001d880                BonsaiZ1_gtcamAdvConfigIntf
                0x000000000001da40                BonsaiZ1_gfdbAddMacEntryIntf
                0x000000000001dac0                BonsaiZ1_gfdbGetAtuEntryNextIntf
                0x000000000001dba0                BonsaiZ1_gfdbFlushIntf
                0x000000000001dbb0                BonsaiZ1_gfdbFlushInDBIntf
                0x000000000001dbc0                BonsaiZ1_gfdbMoveIntf
                0x000000000001dbd0                BonsaiZ1_gfdbMoveInDBIntf
                0x000000000001dbe0                BonsaiZ1_gfdbPortRemoveIntf
                0x000000000001dc10                BonsaiZ1_gfdbPortRemoveInDBIntf
                0x000000000001dc40                BonsaiZ1_gfdbGetViolationIntf
                0x000000000001dd20                BonsaiZ1_gfdbFindAtuMacEntryIntf
                0x000000000001de10                BonsaiZ1_gfdbDump
                0x000000000001dfc0                BonsaiZ1_gvtuFindVidEntryIntf
                0x000000000001e130                BonsaiZ1_gvtuExistVidEntryIntf
                0x000000000001e1d0                BonsaiZ1_gvtuFlushIntf
                0x000000000001e1e0                BonsaiZ1_gvtuAddEntryIntf
                0x000000000001e300                BonsaiZ1_gvtuDelEntryIntf
                0x000000000001e380                BonsaiZ1_gvtuSetModeIntf
                0x000000000001e390                BonsaiZ1_gvtuGetModeIntf
                0x000000000001e3a0                BonsaiZ1_gvtuGetViolationIntf
                0x000000000001e460                BonsaiZ1_gvtuGetEntryCountIntf
                0x000000000001e510                BonsaiZ1_gvtuSetMemberTagIntf
                0x000000000001e600                BonsaiZ1_gvtuGetMemberTagIntf
                0x000000000001e6e0                BonsaiZ1_gvtuGetEntryNextIntf
                0x000000000001e810                BonsaiZ1_gstuAddEntryIntf
                0x000000000001e8e0                BonsaiZ1_gstuGetEntryNextIntf
                0x000000000001e990                BonsaiZ1_gstuDelEntryIntf
                0x000000000001e9f0                BonsaiZ1_gstuFindSidEntryIntf
                0x000000000001eb00                BonsaiZ1_gstuGetEntryCountIntf
                0x000000000001eba0                BonsaiZ1_gpirlInitializeIntf
                0x000000000001ebb0                BonsaiZ1_gpirlInitResourceIntf
                0x000000000001ebc0                BonsaiZ1_gpirlCustomSetup_sr2cIntf
                0x000000000001ec80                BonsaiZ1_gpirlReadResourceIntf
                0x000000000001ed60                BonsaiZ1_gpirlWriteResourceIntf
                0x000000000001ee20                BonsaiZ1_gpirlGetResRegIntf
                0x000000000001ee30                BonsaiZ1_gpirlSetResRegIntf
                0x000000000001ee40                BonsaiZ1_gpirlAdvConfigIntf
                0x000000000001ef40                BonsaiZ1_gpirlAdvConfigDisableIntf
                0x000000000001f370                BonsaiZ1_gqavSetPortQpriXRate
                0x000000000001f4a0                BonsaiZ1_gqavGetPortQpriXRate
                0x000000000001f580                BonsaiZ1_gqavSetPortQpriXHiLimit
                0x000000000001f650                BonsaiZ1_gqavGetPortQpriXHiLimit
                0x000000000001f700                BonsaiZ1_garpLoadMcEntryIntf
                0x000000000001f760                BonsaiZ1_garpLoadUcEntryIntf
                0x000000000001f7c0                BonsaiZ1_garpReadEntryIntf
                0x000000000001f850                BonsaiZ1_garpGetNextEntryIntf
                0x000000000001f8e0                BonsaiZ1_gstatsGetPortCounterIntf
                0x000000000001f8f0                BonsaiZ1_gstatsGetPortAllCntersIntf
                0x000000000001fb00                BonsaiZ1_gstatsGetHistogramModeIntf
                0x000000000001fb10                BonsaiZ1_gstatsSetHistogramModeIntf
                0x000000000001fb20                BonsaiZ1_gvlnSetPortVlanQModeIntf
                0x000000000001fb30                BonsaiZ1_gvlnGetPortVlanQModeIntf
                0x000000000001fb40                BonsaiZ1_gprtSetDiscardTaggedIntf
                0x000000000001fb50                BonsaiZ1_gprtGetDiscardTaggedIntf
                0x000000000001fb60                BonsaiZ1_gprtSetDiscardUntaggedIntf
                0x000000000001fb70                BonsaiZ1_gprtGetDiscardUntaggedIntf
                0x000000000001fb80                BonsaiZ1_gprtSetUnicFloodBlockIntf
                0x000000000001fb90                BonsaiZ1_gprtGetUnicFloodBlockIntf
                0x000000000001fba0                BonsaiZ1_gprtSetMultiFloodBlockIntf
                0x000000000001fbb0                BonsaiZ1_gprtGetMultiFloodBlockIntf
                0x000000000001fbc0                BonsaiZ1_gprtSetDiscardBCastModeIntf
                0x000000000001fbd0                BonsaiZ1_gprtGetDiscardBCastModeIntf
                0x000000000001fbe0                BonsaiZ1_gprtSetJumboModeIntf
                0x000000000001fbf0                BonsaiZ1_gprtGetJumboModeIntf
                0x000000000001fc00                BonsaiZ1_gprtSetSpecifiedMTUIntf
                0x000000000001fc10                BonsaiZ1_gprtGetSpecifiedMTUIntf
                0x000000000001fc20                BonsaiZ1_gprtSetLearnEnableIntf
                0x000000000001fc30                BonsaiZ1_gprtGetLearnEnableIntf
                0x000000000001fc40                BonsaiZ1_gprtGetVTUPriOverrideIntf
                0x000000000001fc50                BonsaiZ1_gprtSetVTUPriOverrideIntf
                0x000000000001fc60                BonsaiZ1_gprtGetSAPriOverrideIntf
                0x000000000001fc70                BonsaiZ1_gprtSetSAPriOverrideIntf
                0x000000000001fc80                BonsaiZ1_gprtGetDAPriOverrideIntf
                0x000000000001fc90                BonsaiZ1_gprtSetDAPriOverrideIntf
                0x000000000001fca0                BonsaiZ1_gprtSetFlowCtrlIntf
                0x000000000001fcb0                BonsaiZ1_gprtGetFlowCtrlIntf
                0x000000000001fcc0                BonsaiZ1_gprtSetForceSpeedIntf
                0x000000000001fce0                BonsaiZ1_gprtGetForceSpeedIntf
                0x000000000001fcf0                BonsaiZ1_grcSetEgressRateIntf
                0x000000000001fd00                BonsaiZ1_grcGetEgressRateIntf
                0x000000000001fd10                BonsaiZ1_grcSetELimitModeIntf
                0x000000000001fd20                BonsaiZ1_grcGetELimitModeIntf
                0x000000000001fd30                BonsaiZ1_gprtSetDuplexIntf
                0x000000000001fd40                BonsaiZ1_gprtGetDuplexIntf
                0x000000000001fd50                BonsaiZ1_gprtGetDuplexStatusIntf
                0x000000000001fd60                BonsaiZ1_gprtGetForceLinkIntf
                0x000000000001fd70                BonsaiZ1_gprtSetForceLinkIntf
                0x000000000001fd80                BonsaiZ1_gprtGetSpeedIntf
                0x000000000001fd90                BonsaiZ1_gprtGetFrameModeIntf
                0x000000000001fda0                BonsaiZ1_gprtSetFrameModeIntf
                0x000000000001fdb0                BonsaiZ1_gprtSetEgressModeIntf
                0x000000000001fdd0                BonsaiZ1_gprtGetEgressModeIntf
                0x000000000001fde0                BonsaiZ1_gprtGetPortStateIntf
                0x000000000001fdf0                BonsaiZ1_gprtSetPortStateIntf
                0x000000000001fe00                BonsaiZ1_gqosSetPrioMapRuleIntf
                0x000000000001fe10                BonsaiZ1_gqosGetPrioMapRuleIntf
                0x000000000001fe20                BonsaiZ1_gprtSetInitialPriIntf
                0x000000000001fe30                BonsaiZ1_gprtGetInitialPriIntf
                0x000000000001fe40                BonsaiZ1_gprtSetDefQpriIntf
                0x000000000001fe50                BonsaiZ1_gprtGetDefQpriIntf
                0x000000000001fe60                BonsaiZ1_gprtSetIEEEPrioMapIntf
                0x000000000001fec0                BonsaiZ1_gprtGetIEEEPrioMapIntf
                0x000000000001ff80                BonsaiZ1_gecidAddEntryIntf
                0x0000000000020010                BonsaiZ1_gecidGetEcidEntryNextIntf
                0x00000000000200d0                BonsaiZ1_gecidFindEcidEntryIntf
                0x00000000000201a0                BonsaiZ1_gprtSetQueueCtrlIntf
                0x00000000000201b0                BonsaiZ1_gprtGetQueueCtrlIntf
                0x00000000000201c0                BonsaiZ1_gprtSetPortSchedIntf
                0x00000000000201d0                BonsaiZ1_gprtGetPortSchedIntf
                0x00000000000201e0                BonsaiZ1_gsysSetQoSWeightIntf
                0x00000000000202e0                BonsaiZ1_gsysGetQoSWeightIntf
                0x00000000000203e0                BonsaiZ1_gtcamRCLoadEntryIntf
                0x0000000000020500                BonsaiZ1_gtcamRCReadEntryIntf
                0x0000000000020650                BonsaiZ1_gtcamRCGetNextEntryIntf
                0x00000000000207a0                BonsaiZ1_gtcamRCFindEntryIntf
                0x0000000000020920                BonsaiZ1_msdRmuGetIDIntf
                0x0000000000020930                BonsaiZ1_msdRmuAtuDumpIntf
                0x0000000000020a90                BonsaiZ1_msdRmuEcidDumpIntf
                0x0000000000020bf0                BonsaiZ1_msdRmuMib2DumpIntf
                0x0000000000020e00                BonsaiZ1_msdRmuReadRegisterIntf
                0x0000000000020e10                BonsaiZ1_msdRmuWriteRegisterIntf
                0x0000000000020e30                BonsaiZ1_msdRmuMultiRegAccessIntf
                0x0000000000020e40                BonsaiZ1_msdRmuTCAMDumpIntf
                0x0000000000021130                BonsaiZ1_msdRmuTCAMWriteIntf
                0x0000000000021300                BonsaiZ1_msdRmuTCAMReadIntf
                0x0000000000022200                BonsaiZ1_gptpSetIntEnable
                0x00000000000222f0                BonsaiZ1_gptpGetIntEnable
                0x00000000000223a0                BonsaiZ1_gptpSetPortPTPEn
                0x0000000000022480                BonsaiZ1_gptpGetPortPTPEn
                0x0000000000022520                BonsaiZ1_gptpGetTimeStamp
                0x0000000000022650                BonsaiZ1_gptpGetTSValidSt
                0x0000000000022720                BonsaiZ1_gptpResetTimeStamp
                0x00000000000227f0                BonsaiZ1_gptpGetIntStatus
                0x00000000000228b0                BonsaiZ1_gptpSetMeanPathDelay
                0x0000000000022950                BonsaiZ1_gptpGetMeanPathDelay
                0x00000000000229f0                BonsaiZ1_gptpSetIgrPathDelayAsym
                0x0000000000022a90                BonsaiZ1_gptpGetIgrPathDelayAsym
                0x0000000000022b30                BonsaiZ1_gptpSetEgrPathDelayAsym
                0x0000000000022bd0                BonsaiZ1_gptpGetEgrPathDelayAsym
                0x0000000000022c70                BonsaiZ1_gptpGetTODBusyBitStatus
                0x0000000000022cf0                BonsaiZ1_gptpTODStoreCompensation
                0x0000000000022db0                BonsaiZ1_gptpTODStoreAll
                0x0000000000022e70                BonsaiZ1_gptpTODCaptureAll
                0x0000000000023140                BonsaiZ1_gptpSetPulse
                0x00000000000231f0                BonsaiZ1_gptpGetPulse
                0x0000000000023290                BonsaiZ1_gtaiGetPTPGlobalTime
                0x0000000000023310                BonsaiZ1_gptpPortRegGet
                0x00000000000233c0                BonsaiZ1_gptpPortRegSet
                0x0000000000023460                BonsaiZ1_gptpGlobalRegGet
                0x00000000000234d0                BonsaiZ1_gptpGlobalRegSet
                0x0000000000023540                BonsaiZ1_gptp1588v2ConfigSet
                0x0000000000023710                BonsaiZ1_gptp8021asConfigSet
                0x00000000000238d0                BonsaiZ1_gptp8021asRevConfigSet
                0x0000000000023a90                BonsaiZ1_gptpPreemptTsSelSet
                0x0000000000023b70                BonsaiZ1_gptpPreemptTsSelGet
                0x0000000000023c10                BonsaiZ1_gptpPreemptCtrlSet
                0x0000000000023cf0                BonsaiZ1_gptpPreemptCtrlGet
                0x0000000000023d90                BonsaiZ1_gptpSetIntEnableIntf
                0x0000000000023df0                BonsaiZ1_gptpGetIntEnableIntf
                0x0000000000023e50                BonsaiZ1_gptpGetTimeStampIntf
                0x0000000000023ec0                BonsaiZ1_gptpGetIntStatusIntf
                0x0000000000023f30                BonsaiZ1_gptpTODStoreCompenIntf
                0x0000000000023fb0                BonsaiZ1_gptpTODStoreAllIntf
                0x0000000000024030                BonsaiZ1_gptpTODCaptureAllIntf
                0x00000000000240c0                BonsaiZ1_gptpSetPulseIntf
                0x0000000000024120                BonsaiZ1_gptpGetPulseIntf
                0x0000000000024180                BonsaiZ1_gptp1588v2ConfigSetIntf
                0x0000000000024190                BonsaiZ1_gptp8021asConfigSetIntf
                0x00000000000241a0                BonsaiZ1_gptp8021asRevCfgSetIntf
                0x0000000000024410                BonsaiZ1_gledForceOn
                0x00000000000244d0                BonsaiZ1_gledForceOff
                0x0000000000024590                BonsaiZ1_gledLinkAct
                0x0000000000024660                BonsaiZ1_gledModeSet
                0x0000000000024730                BonsaiZ1_gledModeGet
                0x00000000000247c0                BonsaiZ1_gledBlinkRateSet
                0x0000000000024870                BonsaiZ1_gledBlinkRateGet
                0x0000000000024950                BonsaiZ1_gledPulseStretchSet
                0x0000000000024a00                BonsaiZ1_gledPulseStretchGet
                0x0000000000024ad0                BonsaiZ1_gledSpecialModeSet
                0x0000000000024b80                BonsaiZ1_gledSpecialModeGet
                0x0000000000024bf0                BonsaiZ1_gledCtrlSet
                0x0000000000024c30                BonsaiZ1_gledCtrlGet
                0x0000000000024ca0                BonsaiZ1_gledDump
                0x0000000000024f70                BonsaiZ1_gledForceOnIntf
                0x0000000000024f80                BonsaiZ1_gledForceOffIntf
                0x0000000000024f90                BonsaiZ1_gledLinkActIntf
                0x0000000000024fa0                BonsaiZ1_gledModeSetIntf
                0x0000000000024fb0                BonsaiZ1_gledModeGetIntf
                0x0000000000024fc0                BonsaiZ1_gledBlinkRateSetIntf
                0x0000000000024fd0                BonsaiZ1_gledBlinkRateGetIntf
                0x0000000000024fe0                BonsaiZ1_gledPulseStretchSetIntf
                0x0000000000024ff0                BonsaiZ1_gledPulseStretchGetIntf
                0x0000000000025000                BonsaiZ1_gledSpecialModeSetIntf
                0x0000000000025010                BonsaiZ1_gledSpecialModeGetIntf
                0x0000000000025020                BonsaiZ1_gledCtrlSetIntf
                0x0000000000025030                BonsaiZ1_gledCtrlGetIntf
                0x0000000000025040                BonsaiZ1_gtcamRCCompLoadIntf
                0x0000000000025120                BonsaiZ1_gtcamRCCompReadIntf
                0x0000000000025210                BonsaiZ1_EEPROMWrite
                0x0000000000025340                BonsaiZ1_EEPROMRead
                0x00000000000254a0                BonsaiZ1_EEPROMChipSelSet
                0x0000000000025570                BonsaiZ1_EEPROMChipSelGet
                0x00000000000256b0                BonsaiZ1_EEPROMWriteIntf
                0x00000000000256c0                BonsaiZ1_EEPROMReadIntf
                0x00000000000256d0                BonsaiZ1_EEPROMChipSelSetIntf
                0x00000000000256e0                BonsaiZ1_EEPROMChipSelGetIntf
 *(.gnu.warning)

.text.unlikely  0x0000000000000000       0x28
 .text.unlikely
                0x0000000000000000       0x28 /home/roscube/Desktop/UMSD_v7.0.0_ADLINK/UMSD_v7.0.0/obj/dev/bonsaiz1/src/api/msdDrv_obj/api.o

.fini
 *(SORT_NONE(.fini))

.rodata         0x0000000000000000     0x130c
 *(.rodata)
 .rodata        0x0000000000000000     0x130c /home/roscube/Desktop/UMSD_v7.0.0_ADLINK/UMSD_v7.0.0/obj/dev/bonsaiz1/src/api/msdDrv_obj/api.o

.rodata.str1.8  0x0000000000000000     0x33c5
 .rodata.str1.8
                0x0000000000000000     0x33c5 /home/roscube/Desktop/UMSD_v7.0.0_ADLINK/UMSD_v7.0.0/obj/dev/bonsaiz1/src/api/msdDrv_obj/api.o

.rodata.str1.1  0x0000000000000000      0x88d
 .rodata.str1.1
                0x0000000000000000      0x88d /home/roscube/Desktop/UMSD_v7.0.0_ADLINK/UMSD_v7.0.0/obj/dev/bonsaiz1/src/api/msdDrv_obj/api.o

.rodata.cst8    0x0000000000000000       0x18
 .rodata.cst8   0x0000000000000000       0x18 /home/roscube/Desktop/UMSD_v7.0.0_ADLINK/UMSD_v7.0.0/obj/dev/bonsaiz1/src/api/msdDrv_obj/api.o

.rodata1
 *(.rodata1)

.eh_frame_hdr
 *(.eh_frame_hdr)

.eh_frame       0x0000000000000000     0x7e64
 *(.eh_frame)
 .eh_frame      0x0000000000000000      0x758 /home/roscube/Desktop/UMSD_v7.0.0_ADLINK/UMSD_v7.0.0/obj/dev/bonsaiz1/src/driver/msdDrv_obj/driver.o
 .eh_frame      0x0000000000000758     0x770c /home/roscube/Desktop/UMSD_v7.0.0_ADLINK/UMSD_v7.0.0/obj/dev/bonsaiz1/src/api/msdDrv_obj/api.o
                                       0x7748 (size before relaxing)

.gcc_except_table
 *(.gcc_except_table)

.gnu_extab
 *(.gnu_extab*)

.exception_ranges
 *(.exception_ranges)

.eh_frame
 *(.eh_frame)

.gnu_extab
 *(.gnu_extab)

.gcc_except_table
 *(.gcc_except_table)

.exception_ranges
 *(.exception_ranges)

.tdata
 *(.tdata)

.tbss
 *(.tbss)

.jcr
 *(.jcr)

.dynamic
 *(.dynamic)

.got
 *(.got)

.got.plt
 *(.got.plt)

.data           0x0000000000000000        0x0
 *(.data)
 .data          0x0000000000000000        0x0 /home/roscube/Desktop/UMSD_v7.0.0_ADLINK/UMSD_v7.0.0/obj/dev/bonsaiz1/src/driver/msdDrv_obj/driver.o
 .data          0x0000000000000000        0x0 /home/roscube/Desktop/UMSD_v7.0.0_ADLINK/UMSD_v7.0.0/obj/dev/bonsaiz1/src/api/msdDrv_obj/api.o

.data1
 *(.data1)

.bss            0x0000000000000000        0x0
 *(.bss)
 .bss           0x0000000000000000        0x0 /home/roscube/Desktop/UMSD_v7.0.0_ADLINK/UMSD_v7.0.0/obj/dev/bonsaiz1/src/driver/msdDrv_obj/driver.o
 .bss           0x0000000000000000        0x0 /home/roscube/Desktop/UMSD_v7.0.0_ADLINK/UMSD_v7.0.0/obj/dev/bonsaiz1/src/api/msdDrv_obj/api.o

.lbss
 *(.lbss)

.lrodata
 *(.lrodata)

.ldata
 *(.ldata)

.stab
 *(.stab)

.stabstr
 *(.stabstr)

.stab.excl
 *(.stab.excl)

.stab.exclstr
 *(.stab.exclstr)

.stab.index
 *(.stab.index)

.stab.indexstr
 *(.stab.indexstr)

.comment        0x0000000000000000      0x738
 *(.comment)
 .comment       0x0000000000000000       0x2c /home/roscube/Desktop/UMSD_v7.0.0_ADLINK/UMSD_v7.0.0/obj/dev/bonsaiz1/src/driver/msdDrv_obj/driver.o
 .comment       0x000000000000002c      0x70c /home/roscube/Desktop/UMSD_v7.0.0_ADLINK/UMSD_v7.0.0/obj/dev/bonsaiz1/src/api/msdDrv_obj/api.o

.note.GNU-stack
                0x0000000000000000        0x0
 .note.GNU-stack
                0x0000000000000000        0x0 /home/roscube/Desktop/UMSD_v7.0.0_ADLINK/UMSD_v7.0.0/obj/dev/bonsaiz1/src/driver/msdDrv_obj/driver.o
 .note.GNU-stack
                0x0000000000000000        0x0 /home/roscube/Desktop/UMSD_v7.0.0_ADLINK/UMSD_v7.0.0/obj/dev/bonsaiz1/src/api/msdDrv_obj/api.o

.gnu.build.attributes
 *(.gnu.build.attributes)

.debug
 *(.debug)

.line
 *(.line)

.debug_srcinfo
 *(.debug_srcinfo)

.debug_sfnames
 *(.debug_sfnames)

.debug_aranges
 *(.debug_aranges)

.debug_pubnames
 *(.debug_pubnames)

.debug_info
 *(.debug_info)

.debug_abbrev
 *(.debug_abbrev)

.debug_line
 *(.debug_line)

.debug_frame
 *(.debug_frame)

.debug_str
 *(.debug_str)

.debug_loc
 *(.debug_loc)

.debug_macinfo
 *(.debug_macinfo)

.debug_weaknames
 *(.debug_weaknames)

.debug_funcnames
 *(.debug_funcnames)

.debug_typenames
 *(.debug_typenames)

.debug_varnames
 *(.debug_varnames)

.debug_pubtypes
 *(.debug_pubtypes)

.debug_ranges
 *(.debug_ranges)

.debug_addr
 *(.debug_addr)

.debug_line_str
 *(.debug_line_str)

.debug_loclists
 *(.debug_loclists)

.debug_macro
 *(.debug_macro)

.debug_names
 *(.debug_names)

.debug_rnglists
 *(.debug_rnglists)

.debug_str_offsets
 *(.debug_str_offsets)

.debug_sup
 *(.debug_sup)

.gnu.attributes
 *(.gnu.attributes)
OUTPUT(/home/roscube/Desktop/UMSD_v7.0.0_ADLINK/UMSD_v7.0.0/obj/dev/bonsaiz1/msdDrv_BonsaiZ1.o elf64-x86-64)
