
Merging program properties


Discarded input sections

 .note.gnu.property
                0x0000000000000000       0x20 /home/roscube/Desktop/UMSD_v7.0.0_comb/UMSD_v7.0.0/obj/dev/oak/src/api/msdDrv_obj/Oak_msdTCAMRC.o
 .note.gnu.property
                0x0000000000000000       0x20 /home/roscube/Desktop/UMSD_v7.0.0_comb/UMSD_v7.0.0/obj/dev/oak/src/api/msdDrv_obj/Oak_msdTCAMRCComp.o
 .note.gnu.property
                0x0000000000000000       0x20 /home/roscube/Desktop/UMSD_v7.0.0_comb/UMSD_v7.0.0/obj/dev/oak/src/api/msdDrv_obj/Oak_msdBrgFdb.o
 .note.gnu.property
                0x0000000000000000       0x20 /home/roscube/Desktop/UMSD_v7.0.0_comb/UMSD_v7.0.0/obj/dev/oak/src/api/msdDrv_obj/Oak_msdPolicy.o
 .note.gnu.property
                0x0000000000000000       0x20 /home/roscube/Desktop/UMSD_v7.0.0_comb/UMSD_v7.0.0/obj/dev/oak/src/api/msdDrv_obj/Oak_msdBrgVtu.o
 .note.gnu.property
                0x0000000000000000       0x20 /home/roscube/Desktop/UMSD_v7.0.0_comb/UMSD_v7.0.0/obj/dev/oak/src/api/msdDrv_obj/Oak_msdArp.o
 .note.gnu.property
                0x0000000000000000       0x20 /home/roscube/Desktop/UMSD_v7.0.0_comb/UMSD_v7.0.0/obj/dev/oak/src/api/msdDrv_obj/Oak_msdBrgStu.o
 .note.gnu.property
                0x0000000000000000       0x20 /home/roscube/Desktop/UMSD_v7.0.0_comb/UMSD_v7.0.0/obj/dev/oak/src/api/msdDrv_obj/Oak_msdPIRL.o
 .note.gnu.property
                0x0000000000000000       0x20 /home/roscube/Desktop/UMSD_v7.0.0_comb/UMSD_v7.0.0/obj/dev/oak/src/api/msdDrv_obj/Oak_msdPortRmon.o
 .note.gnu.property
                0x0000000000000000       0x20 /home/roscube/Desktop/UMSD_v7.0.0_comb/UMSD_v7.0.0/obj/dev/oak/src/api/msdDrv_obj/Oak_msdPortCtrl.o
 .note.gnu.property
                0x0000000000000000       0x20 /home/roscube/Desktop/UMSD_v7.0.0_comb/UMSD_v7.0.0/obj/dev/oak/src/api/msdDrv_obj/Oak_msdEcid.o
 .note.gnu.property
                0x0000000000000000       0x20 /home/roscube/Desktop/UMSD_v7.0.0_comb/UMSD_v7.0.0/obj/dev/oak/src/api/msdDrv_obj/Oak_msdPortPrioMap.o
 .note.gnu.property
                0x0000000000000000       0x20 /home/roscube/Desktop/UMSD_v7.0.0_comb/UMSD_v7.0.0/obj/dev/oak/src/api/msdDrv_obj/Oak_msdQueueCtrl.o
 .note.gnu.property
                0x0000000000000000       0x20 /home/roscube/Desktop/UMSD_v7.0.0_comb/UMSD_v7.0.0/obj/dev/oak/src/api/msdDrv_obj/Oak_msdSysCtrl.o
 .note.gnu.property
                0x0000000000000000       0x20 /home/roscube/Desktop/UMSD_v7.0.0_comb/UMSD_v7.0.0/obj/dev/oak/src/api/msdDrv_obj/Oak_msdPhyCtrl.o
 .note.gnu.property
                0x0000000000000000       0x20 /home/roscube/Desktop/UMSD_v7.0.0_comb/UMSD_v7.0.0/obj/dev/oak/src/api/msdDrv_obj/Oak_msdRMU.o
 .note.gnu.property
                0x0000000000000000       0x20 /home/roscube/Desktop/UMSD_v7.0.0_comb/UMSD_v7.0.0/obj/dev/oak/src/api/msdDrv_obj/Oak_msdTCAMIntf.o
 .note.gnu.property
                0x0000000000000000       0x20 /home/roscube/Desktop/UMSD_v7.0.0_comb/UMSD_v7.0.0/obj/dev/oak/src/api/msdDrv_obj/Oak_msdBrgFdbIntf.o
 .note.gnu.property
                0x0000000000000000       0x20 /home/roscube/Desktop/UMSD_v7.0.0_comb/UMSD_v7.0.0/obj/dev/oak/src/api/msdDrv_obj/Oak_msdBrgVtuIntf.o
 .note.gnu.property
                0x0000000000000000       0x20 /home/roscube/Desktop/UMSD_v7.0.0_comb/UMSD_v7.0.0/obj/dev/oak/src/api/msdDrv_obj/Oak_msdBrgStuIntf.o
 .note.gnu.property
                0x0000000000000000       0x20 /home/roscube/Desktop/UMSD_v7.0.0_comb/UMSD_v7.0.0/obj/dev/oak/src/api/msdDrv_obj/Oak_msdPIRLIntf.o
 .note.gnu.property
                0x0000000000000000       0x20 /home/roscube/Desktop/UMSD_v7.0.0_comb/UMSD_v7.0.0/obj/dev/oak/src/api/msdDrv_obj/Oak_msdQav.o
 .note.gnu.property
                0x0000000000000000       0x20 /home/roscube/Desktop/UMSD_v7.0.0_comb/UMSD_v7.0.0/obj/dev/oak/src/api/msdDrv_obj/Oak_msdArpIntf.o
 .note.gnu.property
                0x0000000000000000       0x20 /home/roscube/Desktop/UMSD_v7.0.0_comb/UMSD_v7.0.0/obj/dev/oak/src/api/msdDrv_obj/Oak_msdPortRmonIntf.o
 .note.gnu.property
                0x0000000000000000       0x20 /home/roscube/Desktop/UMSD_v7.0.0_comb/UMSD_v7.0.0/obj/dev/oak/src/api/msdDrv_obj/Oak_msdPortCtrlIntf.o
 .note.gnu.property
                0x0000000000000000       0x20 /home/roscube/Desktop/UMSD_v7.0.0_comb/UMSD_v7.0.0/obj/dev/oak/src/api/msdDrv_obj/Oak_msdPortPrioMapIntf.o
 .note.gnu.property
                0x0000000000000000       0x20 /home/roscube/Desktop/UMSD_v7.0.0_comb/UMSD_v7.0.0/obj/dev/oak/src/api/msdDrv_obj/Oak_msdEcidIntf.o
 .note.gnu.property
                0x0000000000000000       0x20 /home/roscube/Desktop/UMSD_v7.0.0_comb/UMSD_v7.0.0/obj/dev/oak/src/api/msdDrv_obj/Oak_msdQueueCtrlIntf.o
 .note.gnu.property
                0x0000000000000000       0x20 /home/roscube/Desktop/UMSD_v7.0.0_comb/UMSD_v7.0.0/obj/dev/oak/src/api/msdDrv_obj/Oak_msdSysCtrlIntf.o
 .note.gnu.property
                0x0000000000000000       0x20 /home/roscube/Desktop/UMSD_v7.0.0_comb/UMSD_v7.0.0/obj/dev/oak/src/api/msdDrv_obj/Oak_msdPhyCtrlIntf.o
 .note.gnu.property
                0x0000000000000000       0x20 /home/roscube/Desktop/UMSD_v7.0.0_comb/UMSD_v7.0.0/obj/dev/oak/src/api/msdDrv_obj/Oak_msdPolicyIntf.o
 .note.gnu.property
                0x0000000000000000       0x20 /home/roscube/Desktop/UMSD_v7.0.0_comb/UMSD_v7.0.0/obj/dev/oak/src/api/msdDrv_obj/Oak_msdTCAMRCIntf.o
 .note.gnu.property
                0x0000000000000000       0x20 /home/roscube/Desktop/UMSD_v7.0.0_comb/UMSD_v7.0.0/obj/dev/oak/src/api/msdDrv_obj/Oak_msdRMUIntf.o
 .note.gnu.property
                0x0000000000000000       0x20 /home/roscube/Desktop/UMSD_v7.0.0_comb/UMSD_v7.0.0/obj/dev/oak/src/api/msdDrv_obj/Oak_msdPTP.o
 .note.gnu.property
                0x0000000000000000       0x20 /home/roscube/Desktop/UMSD_v7.0.0_comb/UMSD_v7.0.0/obj/dev/oak/src/api/msdDrv_obj/Oak_msdPTPIntf.o
 .note.gnu.property
                0x0000000000000000       0x20 /home/roscube/Desktop/UMSD_v7.0.0_comb/UMSD_v7.0.0/obj/dev/oak/src/api/msdDrv_obj/Oak_msdLed.o
 .note.gnu.property
                0x0000000000000000       0x20 /home/roscube/Desktop/UMSD_v7.0.0_comb/UMSD_v7.0.0/obj/dev/oak/src/api/msdDrv_obj/Oak_msdLedIntf.o
 .note.gnu.property
                0x0000000000000000       0x20 /home/roscube/Desktop/UMSD_v7.0.0_comb/UMSD_v7.0.0/obj/dev/oak/src/api/msdDrv_obj/Oak_msdTCAMRCCompIntf.o
 .note.gnu.property
                0x0000000000000000       0x20 /home/roscube/Desktop/UMSD_v7.0.0_comb/UMSD_v7.0.0/obj/dev/oak/src/api/msdDrv_obj/Oak_msdEEPROM.o
 .note.gnu.property
                0x0000000000000000       0x20 /home/roscube/Desktop/UMSD_v7.0.0_comb/UMSD_v7.0.0/obj/dev/oak/src/api/msdDrv_obj/Oak_msdEEPROMIntf.o

Memory Configuration

Name             Origin             Length             Attributes
*default*        0x0000000000000000 0xffffffffffffffff

Linker script and memory map

LOAD /home/roscube/Desktop/UMSD_v7.0.0_comb/UMSD_v7.0.0/obj/dev/oak/src/api/msdDrv_obj/Oak_msdTCAM.o
LOAD /home/roscube/Desktop/UMSD_v7.0.0_comb/UMSD_v7.0.0/obj/dev/oak/src/api/msdDrv_obj/Oak_msdTCAMRC.o
LOAD /home/roscube/Desktop/UMSD_v7.0.0_comb/UMSD_v7.0.0/obj/dev/oak/src/api/msdDrv_obj/Oak_msdTCAMRCComp.o
LOAD /home/roscube/Desktop/UMSD_v7.0.0_comb/UMSD_v7.0.0/obj/dev/oak/src/api/msdDrv_obj/Oak_msdBrgFdb.o
LOAD /home/roscube/Desktop/UMSD_v7.0.0_comb/UMSD_v7.0.0/obj/dev/oak/src/api/msdDrv_obj/Oak_msdPolicy.o
LOAD /home/roscube/Desktop/UMSD_v7.0.0_comb/UMSD_v7.0.0/obj/dev/oak/src/api/msdDrv_obj/Oak_msdBrgVtu.o
LOAD /home/roscube/Desktop/UMSD_v7.0.0_comb/UMSD_v7.0.0/obj/dev/oak/src/api/msdDrv_obj/Oak_msdArp.o
LOAD /home/roscube/Desktop/UMSD_v7.0.0_comb/UMSD_v7.0.0/obj/dev/oak/src/api/msdDrv_obj/Oak_msdBrgStu.o
LOAD /home/roscube/Desktop/UMSD_v7.0.0_comb/UMSD_v7.0.0/obj/dev/oak/src/api/msdDrv_obj/Oak_msdPIRL.o
LOAD /home/roscube/Desktop/UMSD_v7.0.0_comb/UMSD_v7.0.0/obj/dev/oak/src/api/msdDrv_obj/Oak_msdPortRmon.o
LOAD /home/roscube/Desktop/UMSD_v7.0.0_comb/UMSD_v7.0.0/obj/dev/oak/src/api/msdDrv_obj/Oak_msdPortCtrl.o
LOAD /home/roscube/Desktop/UMSD_v7.0.0_comb/UMSD_v7.0.0/obj/dev/oak/src/api/msdDrv_obj/Oak_msdEcid.o
LOAD /home/roscube/Desktop/UMSD_v7.0.0_comb/UMSD_v7.0.0/obj/dev/oak/src/api/msdDrv_obj/Oak_msdPortPrioMap.o
LOAD /home/roscube/Desktop/UMSD_v7.0.0_comb/UMSD_v7.0.0/obj/dev/oak/src/api/msdDrv_obj/Oak_msdQueueCtrl.o
LOAD /home/roscube/Desktop/UMSD_v7.0.0_comb/UMSD_v7.0.0/obj/dev/oak/src/api/msdDrv_obj/Oak_msdSysCtrl.o
LOAD /home/roscube/Desktop/UMSD_v7.0.0_comb/UMSD_v7.0.0/obj/dev/oak/src/api/msdDrv_obj/Oak_msdPhyCtrl.o
LOAD /home/roscube/Desktop/UMSD_v7.0.0_comb/UMSD_v7.0.0/obj/dev/oak/src/api/msdDrv_obj/Oak_msdRMU.o
LOAD /home/roscube/Desktop/UMSD_v7.0.0_comb/UMSD_v7.0.0/obj/dev/oak/src/api/msdDrv_obj/Oak_msdTCAMIntf.o
LOAD /home/roscube/Desktop/UMSD_v7.0.0_comb/UMSD_v7.0.0/obj/dev/oak/src/api/msdDrv_obj/Oak_msdBrgFdbIntf.o
LOAD /home/roscube/Desktop/UMSD_v7.0.0_comb/UMSD_v7.0.0/obj/dev/oak/src/api/msdDrv_obj/Oak_msdBrgVtuIntf.o
LOAD /home/roscube/Desktop/UMSD_v7.0.0_comb/UMSD_v7.0.0/obj/dev/oak/src/api/msdDrv_obj/Oak_msdBrgStuIntf.o
LOAD /home/roscube/Desktop/UMSD_v7.0.0_comb/UMSD_v7.0.0/obj/dev/oak/src/api/msdDrv_obj/Oak_msdPIRLIntf.o
LOAD /home/roscube/Desktop/UMSD_v7.0.0_comb/UMSD_v7.0.0/obj/dev/oak/src/api/msdDrv_obj/Oak_msdQav.o
LOAD /home/roscube/Desktop/UMSD_v7.0.0_comb/UMSD_v7.0.0/obj/dev/oak/src/api/msdDrv_obj/Oak_msdArpIntf.o
LOAD /home/roscube/Desktop/UMSD_v7.0.0_comb/UMSD_v7.0.0/obj/dev/oak/src/api/msdDrv_obj/Oak_msdPortRmonIntf.o
LOAD /home/roscube/Desktop/UMSD_v7.0.0_comb/UMSD_v7.0.0/obj/dev/oak/src/api/msdDrv_obj/Oak_msdPortCtrlIntf.o
LOAD /home/roscube/Desktop/UMSD_v7.0.0_comb/UMSD_v7.0.0/obj/dev/oak/src/api/msdDrv_obj/Oak_msdPortPrioMapIntf.o
LOAD /home/roscube/Desktop/UMSD_v7.0.0_comb/UMSD_v7.0.0/obj/dev/oak/src/api/msdDrv_obj/Oak_msdEcidIntf.o
LOAD /home/roscube/Desktop/UMSD_v7.0.0_comb/UMSD_v7.0.0/obj/dev/oak/src/api/msdDrv_obj/Oak_msdQueueCtrlIntf.o
LOAD /home/roscube/Desktop/UMSD_v7.0.0_comb/UMSD_v7.0.0/obj/dev/oak/src/api/msdDrv_obj/Oak_msdSysCtrlIntf.o
LOAD /home/roscube/Desktop/UMSD_v7.0.0_comb/UMSD_v7.0.0/obj/dev/oak/src/api/msdDrv_obj/Oak_msdPhyCtrlIntf.o
LOAD /home/roscube/Desktop/UMSD_v7.0.0_comb/UMSD_v7.0.0/obj/dev/oak/src/api/msdDrv_obj/Oak_msdPolicyIntf.o
LOAD /home/roscube/Desktop/UMSD_v7.0.0_comb/UMSD_v7.0.0/obj/dev/oak/src/api/msdDrv_obj/Oak_msdTCAMRCIntf.o
LOAD /home/roscube/Desktop/UMSD_v7.0.0_comb/UMSD_v7.0.0/obj/dev/oak/src/api/msdDrv_obj/Oak_msdRMUIntf.o
LOAD /home/roscube/Desktop/UMSD_v7.0.0_comb/UMSD_v7.0.0/obj/dev/oak/src/api/msdDrv_obj/Oak_msdPTP.o
LOAD /home/roscube/Desktop/UMSD_v7.0.0_comb/UMSD_v7.0.0/obj/dev/oak/src/api/msdDrv_obj/Oak_msdPTPIntf.o
LOAD /home/roscube/Desktop/UMSD_v7.0.0_comb/UMSD_v7.0.0/obj/dev/oak/src/api/msdDrv_obj/Oak_msdLed.o
LOAD /home/roscube/Desktop/UMSD_v7.0.0_comb/UMSD_v7.0.0/obj/dev/oak/src/api/msdDrv_obj/Oak_msdLedIntf.o
LOAD /home/roscube/Desktop/UMSD_v7.0.0_comb/UMSD_v7.0.0/obj/dev/oak/src/api/msdDrv_obj/Oak_msdTCAMRCCompIntf.o
LOAD /home/roscube/Desktop/UMSD_v7.0.0_comb/UMSD_v7.0.0/obj/dev/oak/src/api/msdDrv_obj/Oak_msdEEPROM.o
LOAD /home/roscube/Desktop/UMSD_v7.0.0_comb/UMSD_v7.0.0/obj/dev/oak/src/api/msdDrv_obj/Oak_msdEEPROMIntf.o

.interp
 *(.interp)

.note.gnu.property
                0x0000000000000000       0x20
 .note.gnu.property
                0x0000000000000000       0x20 /home/roscube/Desktop/UMSD_v7.0.0_comb/UMSD_v7.0.0/obj/dev/oak/src/api/msdDrv_obj/Oak_msdTCAM.o

.note.gnu.build-id
 *(.note.gnu.build-id)

.hash
 *(.hash)

.gnu.hash
 *(.gnu.hash)

.dynsym
 *(.dynsym)

.dynstr
 *(.dynstr)

.gnu.version
 *(.gnu.version)

.gnu.version_d
 *(.gnu.version_d)

.gnu.version_r
 *(.gnu.version_r)

.rela.init
 *(.rela.init)

.rela.text
 *(.rela.text)

.rela.fini
 *(.rela.fini)

.rela.rodata
 *(.rela.rodata)

.rela.data.rel.ro
 *(.rela.data.rel.ro)

.rela.data
 *(.rela.data)

.rela.tdata
 *(.rela.tdata)

.rela.tbss
 *(.rela.tbss)

.rela.ctors
 *(.rela.ctors)

.rela.dtors
 *(.rela.dtors)

.rela.got
 *(.rela.got)

.rela.bss
 *(.rela.bss)

.rela.ldata
 *(.rela.ldata)

.rela.lbss
 *(.rela.lbss)

.rela.lrodata
 *(.rela.lrodata)

.rela.ifunc
 *(.rela.ifunc)

.rela.plt
 *(.rela.plt)

.relr.dyn
 *(.relr.dyn)

.init
 *(SORT_NONE(.init))

.plt
 *(.plt)

.plt.got
 *(.plt.got)

.plt.sec
 *(.plt.sec)

.text           0x0000000000000000    0x23c99
 *(.text .stub)
 .text          0x0000000000000000     0x320c /home/roscube/Desktop/UMSD_v7.0.0_comb/UMSD_v7.0.0/obj/dev/oak/src/api/msdDrv_obj/Oak_msdTCAM.o
                0x0000000000001800                Oak_gtcamFlushAll
                0x0000000000001850                Oak_gtcamFlushEntry
                0x00000000000018b0                Oak_gtcamLoadEntry
                0x0000000000001940                Oak_gtcamReadTCAMData
                0x00000000000019c0                Oak_gtcamGetNextTCAMData
                0x0000000000001a60                Oak_gtcamFindEntry
                0x0000000000001b30                Oak_gtcamSetMode
                0x0000000000001b90                Oak_gtcamGetMode
                0x0000000000001c20                Oak_gtcamAddEntryPort
                0x0000000000001d10                Oak_gtcamRemoveEntryPort
                0x0000000000001e10                Oak_gtcamEgrFlushEntry
                0x0000000000001e90                Oak_gtcamEgrFlushEntryAllPorts
                0x0000000000001ef0                Oak_gtcamEgrLoadEntry
                0x00000000000020c0                Oak_gtcamEgrGetNextTCAMData
                0x0000000000002190                Oak_gtcamEgrReadTCAMData
                0x0000000000002250                Oak_gtcamDump
                0x00000000000028d0                Oak_gtcamAdvConfig
 *fill*         0x000000000000320c        0x4 
 .text          0x0000000000003210     0x16cc /home/roscube/Desktop/UMSD_v7.0.0_comb/UMSD_v7.0.0/obj/dev/oak/src/api/msdDrv_obj/Oak_msdTCAMRC.o
                0x0000000000003b70                Oak_gtcamRCFlushAllEntry
                0x0000000000003c30                Oak_gtcamRCFlushEntry
                0x0000000000003d10                Oak_gtcamRCLoadEntry
                0x0000000000003ff0                Oak_gtcamRCReadEntry
                0x00000000000040f0                Oak_gtcamRCGetNextEntry
                0x0000000000004230                Oak_gtcamRCFindEntry
                0x0000000000004380                Oak_gtcamRCEntryDump
 *fill*         0x00000000000048dc        0x4 
 .text          0x00000000000048e0      0xa43 /home/roscube/Desktop/UMSD_v7.0.0_comb/UMSD_v7.0.0/obj/dev/oak/src/api/msdDrv_obj/Oak_msdTCAMRCComp.o
                0x0000000000004d30                Oak_gtcamRCCompFlushAll
                0x0000000000004df0                Oak_gtcamRCCompFlushPort
                0x0000000000004ed0                Oak_gtcamRCCompLoad
                0x0000000000005130                Oak_gtcamRCCompRead
 *fill*         0x0000000000005323        0xd 
 .text          0x0000000000005330     0x1f55 /home/roscube/Desktop/UMSD_v7.0.0_comb/UMSD_v7.0.0/obj/dev/oak/src/api/msdDrv_obj/Oak_msdBrgFdb.o
                0x0000000000006560                Oak_gfdbGetAtuEntryNext
                0x0000000000006580                Oak_gfdbFlush
                0x00000000000065f0                Oak_gfdbFlushInDB
                0x0000000000006670                Oak_gfdbMove
                0x0000000000006760                Oak_gfdbMoveInDB
                0x0000000000006850                Oak_gfdbAddMacEntry
                0x0000000000006920                Oak_gfdbDelAtuEntry
                0x00000000000069b0                Oak_gfdbGetViolation
                0x0000000000006ae0                Oak_gfdbFindAtuMacEntry
                0x0000000000006c10                Oak_gfdbSetAgingTimeout
                0x0000000000006c90                Oak_gfdbGetAgingTimeout
                0x0000000000006d20                Oak_gfdbGetLearn2All
                0x0000000000006dc0                Oak_gfdbSetLearn2All
                0x0000000000006e10                Oak_gfdbSetPortLearnLimit
                0x0000000000006f80                Oak_gfdbGetPortLearnLimit
                0x0000000000007090                Oak_gfdbGetPortLearnCount
                0x0000000000007150                Oak_gfdbGetEntryCount
                0x00000000000071a0                Oak_gfdbGetEntryCountPerFid
                0x00000000000071f0                Oak_gfdbGetNonStaticEntryCount
                0x0000000000007240                Oak_gfdbGetNStaticEntryCountFid
 *fill*         0x0000000000007285        0xb 
 .text          0x0000000000007290     0x5f9e /home/roscube/Desktop/UMSD_v7.0.0_comb/UMSD_v7.0.0/obj/dev/oak/src/api/msdDrv_obj/Oak_msdPolicy.o
                0x00000000000074f0                Oak_gpolicySetMgmtCtrl
                0x0000000000007510                Oak_gpolicyGetMgmtCtrl
                0x0000000000007530                Oak_gpolicySetCpuDest
                0x00000000000075f0                Oak_gpolicyGetCpuDest
                0x0000000000007680                Oak_gpolicySetIgrMonitorDest
                0x0000000000007740                Oak_gpolicyGetIgrMonitorDest
                0x00000000000077d0                Oak_gpolicySetRsvd2CpuEnables
                0x0000000000007820                Oak_gpolicyGetRsvd2CpuEnables
                0x00000000000078c0                Oak_gpolicySetMGMTPri
                0x0000000000007960                Oak_gpolicyGetMGMTPri
                0x00000000000079c0                Oak_gpolicySetRouteDest
                0x0000000000007a80                Oak_gpolicyGetRouteDest
                0x0000000000007b10                Oak_gpolicySetMirrorDest
                0x0000000000007bd0                Oak_gpolicyGetMirrorDest
                0x0000000000007c60                Oak_gpolicySetIllegalIPAddr
                0x0000000000007d00                Oak_gpolicyGetIllegalIPAddr
                0x0000000000007d60                Oak_gpolicySetDipDaMismatch
                0x0000000000007e00                Oak_gpolicyGetDipDaMismatch
                0x0000000000007e60                Oak_gpolicySetZeroSIP
                0x0000000000007f00                Oak_gpolicyGetZeroSIP
                0x0000000000007f60                Oak_gpolicySetMcTtlExceeded
                0x0000000000008030                Oak_gpolicyGetMcTtlExceeded
                0x0000000000008100                Oak_gpolicySetUcTtlExceeded
                0x00000000000081c0                Oak_gpolicyGetUcTtlExceeded
                0x0000000000008220                Oak_gprtSetPortTtlThreshold
                0x00000000000082b0                Oak_gprtGetPortTtlThreshold
                0x0000000000008310                Oak_gpolicySetIpHdrErr
                0x00000000000083b0                Oak_gpolicyGetIpHdrErr
                0x0000000000008410                Oak_gpolicySetTCPFinUrgPsh
                0x00000000000084b0                Oak_gpolicyGetTCPFinUrgPsh
                0x0000000000008510                Oak_gpolicySetTCPFlagsSeqNum
                0x00000000000085b0                Oak_gpolicyGetTCPFlagsSeqNum
                0x0000000000008610                Oak_gpolicySetTCPSYN
                0x00000000000086b0                Oak_gpolicyGetTCPSYN
                0x0000000000008710                Oak_gpolicySetTCPHSize
                0x00000000000087b0                Oak_gpolicyGetTCPHSize
                0x0000000000008810                Oak_gprtSetPortTCPMinHdrSize
                0x00000000000088a0                Oak_gprtGetPortTCPMinHdrSize
                0x0000000000008900                Oak_gpolicySetICMPSize
                0x00000000000089a0                Oak_gpolicyGetICMPSize
                0x0000000000008a00                Oak_gprtSetPortICMPMaxSize
                0x0000000000008a50                Oak_gprtGetPortICMPMaxSize
                0x0000000000008ae0                Oak_gpolicySetUDPPort
                0x0000000000008b80                Oak_gpolicyGetUDPPort
                0x0000000000008be0                Oak_gpolicySetTCPPort
                0x0000000000008c80                Oak_gpolicyGetTCPPort
                0x0000000000008ce0                Oak_gpolicySetTCPSynFin
                0x0000000000008d80                Oak_gpolicyGetTCPSynFin
                0x0000000000008de0                Oak_gpolicySetTCPFrag
                0x0000000000008e80                Oak_gpolicyGetTCPFrag
                0x0000000000008ee0                Oak_gpolicySetNearNonTPMR
                0x0000000000008f80                Oak_gpolicyGetNearNonTPMR
                0x0000000000008fe0                Oak_gpolicySetETag
                0x0000000000009080                Oak_gpolicyGetETag
                0x00000000000090e0                Oak_gpolicySetNonETag
                0x0000000000009180                Oak_gpolicyGetNonETag
                0x00000000000091e0                Oak_gpolicyDump
 *fill*         0x000000000000d22e        0x2 
 .text          0x000000000000d230     0x1960 /home/roscube/Desktop/UMSD_v7.0.0_comb/UMSD_v7.0.0/obj/dev/oak/src/api/msdDrv_obj/Oak_msdBrgVtu.o
                0x000000000000df20                Oak_gvtuGetEntryNext
                0x000000000000e090                Oak_gvtuFindVidEntry
                0x000000000000e250                Oak_gvtuFlush
                0x000000000000e270                Oak_gvtuAddEntry
                0x000000000000e3c0                Oak_gvtuDelEntry
                0x000000000000e440                Oak_gvtuSetMode
                0x000000000000e5c0                Oak_gvtuGetMode
                0x000000000000e760                Oak_gvtuGetViolation_MultiChip
                0x000000000000e870                Oak_gvtuGetViolation
                0x000000000000e9e0                Oak_gvtuDump
 .text          0x000000000000eb90      0x991 /home/roscube/Desktop/UMSD_v7.0.0_comb/UMSD_v7.0.0/obj/dev/oak/src/api/msdDrv_obj/Oak_msdArp.o
                0x000000000000f180                Oak_garpLoadMcEntry
                0x000000000000f2a0                Oak_garpLoadUcEntry
                0x000000000000f360                Oak_garpFlushEntry
                0x000000000000f3c0                Oak_garpFlushAll
                0x000000000000f410                Oak_garpReadEntry
                0x000000000000f490                Oak_garpGetNextEntry
 *fill*         0x000000000000f521        0xf 
 .text          0x000000000000f530      0x865 /home/roscube/Desktop/UMSD_v7.0.0_comb/UMSD_v7.0.0/obj/dev/oak/src/api/msdDrv_obj/Oak_msdBrgStu.o
                0x000000000000f950                Oak_gstuGetEntryNext
                0x000000000000fa50                Oak_gstuAddEntry
                0x000000000000fb20                Oak_gstuDelEntry
                0x000000000000fb80                Oak_gstuFindSidEntry
                0x000000000000fc90                Oak_gstuDump
 *fill*         0x000000000000fd95        0xb 
 .text          0x000000000000fda0      0xb95 /home/roscube/Desktop/UMSD_v7.0.0_comb/UMSD_v7.0.0/obj/dev/oak/src/api/msdDrv_obj/Oak_msdPIRL.o
                0x0000000000010210                Oak_gpirlInitialize
                0x0000000000010230                Oak_gpirlInitResource
                0x00000000000102b0                Oak_gpirlCustomSetup_sr2c
                0x00000000000104a0                Oak_gpirlReadResource
                0x0000000000010670                Oak_gpirlWriteResource
                0x0000000000010810                Oak_gpirlGetResReg
                0x00000000000108b0                Oak_gpirlSetResReg
 *fill*         0x0000000000010935        0xb 
 .text          0x0000000000010940      0xdfc /home/roscube/Desktop/UMSD_v7.0.0_comb/UMSD_v7.0.0/obj/dev/oak/src/api/msdDrv_obj/Oak_msdPortRmon.o
                0x0000000000010f90                Oak_gstatsFlushAll
                0x0000000000010fb0                Oak_gstatsFlushPort
                0x0000000000010ff0                Oak_gstatsGetPortCounter
                0x0000000000011050                Oak_gstatsGetPortAllCounters
                0x00000000000110a0                Oak_gstatsGetHistogramMode
                0x0000000000011160                Oak_gstatsSetHistogramMode
                0x00000000000111a0                Oak_gmibDump
 *fill*         0x000000000001173c        0x4 
 .text          0x0000000000011740     0x47cd /home/roscube/Desktop/UMSD_v7.0.0_comb/UMSD_v7.0.0/obj/dev/oak/src/api/msdDrv_obj/Oak_msdPortCtrl.o
                0x0000000000011cc0                Oak_gvlnSetPortVid
                0x0000000000011d20                Oak_gvlnGetPortVid
                0x0000000000011db0                Oak_gprtSetForceDefaultVid
                0x0000000000011e10                Oak_gprtGetForceDefaultVid
                0x0000000000011eb0                Oak_gvlnSetPortVlanDot1qMode
                0x0000000000011f10                Oak_gvlnGetPortVlanDot1qMode
                0x0000000000011fa0                Oak_gprtSetDiscardTagged
                0x0000000000012000                Oak_gprtGetDiscardTagged
                0x00000000000120a0                Oak_gprtSetDiscardUntagged
                0x0000000000012100                Oak_gprtGetDiscardUntagged
                0x00000000000121a0                Oak_gprtSetUnicastFloodBlock
                0x0000000000012200                Oak_gprtGetUnicastFloodBlock
                0x00000000000122a0                Oak_gprtSetMulticastFloodBlock
                0x0000000000012300                Oak_gprtGetMulticastFloodBlock
                0x00000000000123a0                Oak_gprtSetDiscardBCastMode
                0x0000000000012400                Oak_gprtGetDiscardBCastMode
                0x00000000000124a0                Oak_gprtSetIGMPSnoopEnable
                0x0000000000012500                Oak_gprtGetIGMPSnoopEnable
                0x00000000000125a0                Oak_gprtGetHeaderMode
                0x0000000000012640                Oak_gprtSetHeaderMode
                0x00000000000126a0                Oak_gprtGetDropOnLock
                0x0000000000012740                Oak_gprtSetDropOnLock
                0x00000000000127a0                Oak_gprtSetJumboMode
                0x0000000000012810                Oak_gprtGetJumboMode
                0x00000000000128a0                Oak_gprtSetSpecifiedMTU
                0x0000000000012920                Oak_gprtGetSpecifiedMTU
                0x00000000000129b0                Oak_gprtSetLearnEnable
                0x0000000000012ab0                Oak_gprtGetLearnEnable
                0x0000000000012b40                Oak_gprtGetVTUPriorityOverride
                0x0000000000012bd0                Oak_gprtSetVTUPriorityOverride
                0x0000000000012c30                Oak_gprtGetSAPriorityOverride
                0x0000000000012cc0                Oak_gprtSetSAPriorityOverride
                0x0000000000012d20                Oak_gprtGetDAPriorityOverride
                0x0000000000012db0                Oak_gprtSetDAPriorityOverride
                0x0000000000012e10                Oak_gprtGetMessagePort
                0x0000000000012eb0                Oak_gprtSetMessagePort
                0x0000000000012f10                Oak_gprtGetEtherType
                0x0000000000012f30                Oak_gprtSetEtherType
                0x0000000000012f50                Oak_gprtGetAllowVidZero
                0x0000000000012ff0                Oak_gprtSetAllowVidZero
                0x0000000000013050                Oak_gprtSetTrunkPort
                0x0000000000013110                Oak_gprtGetTrunkPort
                0x00000000000131f0                Oak_gprtSetFlowCtrl
                0x00000000000132a0                Oak_gprtGetFlowCtrl
                0x0000000000013310                Oak_gprtSetEgressMonitorSource
                0x0000000000013370                Oak_gprtGetEgressMonitorSource
                0x0000000000013410                Oak_gprtSetIngressMonitorSource
                0x0000000000013470                Oak_gprtGetIngressMonitorSource
                0x0000000000013510                Oak_grcSetEgressRate
                0x0000000000013740                Oak_grcSetELimitMode
                0x00000000000137a0                Oak_grcGetELimitMode
                0x0000000000013830                Oak_grcGetEgressRate
                0x0000000000013970                Oak_gprtSetDuplex
                0x00000000000139e0                Oak_gprtGetDuplex
                0x0000000000013ab0                Oak_gprtGetDuplexStatus
                0x0000000000013b40                Oak_gprtGetForceLink
                0x0000000000013c10                Oak_gprtSetForceLink
                0x0000000000013c80                Oak_gprtGetLinkState
                0x0000000000013d10                Oak_gprtSetForceSpeed
                0x0000000000013fb0                Oak_gprtGetForceSpeed
                0x0000000000014150                Oak_gprtGetSpeed
                0x0000000000014280                Oak_gprtGetVlanPorts
                0x0000000000014360                Oak_gprtSetVlanPorts
                0x00000000000144a0                Oak_gprtGetFrameMode
                0x0000000000014530                Oak_gprtSetFrameMode
                0x0000000000014590                Oak_gprtSetPortECID
                0x0000000000014630                Oak_gprtGetPortECID
                0x0000000000014690                Oak_gprtSetIgnoreETag
                0x0000000000014720                Oak_gprtGetIgnoreETag
                0x0000000000014780                Oak_gprtSetEgressMode
                0x00000000000147e0                Oak_gprtGetEgressMode
                0x0000000000014870                Oak_gprtSetExtendedPortCtrlReg
                0x0000000000014950                Oak_gprtGetExtendedPortCtrlReg
                0x00000000000149f0                Oak_gprtGetPortState
                0x0000000000014a80                Oak_gprtSetPortState
                0x0000000000014ae0                Oak_gprtSetIgnoreFcs
                0x0000000000014b40                Oak_gprtGetIgnoreFcs
                0x0000000000014be0                Oak_gprtSetAllowBadFcs
                0x0000000000014c40                Oak_gprtGetAllowBadFcs
                0x0000000000014ce0                Oak_gprtSetPauseLimitOut
                0x0000000000014d30                Oak_gprtGetPauseLimitOut
                0x0000000000014d80                Oak_gprtSetPauseLimitIn
                0x0000000000014dc0                Oak_gprtGetPauseLimitIn
                0x0000000000014e10                Oak_gprtSetQueueToPause
                0x0000000000014e60                Oak_gprtGetQueueToPause
                0x0000000000014eb0                Oak_gprtSetRxPriFlowCtrlEnable
                0x0000000000014fa0                Oak_gprtGetRxPriFlowCtrlEnable
                0x0000000000015050                Oak_gprtSetRxPriFlowCtrlToQueue
                0x0000000000015140                Oak_gprtGetRxPriFlowCtrlToQueue
                0x00000000000151e0                Oak_gprtSetTxPriFlowCtrlEnable
                0x00000000000152d0                Oak_gprtGetTxPriFlowCtrlEnable
                0x0000000000015380                Oak_gprtGetOutQueueSize
                0x0000000000015410                Oak_gprtSetMapDA
                0x0000000000015470                Oak_gprtGetMapDA
                0x0000000000015510                Oak_gprtSetPortLocked
                0x0000000000015570                Oak_gprtGetPortLocked
                0x0000000000015610                Oak_gprtSetHoldAt1
                0x0000000000015670                Oak_gprtGetHoldAt1
                0x0000000000015710                Oak_gprtSetInt0nAgeOut
                0x0000000000015770                Oak_gprtGetInt0nAgeOut
                0x0000000000015810                Oak_gprtSetRefreshLocked
                0x0000000000015870                Oak_gprtGetRefreshLocked
                0x0000000000015910                Oak_gprtSetIgnoreWrongData
                0x0000000000015970                Oak_gprtGetIgnoreWrongData
                0x0000000000015a10                Oak_gprtSetARPMirror
                0x0000000000015a70                Oak_gprtGetARPMirror
                0x0000000000015b10                Oak_gprtSetPreemptSize
                0x0000000000015b70                Oak_gprtGetPreemptSize
                0x0000000000015c10                Oak_gprtSetPreemptEnable
                0x0000000000015c70                Oak_gprtGetPreemptEnable
                0x0000000000015d10                Oak_gprtSetPreemptQueue
                0x0000000000015d70                Oak_gprtGetPreemptQueue
                0x0000000000015e10                Oak_gprtRegDump
 *fill*         0x0000000000015f0d        0x3 
 .text          0x0000000000015f10     0x1431 /home/roscube/Desktop/UMSD_v7.0.0_comb/UMSD_v7.0.0/obj/dev/oak/src/api/msdDrv_obj/Oak_msdEcid.o
                0x0000000000016980                Oak_gBpeEnableSet
                0x0000000000016ad0                Oak_gBpeEnableGet
                0x0000000000016b70                Oak_gecidAddEntry
                0x0000000000016bb0                Oak_gecidFlushAll
                0x0000000000016c20                Oak_gecidMove
                0x0000000000016ce0                Oak_gecidFlushEntry
                0x0000000000016d70                Oak_gecidGetEcidEntryNext
                0x0000000000016df0                Oak_gecidFindEcidEntry
                0x0000000000016ef0                Oak_gecidGetEntryCount
                0x00000000000171e0                Oak_gecidDump
 *fill*         0x0000000000017341        0xf 
 .text          0x0000000000017350      0xaa2 /home/roscube/Desktop/UMSD_v7.0.0_comb/UMSD_v7.0.0/obj/dev/oak/src/api/msdDrv_obj/Oak_msdPortPrioMap.o
                0x0000000000017350                Oak_gqosSetPrioMapRule
                0x00000000000173b0                Oak_gqosGetPrioMapRule
                0x0000000000017450                Oak_gprtSetInitialPri
                0x00000000000174c0                Oak_gprtGetInitialPri
                0x0000000000017590                Oak_gprtSetDefQpri
                0x00000000000175f0                Oak_gprtGetDefQpri
                0x0000000000017690                Oak_gprtSetIEEEPrioMap
                0x00000000000178a0                Oak_gprtGetIEEEPrioMap
                0x0000000000017ac0                Oak_gprtRewriteDscp
                0x0000000000017b20                Oak_gprtSetCosToQueue
                0x0000000000017bb0                Oak_gprtGetCosToQueue
                0x0000000000017c10                Oak_gprtSetCosToDscp
                0x0000000000017ca0                Oak_gprtGetCosToDscp
                0x0000000000017d00                Oak_gprtSetDefFpri
                0x0000000000017d60                Oak_gprtGetDefFpri
 *fill*         0x0000000000017df2        0xe 
 .text          0x0000000000017e00      0x833 /home/roscube/Desktop/UMSD_v7.0.0_comb/UMSD_v7.0.0/obj/dev/oak/src/api/msdDrv_obj/Oak_msdQueueCtrl.o
                0x0000000000017e00                Oak_gprtSetQueueCtrl
                0x0000000000017f10                Oak_gprtGetQueueCtrl
                0x0000000000018050                Oak_gprtSetPortSched
                0x00000000000180a0                Oak_gprtGetPortSched
                0x00000000000181b0                Oak_gsysSetQoSWeight
                0x00000000000183f0                Oak_gsysGetQoSWeight
 *fill*         0x0000000000018633        0xd 
 .text          0x0000000000018640     0x128d /home/roscube/Desktop/UMSD_v7.0.0_comb/UMSD_v7.0.0/obj/dev/oak/src/api/msdDrv_obj/Oak_msdSysCtrl.o
                0x0000000000018640                Oak_gsysSetTrunkMaskTable
                0x0000000000018780                Oak_gsysGetTrunkMaskTable
                0x0000000000018910                Oak_gsysSetHashTrunk
                0x0000000000018940                Oak_gsysGetHashTrunk
                0x00000000000189b0                Oak_gsysSetTrunkRouting
                0x0000000000018b10                Oak_gsysGetTrunkRouting
                0x0000000000018cd0                Oak_gsysSetFloodBC
                0x0000000000018d00                Oak_gsysGetFloodBC
                0x0000000000018d70                Oak_gsysSetEgressMonitorDest
                0x0000000000018dc0                Oak_gsysGetEgressMonitorDest
                0x0000000000018e60                Oak_gsysSetSMISetup
                0x0000000000019040                Oak_gsysGetSMISetup
                0x0000000000019220                Oak_gsysGlobal1RegDump
                0x00000000000192f0                Oak_gsysGlobal2RegDump
                0x00000000000193c0                Oak_gsysSetRMUMode
                0x0000000000019450                Oak_gsysGetRMUMode
                0x00000000000194b0                Oak_gsysQbvWrite
                0x0000000000019580                Oak_gsysQbvRead
                0x0000000000019660                Oak_gsysDevIntEnableSet
                0x0000000000019690                Oak_gsysDevIntEnableGet
                0x0000000000019710                Oak_gsysDevIntStatusGet
                0x0000000000019780                Oak_gsysActiveIntEnableSet
                0x0000000000019810                Oak_gsysActiveIntEnableGet
                0x0000000000019870                Oak_gsysActiveIntStatusGet
 *fill*         0x00000000000198cd        0x3 
 .text          0x00000000000198d0       0xc5 /home/roscube/Desktop/UMSD_v7.0.0_comb/UMSD_v7.0.0/obj/dev/oak/src/api/msdDrv_obj/Oak_msdPhyCtrl.o
                0x00000000000198d0                Oak_serdesReset
 *fill*         0x0000000000019995        0xb 
 .text          0x00000000000199a0     0x1975 /home/roscube/Desktop/UMSD_v7.0.0_comb/UMSD_v7.0.0/obj/dev/oak/src/api/msdDrv_obj/Oak_msdRMU.o
                0x000000000001a170                Oak_msdRmuGetID
                0x000000000001a2a0                Oak_msdRmuAtuDump
                0x000000000001a4c0                Oak_msdRmuEcidDump
                0x000000000001a710                Oak_msdRmuMib2Dump
                0x000000000001ab40                Oak_msdRmuReadRegister
                0x000000000001ab70                Oak_msdRmuWriteRegister
                0x000000000001ab90                Oak_msdRmuMultiRegAccess
                0x000000000001ad80                Oak_msdRmuTCAMDump
                0x000000000001aef0                Oak_msdRmuTCAMWrite
                0x000000000001b0a0                Oak_msdRmuTCAMRead
                0x000000000001b250                Oak_msdRmuRegDump
 *fill*         0x000000000001b315        0xb 
 .text          0x000000000001b320      0xcab /home/roscube/Desktop/UMSD_v7.0.0_comb/UMSD_v7.0.0/obj/dev/oak/src/api/msdDrv_obj/Oak_msdTCAMIntf.o
                0x000000000001b320                Oak_gtcamLoadEntryIntf
                0x000000000001b4f0                Oak_gtcamReadTCAMDataIntf
                0x000000000001b6e0                Oak_gtcamGetNextTCAMDataIntf
                0x000000000001b8d0                Oak_gtcamFindEntryIntf
                0x000000000001bb00                Oak_gtcamSetModeIntf
                0x000000000001bb10                Oak_gtcamGetModeIntf
                0x000000000001bb70                Oak_gtcamEgrFlushEntryIntf
                0x000000000001bb80                Oak_gtcamEgrFlushAllPortsIntf
                0x000000000001bb90                Oak_gtcamEgrLoadEntryIntf
                0x000000000001bc50                Oak_gtcamEgrGetNextTCAMDataIntf
                0x000000000001bd30                Oak_gtcamEgrReadTCAMDataIntf
                0x000000000001be10                Oak_gtcamAdvConfigIntf
 *fill*         0x000000000001bfcb        0x5 
 .text          0x000000000001bfd0      0x57b /home/roscube/Desktop/UMSD_v7.0.0_comb/UMSD_v7.0.0/obj/dev/oak/src/api/msdDrv_obj/Oak_msdBrgFdbIntf.o
                0x000000000001bfd0                Oak_gfdbAddMacEntryIntf
                0x000000000001c050                Oak_gfdbGetAtuEntryNextIntf
                0x000000000001c130                Oak_gfdbFlushIntf
                0x000000000001c140                Oak_gfdbFlushInDBIntf
                0x000000000001c150                Oak_gfdbMoveIntf
                0x000000000001c160                Oak_gfdbMoveInDBIntf
                0x000000000001c170                Oak_gfdbPortRemoveIntf
                0x000000000001c1a0                Oak_gfdbPortRemoveInDBIntf
                0x000000000001c1d0                Oak_gfdbGetViolationIntf
                0x000000000001c2b0                Oak_gfdbFindAtuMacEntryIntf
                0x000000000001c3a0                Oak_gfdbDump
 *fill*         0x000000000001c54b        0x5 
 .text          0x000000000001c550      0x848 /home/roscube/Desktop/UMSD_v7.0.0_comb/UMSD_v7.0.0/obj/dev/oak/src/api/msdDrv_obj/Oak_msdBrgVtuIntf.o
                0x000000000001c550                Oak_gvtuFindVidEntryIntf
                0x000000000001c6c0                Oak_gvtuExistVidEntryIntf
                0x000000000001c760                Oak_gvtuFlushIntf
                0x000000000001c770                Oak_gvtuAddEntryIntf
                0x000000000001c890                Oak_gvtuDelEntryIntf
                0x000000000001c910                Oak_gvtuSetModeIntf
                0x000000000001c920                Oak_gvtuGetModeIntf
                0x000000000001c930                Oak_gvtuGetViolationIntf
                0x000000000001c9f0                Oak_gvtuGetEntryCountIntf
                0x000000000001caa0                Oak_gvtuSetMemberTagIntf
                0x000000000001cb90                Oak_gvtuGetMemberTagIntf
                0x000000000001cc70                Oak_gvtuGetEntryNextIntf
 *fill*         0x000000000001cd98        0x8 
 .text          0x000000000001cda0      0x38c /home/roscube/Desktop/UMSD_v7.0.0_comb/UMSD_v7.0.0/obj/dev/oak/src/api/msdDrv_obj/Oak_msdBrgStuIntf.o
                0x000000000001cda0                Oak_gstuAddEntryIntf
                0x000000000001ce70                Oak_gstuGetEntryNextIntf
                0x000000000001cf20                Oak_gstuDelEntryIntf
                0x000000000001cf80                Oak_gstuFindSidEntryIntf
                0x000000000001d090                Oak_gstuGetEntryCountIntf
 *fill*         0x000000000001d12c        0x4 
 .text          0x000000000001d130      0x40c /home/roscube/Desktop/UMSD_v7.0.0_comb/UMSD_v7.0.0/obj/dev/oak/src/api/msdDrv_obj/Oak_msdPIRLIntf.o
                0x000000000001d130                Oak_gpirlInitializeIntf
                0x000000000001d140                Oak_gpirlInitResourceIntf
                0x000000000001d150                Oak_gpirlCustomSetup_sr2cIntf
                0x000000000001d210                Oak_gpirlReadResourceIntf
                0x000000000001d2f0                Oak_gpirlWriteResourceIntf
                0x000000000001d3b0                Oak_gpirlGetResRegIntf
                0x000000000001d3c0                Oak_gpirlSetResRegIntf
                0x000000000001d3d0                Oak_gpirlAdvConfigIntf
                0x000000000001d4d0                Oak_gpirlAdvConfigDisableIntf
 *fill*         0x000000000001d53c        0x4 
 .text          0x000000000001d540      0x743 /home/roscube/Desktop/UMSD_v7.0.0_comb/UMSD_v7.0.0/obj/dev/oak/src/api/msdDrv_obj/Oak_msdQav.o
                0x000000000001d900                Oak_gqavSetPortQpriXRate
                0x000000000001da30                Oak_gqavGetPortQpriXRate
                0x000000000001db10                Oak_gqavSetPortQpriXHiLimit
                0x000000000001dbe0                Oak_gqavGetPortQpriXHiLimit
 *fill*         0x000000000001dc83        0xd 
 .text          0x000000000001dc90      0x1d4 /home/roscube/Desktop/UMSD_v7.0.0_comb/UMSD_v7.0.0/obj/dev/oak/src/api/msdDrv_obj/Oak_msdArpIntf.o
                0x000000000001dc90                Oak_garpLoadMcEntryIntf
                0x000000000001dcf0                Oak_garpLoadUcEntryIntf
                0x000000000001dd50                Oak_garpReadEntryIntf
                0x000000000001dde0                Oak_garpGetNextEntryIntf
 *fill*         0x000000000001de64        0xc 
 .text          0x000000000001de70      0x239 /home/roscube/Desktop/UMSD_v7.0.0_comb/UMSD_v7.0.0/obj/dev/oak/src/api/msdDrv_obj/Oak_msdPortRmonIntf.o
                0x000000000001de70                Oak_gstatsGetPortCounterIntf
                0x000000000001de80                Oak_gstatsGetPortAllCntersIntf
                0x000000000001e090                Oak_gstatsGetHistogramModeIntf
                0x000000000001e0a0                Oak_gstatsSetHistogramModeIntf
 *fill*         0x000000000001e0a9        0x7 
 .text          0x000000000001e0b0      0x2d9 /home/roscube/Desktop/UMSD_v7.0.0_comb/UMSD_v7.0.0/obj/dev/oak/src/api/msdDrv_obj/Oak_msdPortCtrlIntf.o
                0x000000000001e0b0                Oak_gvlnSetPortVlanQModeIntf
                0x000000000001e0c0                Oak_gvlnGetPortVlanQModeIntf
                0x000000000001e0d0                Oak_gprtSetDiscardTaggedIntf
                0x000000000001e0e0                Oak_gprtGetDiscardTaggedIntf
                0x000000000001e0f0                Oak_gprtSetDiscardUntaggedIntf
                0x000000000001e100                Oak_gprtGetDiscardUntaggedIntf
                0x000000000001e110                Oak_gprtSetUnicFloodBlockIntf
                0x000000000001e120                Oak_gprtGetUnicFloodBlockIntf
                0x000000000001e130                Oak_gprtSetMultiFloodBlockIntf
                0x000000000001e140                Oak_gprtGetMultiFloodBlockIntf
                0x000000000001e150                Oak_gprtSetDiscardBCastModeIntf
                0x000000000001e160                Oak_gprtGetDiscardBCastModeIntf
                0x000000000001e170                Oak_gprtSetJumboModeIntf
                0x000000000001e180                Oak_gprtGetJumboModeIntf
                0x000000000001e190                Oak_gprtSetSpecifiedMTUIntf
                0x000000000001e1a0                Oak_gprtGetSpecifiedMTUIntf
                0x000000000001e1b0                Oak_gprtSetLearnEnableIntf
                0x000000000001e1c0                Oak_gprtGetLearnEnableIntf
                0x000000000001e1d0                Oak_gprtGetVTUPriOverrideIntf
                0x000000000001e1e0                Oak_gprtSetVTUPriOverrideIntf
                0x000000000001e1f0                Oak_gprtGetSAPriOverrideIntf
                0x000000000001e200                Oak_gprtSetSAPriOverrideIntf
                0x000000000001e210                Oak_gprtGetDAPriOverrideIntf
                0x000000000001e220                Oak_gprtSetDAPriOverrideIntf
                0x000000000001e230                Oak_gprtSetFlowCtrlIntf
                0x000000000001e240                Oak_gprtGetFlowCtrlIntf
                0x000000000001e250                Oak_gprtSetForceSpeedIntf
                0x000000000001e270                Oak_gprtGetForceSpeedIntf
                0x000000000001e280                Oak_grcSetEgressRateIntf
                0x000000000001e290                Oak_grcGetEgressRateIntf
                0x000000000001e2a0                Oak_grcSetELimitModeIntf
                0x000000000001e2b0                Oak_grcGetELimitModeIntf
                0x000000000001e2c0                Oak_gprtSetDuplexIntf
                0x000000000001e2d0                Oak_gprtGetDuplexIntf
                0x000000000001e2e0                Oak_gprtGetDuplexStatusIntf
                0x000000000001e2f0                Oak_gprtGetForceLinkIntf
                0x000000000001e300                Oak_gprtSetForceLinkIntf
                0x000000000001e310                Oak_gprtGetSpeedIntf
                0x000000000001e320                Oak_gprtGetFrameModeIntf
                0x000000000001e330                Oak_gprtSetFrameModeIntf
                0x000000000001e340                Oak_gprtSetEgressModeIntf
                0x000000000001e360                Oak_gprtGetEgressModeIntf
                0x000000000001e370                Oak_gprtGetPortStateIntf
                0x000000000001e380                Oak_gprtSetPortStateIntf
 *fill*         0x000000000001e389        0x7 
 .text          0x000000000001e390      0x17d /home/roscube/Desktop/UMSD_v7.0.0_comb/UMSD_v7.0.0/obj/dev/oak/src/api/msdDrv_obj/Oak_msdPortPrioMapIntf.o
                0x000000000001e390                Oak_gqosSetPrioMapRuleIntf
                0x000000000001e3a0                Oak_gqosGetPrioMapRuleIntf
                0x000000000001e3b0                Oak_gprtSetInitialPriIntf
                0x000000000001e3c0                Oak_gprtGetInitialPriIntf
                0x000000000001e3d0                Oak_gprtSetDefQpriIntf
                0x000000000001e3e0                Oak_gprtGetDefQpriIntf
                0x000000000001e3f0                Oak_gprtSetIEEEPrioMapIntf
                0x000000000001e450                Oak_gprtGetIEEEPrioMapIntf
 *fill*         0x000000000001e50d        0x3 
 .text          0x000000000001e510      0x215 /home/roscube/Desktop/UMSD_v7.0.0_comb/UMSD_v7.0.0/obj/dev/oak/src/api/msdDrv_obj/Oak_msdEcidIntf.o
                0x000000000001e510                Oak_gecidAddEntryIntf
                0x000000000001e5a0                Oak_gecidGetEcidEntryNextIntf
                0x000000000001e660                Oak_gecidFindEcidEntryIntf
 *fill*         0x000000000001e725        0xb 
 .text          0x000000000001e730      0x232 /home/roscube/Desktop/UMSD_v7.0.0_comb/UMSD_v7.0.0/obj/dev/oak/src/api/msdDrv_obj/Oak_msdQueueCtrlIntf.o
                0x000000000001e730                Oak_gprtSetQueueCtrlIntf
                0x000000000001e740                Oak_gprtGetQueueCtrlIntf
                0x000000000001e750                Oak_gprtSetPortSchedIntf
                0x000000000001e760                Oak_gprtGetPortSchedIntf
                0x000000000001e770                Oak_gsysSetQoSWeightIntf
                0x000000000001e870                Oak_gsysGetQoSWeightIntf
 .text          0x000000000001e962        0x0 /home/roscube/Desktop/UMSD_v7.0.0_comb/UMSD_v7.0.0/obj/dev/oak/src/api/msdDrv_obj/Oak_msdSysCtrlIntf.o
 .text          0x000000000001e962        0x0 /home/roscube/Desktop/UMSD_v7.0.0_comb/UMSD_v7.0.0/obj/dev/oak/src/api/msdDrv_obj/Oak_msdPhyCtrlIntf.o
 .text          0x000000000001e962        0x0 /home/roscube/Desktop/UMSD_v7.0.0_comb/UMSD_v7.0.0/obj/dev/oak/src/api/msdDrv_obj/Oak_msdPolicyIntf.o
 *fill*         0x000000000001e962        0xe 
 .text          0x000000000001e970      0x53d /home/roscube/Desktop/UMSD_v7.0.0_comb/UMSD_v7.0.0/obj/dev/oak/src/api/msdDrv_obj/Oak_msdTCAMRCIntf.o
                0x000000000001e970                Oak_gtcamRCLoadEntryIntf
                0x000000000001ea90                Oak_gtcamRCReadEntryIntf
                0x000000000001ebe0                Oak_gtcamRCGetNextEntryIntf
                0x000000000001ed30                Oak_gtcamRCFindEntryIntf
 *fill*         0x000000000001eead        0x3 
 .text          0x000000000001eeb0      0xbef /home/roscube/Desktop/UMSD_v7.0.0_comb/UMSD_v7.0.0/obj/dev/oak/src/api/msdDrv_obj/Oak_msdRMUIntf.o
                0x000000000001eeb0                Oak_msdRmuGetIDIntf
                0x000000000001eec0                Oak_msdRmuAtuDumpIntf
                0x000000000001f020                Oak_msdRmuEcidDumpIntf
                0x000000000001f180                Oak_msdRmuMib2DumpIntf
                0x000000000001f390                Oak_msdRmuReadRegisterIntf
                0x000000000001f3a0                Oak_msdRmuWriteRegisterIntf
                0x000000000001f3c0                Oak_msdRmuMultiRegAccessIntf
                0x000000000001f3d0                Oak_msdRmuTCAMDumpIntf
                0x000000000001f6c0                Oak_msdRmuTCAMWriteIntf
                0x000000000001f890                Oak_msdRmuTCAMReadIntf
 *fill*         0x000000000001fa9f        0x1 
 .text          0x000000000001faa0     0x2873 /home/roscube/Desktop/UMSD_v7.0.0_comb/UMSD_v7.0.0/obj/dev/oak/src/api/msdDrv_obj/Oak_msdPTP.o
                0x0000000000020790                Oak_gptpSetIntEnable
                0x0000000000020880                Oak_gptpGetIntEnable
                0x0000000000020930                Oak_gptpSetPortPTPEn
                0x0000000000020a10                Oak_gptpGetPortPTPEn
                0x0000000000020ab0                Oak_gptpGetTimeStamp
                0x0000000000020be0                Oak_gptpGetTSValidSt
                0x0000000000020cb0                Oak_gptpResetTimeStamp
                0x0000000000020d80                Oak_gptpGetIntStatus
                0x0000000000020e40                Oak_gptpSetMeanPathDelay
                0x0000000000020ee0                Oak_gptpGetMeanPathDelay
                0x0000000000020f80                Oak_gptpSetIgrPathDelayAsym
                0x0000000000021020                Oak_gptpGetIgrPathDelayAsym
                0x00000000000210c0                Oak_gptpSetEgrPathDelayAsym
                0x0000000000021160                Oak_gptpGetEgrPathDelayAsym
                0x0000000000021200                Oak_gptpGetTODBusyBitStatus
                0x0000000000021280                Oak_gptpTODStoreCompensation
                0x0000000000021340                Oak_gptpTODStoreAll
                0x0000000000021400                Oak_gptpTODCaptureAll
                0x00000000000216d0                Oak_gptpSetPulse
                0x0000000000021780                Oak_gptpGetPulse
                0x0000000000021820                Oak_gtaiGetPTPGlobalTime
                0x00000000000218a0                Oak_gptpPortRegGet
                0x0000000000021950                Oak_gptpPortRegSet
                0x00000000000219f0                Oak_gptpGlobalRegGet
                0x0000000000021a60                Oak_gptpGlobalRegSet
                0x0000000000021ad0                Oak_gptp1588v2ConfigSet
                0x0000000000021ca0                Oak_gptp8021asConfigSet
                0x0000000000021e60                Oak_gptp8021asRevConfigSet
                0x0000000000022020                Oak_gptpPreemptTimestampSelSet
                0x0000000000022100                Oak_gptpPreemptTimestampSelGet
                0x00000000000221a0                Oak_gptpPreemptCtrlSet
                0x0000000000022280                Oak_gptpPreemptCtrlGet
 *fill*         0x0000000000022313        0xd 
 .text          0x0000000000022320      0x41c /home/roscube/Desktop/UMSD_v7.0.0_comb/UMSD_v7.0.0/obj/dev/oak/src/api/msdDrv_obj/Oak_msdPTPIntf.o
                0x0000000000022320                Oak_gptpSetIntEnableIntf
                0x0000000000022380                Oak_gptpGetIntEnableIntf
                0x00000000000223e0                Oak_gptpGetTimeStampIntf
                0x0000000000022450                Oak_gptpGetIntStatusIntf
                0x00000000000224c0                Oak_gptpTODStoreCompenIntf
                0x0000000000022540                Oak_gptpTODStoreAllIntf
                0x00000000000225c0                Oak_gptpTODCaptureAllIntf
                0x0000000000022650                Oak_gptpSetPulseIntf
                0x00000000000226b0                Oak_gptpGetPulseIntf
                0x0000000000022710                Oak_gptp1588v2ConfigSetIntf
                0x0000000000022720                Oak_gptp8021asConfigSetIntf
                0x0000000000022730                Oak_gptp8021asRevConfigSetIntf
 *fill*         0x000000000002273c        0x4 
 .text          0x0000000000022740      0xdd3 /home/roscube/Desktop/UMSD_v7.0.0_comb/UMSD_v7.0.0/obj/dev/oak/src/api/msdDrv_obj/Oak_msdLed.o
                0x00000000000229a0                Oak_gledForceOn
                0x0000000000022a60                Oak_gledForceOff
                0x0000000000022b20                Oak_gledLinkAct
                0x0000000000022c10                Oak_gledModeSet
                0x0000000000022ce0                Oak_gledModeGet
                0x0000000000022d70                Oak_gledBlinkRateSet
                0x0000000000022e20                Oak_gledBlinkRateGet
                0x0000000000022f00                Oak_gledPulseStretchSet
                0x0000000000022fb0                Oak_gledPulseStretchGet
                0x0000000000023080                Oak_gledSpecialModeSet
                0x0000000000023130                Oak_gledSpecialModeGet
                0x00000000000231a0                Oak_gledCtrlSet
                0x00000000000231e0                Oak_gledCtrlGet
                0x0000000000023250                Oak_gledDump
 *fill*         0x0000000000023513        0xd 
 .text          0x0000000000023520       0xcc /home/roscube/Desktop/UMSD_v7.0.0_comb/UMSD_v7.0.0/obj/dev/oak/src/api/msdDrv_obj/Oak_msdLedIntf.o
                0x0000000000023520                Oak_gledForceOnIntf
                0x0000000000023530                Oak_gledForceOffIntf
                0x0000000000023540                Oak_gledLinkActIntf
                0x0000000000023550                Oak_gledModeSetIntf
                0x0000000000023560                Oak_gledModeGetIntf
                0x0000000000023570                Oak_gledBlinkRateSetIntf
                0x0000000000023580                Oak_gledBlinkRateGetIntf
                0x0000000000023590                Oak_gledPulseStretchSetIntf
                0x00000000000235a0                Oak_gledPulseStretchGetIntf
                0x00000000000235b0                Oak_gledSpecialModeSetIntf
                0x00000000000235c0                Oak_gledSpecialModeGetIntf
                0x00000000000235d0                Oak_gledCtrlSetIntf
                0x00000000000235e0                Oak_gledCtrlGetIntf
 *fill*         0x00000000000235ec        0x4 
 .text          0x00000000000235f0      0x1c4 /home/roscube/Desktop/UMSD_v7.0.0_comb/UMSD_v7.0.0/obj/dev/oak/src/api/msdDrv_obj/Oak_msdTCAMRCCompIntf.o
                0x00000000000235f0                Oak_gtcamRCCompLoadIntf
                0x00000000000236d0                Oak_gtcamRCCompReadIntf
 *fill*         0x00000000000237b4        0xc 
 .text          0x00000000000237c0      0x495 /home/roscube/Desktop/UMSD_v7.0.0_comb/UMSD_v7.0.0/obj/dev/oak/src/api/msdDrv_obj/Oak_msdEEPROM.o
                0x00000000000237c0                Oak_EEPROMWrite
                0x00000000000238f0                Oak_EEPROMRead
                0x0000000000023a50                Oak_EEPROMChipSelSet
                0x0000000000023b20                Oak_EEPROMChipSelGet
 *fill*         0x0000000000023c55        0xb 
 .text          0x0000000000023c60       0x39 /home/roscube/Desktop/UMSD_v7.0.0_comb/UMSD_v7.0.0/obj/dev/oak/src/api/msdDrv_obj/Oak_msdEEPROMIntf.o
                0x0000000000023c60                Oak_EEPROMWriteIntf
                0x0000000000023c70                Oak_EEPROMReadIntf
                0x0000000000023c80                Oak_EEPROMChipSelSetIntf
                0x0000000000023c90                Oak_EEPROMChipSelGetIntf
 *(.gnu.warning)

.text.unlikely  0x0000000000000000       0x28
 .text.unlikely
                0x0000000000000000        0xa /home/roscube/Desktop/UMSD_v7.0.0_comb/UMSD_v7.0.0/obj/dev/oak/src/api/msdDrv_obj/Oak_msdPolicy.o
 .text.unlikely
                0x000000000000000a        0xa /home/roscube/Desktop/UMSD_v7.0.0_comb/UMSD_v7.0.0/obj/dev/oak/src/api/msdDrv_obj/Oak_msdQueueCtrl.o
 .text.unlikely
                0x0000000000000014       0x14 /home/roscube/Desktop/UMSD_v7.0.0_comb/UMSD_v7.0.0/obj/dev/oak/src/api/msdDrv_obj/Oak_msdLed.o

.fini
 *(SORT_NONE(.fini))

.rodata         0x0000000000000000     0x130c
 *(.rodata)
 .rodata        0x0000000000000000       0x14 /home/roscube/Desktop/UMSD_v7.0.0_comb/UMSD_v7.0.0/obj/dev/oak/src/api/msdDrv_obj/Oak_msdPolicy.o
 *fill*         0x0000000000000014        0xc 
 .rodata        0x0000000000000020      0x64c /home/roscube/Desktop/UMSD_v7.0.0_comb/UMSD_v7.0.0/obj/dev/oak/src/api/msdDrv_obj/Oak_msdPortCtrl.o
 .rodata        0x000000000000066c       0x40 /home/roscube/Desktop/UMSD_v7.0.0_comb/UMSD_v7.0.0/obj/dev/oak/src/api/msdDrv_obj/Oak_msdPortPrioMap.o
 .rodata        0x00000000000006ac       0x20 /home/roscube/Desktop/UMSD_v7.0.0_comb/UMSD_v7.0.0/obj/dev/oak/src/api/msdDrv_obj/Oak_msdQueueCtrl.o
 *fill*         0x00000000000006cc       0x14 
 .rodata        0x00000000000006e0      0xc00 /home/roscube/Desktop/UMSD_v7.0.0_comb/UMSD_v7.0.0/obj/dev/oak/src/api/msdDrv_obj/Oak_msdSysCtrl.o
 .rodata        0x00000000000012e0       0x2c /home/roscube/Desktop/UMSD_v7.0.0_comb/UMSD_v7.0.0/obj/dev/oak/src/api/msdDrv_obj/Oak_msdLed.o

.rodata.str1.8  0x0000000000000000     0x340d
 .rodata.str1.8
                0x0000000000000000       0xa4 /home/roscube/Desktop/UMSD_v7.0.0_comb/UMSD_v7.0.0/obj/dev/oak/src/api/msdDrv_obj/Oak_msdTCAM.o
 *fill*         0x00000000000000a4        0x4 
 .rodata.str1.8
                0x00000000000000a8       0x2d /home/roscube/Desktop/UMSD_v7.0.0_comb/UMSD_v7.0.0/obj/dev/oak/src/api/msdDrv_obj/Oak_msdTCAMRC.o
 *fill*         0x00000000000000d5        0x3 
 .rodata.str1.8
                0x00000000000000d8     0x21d1 /home/roscube/Desktop/UMSD_v7.0.0_comb/UMSD_v7.0.0/obj/dev/oak/src/api/msdDrv_obj/Oak_msdPolicy.o
 *fill*         0x00000000000022a9        0x7 
 .rodata.str1.8
                0x00000000000022b0      0x21c /home/roscube/Desktop/UMSD_v7.0.0_comb/UMSD_v7.0.0/obj/dev/oak/src/api/msdDrv_obj/Oak_msdBrgVtu.o
 *fill*         0x00000000000024cc        0x4 
 .rodata.str1.8
                0x00000000000024d0       0x69 /home/roscube/Desktop/UMSD_v7.0.0_comb/UMSD_v7.0.0/obj/dev/oak/src/api/msdDrv_obj/Oak_msdBrgStu.o
 *fill*         0x0000000000002539        0x7 
 .rodata.str1.8
                0x0000000000002540      0xa22 /home/roscube/Desktop/UMSD_v7.0.0_comb/UMSD_v7.0.0/obj/dev/oak/src/api/msdDrv_obj/Oak_msdPortRmon.o
 *fill*         0x0000000000002f62        0x6 
 .rodata.str1.8
                0x0000000000002f68       0x39 /home/roscube/Desktop/UMSD_v7.0.0_comb/UMSD_v7.0.0/obj/dev/oak/src/api/msdDrv_obj/Oak_msdPortCtrl.o
 *fill*         0x0000000000002fa1        0x7 
 .rodata.str1.8
                0x0000000000002fa8      0x117 /home/roscube/Desktop/UMSD_v7.0.0_comb/UMSD_v7.0.0/obj/dev/oak/src/api/msdDrv_obj/Oak_msdEcid.o
 *fill*         0x00000000000030bf        0x1 
 .rodata.str1.8
                0x00000000000030c0       0x73 /home/roscube/Desktop/UMSD_v7.0.0_comb/UMSD_v7.0.0/obj/dev/oak/src/api/msdDrv_obj/Oak_msdSysCtrl.o
 *fill*         0x0000000000003133        0x5 
 .rodata.str1.8
                0x0000000000003138      0x10c /home/roscube/Desktop/UMSD_v7.0.0_comb/UMSD_v7.0.0/obj/dev/oak/src/api/msdDrv_obj/Oak_msdBrgFdbIntf.o
 *fill*         0x0000000000003244        0x4 
 .rodata.str1.8
                0x0000000000003248      0x1c5 /home/roscube/Desktop/UMSD_v7.0.0_comb/UMSD_v7.0.0/obj/dev/oak/src/api/msdDrv_obj/Oak_msdLed.o

.rodata.str1.1  0x0000000000000000      0x871
 .rodata.str1.1
                0x0000000000000000      0x410 /home/roscube/Desktop/UMSD_v7.0.0_comb/UMSD_v7.0.0/obj/dev/oak/src/api/msdDrv_obj/Oak_msdTCAM.o
 .rodata.str1.1
                0x0000000000000410      0x35a /home/roscube/Desktop/UMSD_v7.0.0_comb/UMSD_v7.0.0/obj/dev/oak/src/api/msdDrv_obj/Oak_msdTCAMRC.o
 .rodata.str1.1
                0x000000000000076a        0x2 /home/roscube/Desktop/UMSD_v7.0.0_comb/UMSD_v7.0.0/obj/dev/oak/src/api/msdDrv_obj/Oak_msdBrgVtu.o
 .rodata.str1.1
                0x000000000000076c       0x20 /home/roscube/Desktop/UMSD_v7.0.0_comb/UMSD_v7.0.0/obj/dev/oak/src/api/msdDrv_obj/Oak_msdBrgStu.o
 .rodata.str1.1
                0x000000000000078c        0x2 /home/roscube/Desktop/UMSD_v7.0.0_comb/UMSD_v7.0.0/obj/dev/oak/src/api/msdDrv_obj/Oak_msdPortRmon.o
 .rodata.str1.1
                0x000000000000078e        0xb /home/roscube/Desktop/UMSD_v7.0.0_comb/UMSD_v7.0.0/obj/dev/oak/src/api/msdDrv_obj/Oak_msdPortCtrl.o
 .rodata.str1.1
                0x0000000000000799       0x16 /home/roscube/Desktop/UMSD_v7.0.0_comb/UMSD_v7.0.0/obj/dev/oak/src/api/msdDrv_obj/Oak_msdSysCtrl.o
 .rodata.str1.1
                0x00000000000007af        0x2 /home/roscube/Desktop/UMSD_v7.0.0_comb/UMSD_v7.0.0/obj/dev/oak/src/api/msdDrv_obj/Oak_msdBrgFdbIntf.o
 .rodata.str1.1
                0x00000000000007b1       0xc0 /home/roscube/Desktop/UMSD_v7.0.0_comb/UMSD_v7.0.0/obj/dev/oak/src/api/msdDrv_obj/Oak_msdLed.o

.rodata.cst8    0x0000000000000000       0x18
 .rodata.cst8   0x0000000000000000       0x18 /home/roscube/Desktop/UMSD_v7.0.0_comb/UMSD_v7.0.0/obj/dev/oak/src/api/msdDrv_obj/Oak_msdPIRL.o

.rodata1
 *(.rodata1)

.eh_frame_hdr
 *(.eh_frame_hdr)

.eh_frame       0x0000000000000000     0x7768
 *(.eh_frame)
 .eh_frame      0x0000000000000000      0x4a8 /home/roscube/Desktop/UMSD_v7.0.0_comb/UMSD_v7.0.0/obj/dev/oak/src/api/msdDrv_obj/Oak_msdTCAM.o
 .eh_frame      0x00000000000004a8      0x238 /home/roscube/Desktop/UMSD_v7.0.0_comb/UMSD_v7.0.0/obj/dev/oak/src/api/msdDrv_obj/Oak_msdTCAMRC.o
 .eh_frame      0x00000000000006e0      0x138 /home/roscube/Desktop/UMSD_v7.0.0_comb/UMSD_v7.0.0/obj/dev/oak/src/api/msdDrv_obj/Oak_msdTCAMRCComp.o
 .eh_frame      0x0000000000000818      0x430 /home/roscube/Desktop/UMSD_v7.0.0_comb/UMSD_v7.0.0/obj/dev/oak/src/api/msdDrv_obj/Oak_msdBrgFdb.o
 .eh_frame      0x0000000000000c48     0x1440 /home/roscube/Desktop/UMSD_v7.0.0_comb/UMSD_v7.0.0/obj/dev/oak/src/api/msdDrv_obj/Oak_msdPolicy.o
 .eh_frame      0x0000000000002088      0x2c8 /home/roscube/Desktop/UMSD_v7.0.0_comb/UMSD_v7.0.0/obj/dev/oak/src/api/msdDrv_obj/Oak_msdBrgVtu.o
 .eh_frame      0x0000000000002350      0x150 /home/roscube/Desktop/UMSD_v7.0.0_comb/UMSD_v7.0.0/obj/dev/oak/src/api/msdDrv_obj/Oak_msdArp.o
 .eh_frame      0x00000000000024a0      0x190 /home/roscube/Desktop/UMSD_v7.0.0_comb/UMSD_v7.0.0/obj/dev/oak/src/api/msdDrv_obj/Oak_msdBrgStu.o
 .eh_frame      0x0000000000002630      0x200 /home/roscube/Desktop/UMSD_v7.0.0_comb/UMSD_v7.0.0/obj/dev/oak/src/api/msdDrv_obj/Oak_msdPIRL.o
 .eh_frame      0x0000000000002830      0x1b8 /home/roscube/Desktop/UMSD_v7.0.0_comb/UMSD_v7.0.0/obj/dev/oak/src/api/msdDrv_obj/Oak_msdPortRmon.o
 .eh_frame      0x00000000000029e8     0x1880 /home/roscube/Desktop/UMSD_v7.0.0_comb/UMSD_v7.0.0/obj/dev/oak/src/api/msdDrv_obj/Oak_msdPortCtrl.o
 .eh_frame      0x0000000000004268      0x2d8 /home/roscube/Desktop/UMSD_v7.0.0_comb/UMSD_v7.0.0/obj/dev/oak/src/api/msdDrv_obj/Oak_msdEcid.o
 .eh_frame      0x0000000000004540      0x340 /home/roscube/Desktop/UMSD_v7.0.0_comb/UMSD_v7.0.0/obj/dev/oak/src/api/msdDrv_obj/Oak_msdPortPrioMap.o
 .eh_frame      0x0000000000004880      0x1d0 /home/roscube/Desktop/UMSD_v7.0.0_comb/UMSD_v7.0.0/obj/dev/oak/src/api/msdDrv_obj/Oak_msdQueueCtrl.o
 .eh_frame      0x0000000000004a50      0x4d0 /home/roscube/Desktop/UMSD_v7.0.0_comb/UMSD_v7.0.0/obj/dev/oak/src/api/msdDrv_obj/Oak_msdSysCtrl.o
 .eh_frame      0x0000000000004f20       0x50 /home/roscube/Desktop/UMSD_v7.0.0_comb/UMSD_v7.0.0/obj/dev/oak/src/api/msdDrv_obj/Oak_msdPhyCtrl.o
 .eh_frame      0x0000000000004f70      0x340 /home/roscube/Desktop/UMSD_v7.0.0_comb/UMSD_v7.0.0/obj/dev/oak/src/api/msdDrv_obj/Oak_msdRMU.o
 .eh_frame      0x00000000000052b0      0x200 /home/roscube/Desktop/UMSD_v7.0.0_comb/UMSD_v7.0.0/obj/dev/oak/src/api/msdDrv_obj/Oak_msdTCAMIntf.o
 .eh_frame      0x00000000000054b0      0x1e8 /home/roscube/Desktop/UMSD_v7.0.0_comb/UMSD_v7.0.0/obj/dev/oak/src/api/msdDrv_obj/Oak_msdBrgFdbIntf.o
 .eh_frame      0x0000000000005698      0x268 /home/roscube/Desktop/UMSD_v7.0.0_comb/UMSD_v7.0.0/obj/dev/oak/src/api/msdDrv_obj/Oak_msdBrgVtuIntf.o
 .eh_frame      0x0000000000005900      0x108 /home/roscube/Desktop/UMSD_v7.0.0_comb/UMSD_v7.0.0/obj/dev/oak/src/api/msdDrv_obj/Oak_msdBrgStuIntf.o
 .eh_frame      0x0000000000005a08      0x160 /home/roscube/Desktop/UMSD_v7.0.0_comb/UMSD_v7.0.0/obj/dev/oak/src/api/msdDrv_obj/Oak_msdPIRLIntf.o
 .eh_frame      0x0000000000005b68      0x158 /home/roscube/Desktop/UMSD_v7.0.0_comb/UMSD_v7.0.0/obj/dev/oak/src/api/msdDrv_obj/Oak_msdQav.o
 .eh_frame      0x0000000000005cc0       0xb8 /home/roscube/Desktop/UMSD_v7.0.0_comb/UMSD_v7.0.0/obj/dev/oak/src/api/msdDrv_obj/Oak_msdArpIntf.o
 .eh_frame      0x0000000000005d78       0x80 /home/roscube/Desktop/UMSD_v7.0.0_comb/UMSD_v7.0.0/obj/dev/oak/src/api/msdDrv_obj/Oak_msdPortRmonIntf.o
 .eh_frame      0x0000000000005df8      0x388 /home/roscube/Desktop/UMSD_v7.0.0_comb/UMSD_v7.0.0/obj/dev/oak/src/api/msdDrv_obj/Oak_msdPortCtrlIntf.o
 .eh_frame      0x0000000000006180       0xf8 /home/roscube/Desktop/UMSD_v7.0.0_comb/UMSD_v7.0.0/obj/dev/oak/src/api/msdDrv_obj/Oak_msdPortPrioMapIntf.o
 .eh_frame      0x0000000000006278       0x98 /home/roscube/Desktop/UMSD_v7.0.0_comb/UMSD_v7.0.0/obj/dev/oak/src/api/msdDrv_obj/Oak_msdEcidIntf.o
 .eh_frame      0x0000000000006310       0xa8 /home/roscube/Desktop/UMSD_v7.0.0_comb/UMSD_v7.0.0/obj/dev/oak/src/api/msdDrv_obj/Oak_msdQueueCtrlIntf.o
 .eh_frame      0x00000000000063b8       0xe0 /home/roscube/Desktop/UMSD_v7.0.0_comb/UMSD_v7.0.0/obj/dev/oak/src/api/msdDrv_obj/Oak_msdTCAMRCIntf.o
 .eh_frame      0x0000000000006498      0x1e0 /home/roscube/Desktop/UMSD_v7.0.0_comb/UMSD_v7.0.0/obj/dev/oak/src/api/msdDrv_obj/Oak_msdRMUIntf.o
 .eh_frame      0x0000000000006678      0x898 /home/roscube/Desktop/UMSD_v7.0.0_comb/UMSD_v7.0.0/obj/dev/oak/src/api/msdDrv_obj/Oak_msdPTP.o
 .eh_frame      0x0000000000006f10      0x178 /home/roscube/Desktop/UMSD_v7.0.0_comb/UMSD_v7.0.0/obj/dev/oak/src/api/msdDrv_obj/Oak_msdPTPIntf.o
 .eh_frame      0x0000000000007088      0x400 /home/roscube/Desktop/UMSD_v7.0.0_comb/UMSD_v7.0.0/obj/dev/oak/src/api/msdDrv_obj/Oak_msdLed.o
 .eh_frame      0x0000000000007488      0x120 /home/roscube/Desktop/UMSD_v7.0.0_comb/UMSD_v7.0.0/obj/dev/oak/src/api/msdDrv_obj/Oak_msdLedIntf.o
 .eh_frame      0x00000000000075a8       0x58 /home/roscube/Desktop/UMSD_v7.0.0_comb/UMSD_v7.0.0/obj/dev/oak/src/api/msdDrv_obj/Oak_msdTCAMRCCompIntf.o
 .eh_frame      0x0000000000007600      0x100 /home/roscube/Desktop/UMSD_v7.0.0_comb/UMSD_v7.0.0/obj/dev/oak/src/api/msdDrv_obj/Oak_msdEEPROM.o
 .eh_frame      0x0000000000007700       0x68 /home/roscube/Desktop/UMSD_v7.0.0_comb/UMSD_v7.0.0/obj/dev/oak/src/api/msdDrv_obj/Oak_msdEEPROMIntf.o

.gcc_except_table
 *(.gcc_except_table)

.gnu_extab
 *(.gnu_extab*)

.exception_ranges
 *(.exception_ranges)

.eh_frame
 *(.eh_frame)

.gnu_extab
 *(.gnu_extab)

.gcc_except_table
 *(.gcc_except_table)

.exception_ranges
 *(.exception_ranges)

.tdata
 *(.tdata)

.tbss
 *(.tbss)

.jcr
 *(.jcr)

.dynamic
 *(.dynamic)

.got
 *(.got)

.got.plt
 *(.got.plt)

.data           0x0000000000000000        0x0
 *(.data)
 .data          0x0000000000000000        0x0 /home/roscube/Desktop/UMSD_v7.0.0_comb/UMSD_v7.0.0/obj/dev/oak/src/api/msdDrv_obj/Oak_msdTCAM.o
 .data          0x0000000000000000        0x0 /home/roscube/Desktop/UMSD_v7.0.0_comb/UMSD_v7.0.0/obj/dev/oak/src/api/msdDrv_obj/Oak_msdTCAMRC.o
 .data          0x0000000000000000        0x0 /home/roscube/Desktop/UMSD_v7.0.0_comb/UMSD_v7.0.0/obj/dev/oak/src/api/msdDrv_obj/Oak_msdTCAMRCComp.o
 .data          0x0000000000000000        0x0 /home/roscube/Desktop/UMSD_v7.0.0_comb/UMSD_v7.0.0/obj/dev/oak/src/api/msdDrv_obj/Oak_msdBrgFdb.o
 .data          0x0000000000000000        0x0 /home/roscube/Desktop/UMSD_v7.0.0_comb/UMSD_v7.0.0/obj/dev/oak/src/api/msdDrv_obj/Oak_msdPolicy.o
 .data          0x0000000000000000        0x0 /home/roscube/Desktop/UMSD_v7.0.0_comb/UMSD_v7.0.0/obj/dev/oak/src/api/msdDrv_obj/Oak_msdBrgVtu.o
 .data          0x0000000000000000        0x0 /home/roscube/Desktop/UMSD_v7.0.0_comb/UMSD_v7.0.0/obj/dev/oak/src/api/msdDrv_obj/Oak_msdArp.o
 .data          0x0000000000000000        0x0 /home/roscube/Desktop/UMSD_v7.0.0_comb/UMSD_v7.0.0/obj/dev/oak/src/api/msdDrv_obj/Oak_msdBrgStu.o
 .data          0x0000000000000000        0x0 /home/roscube/Desktop/UMSD_v7.0.0_comb/UMSD_v7.0.0/obj/dev/oak/src/api/msdDrv_obj/Oak_msdPIRL.o
 .data          0x0000000000000000        0x0 /home/roscube/Desktop/UMSD_v7.0.0_comb/UMSD_v7.0.0/obj/dev/oak/src/api/msdDrv_obj/Oak_msdPortRmon.o
 .data          0x0000000000000000        0x0 /home/roscube/Desktop/UMSD_v7.0.0_comb/UMSD_v7.0.0/obj/dev/oak/src/api/msdDrv_obj/Oak_msdPortCtrl.o
 .data          0x0000000000000000        0x0 /home/roscube/Desktop/UMSD_v7.0.0_comb/UMSD_v7.0.0/obj/dev/oak/src/api/msdDrv_obj/Oak_msdEcid.o
 .data          0x0000000000000000        0x0 /home/roscube/Desktop/UMSD_v7.0.0_comb/UMSD_v7.0.0/obj/dev/oak/src/api/msdDrv_obj/Oak_msdPortPrioMap.o
 .data          0x0000000000000000        0x0 /home/roscube/Desktop/UMSD_v7.0.0_comb/UMSD_v7.0.0/obj/dev/oak/src/api/msdDrv_obj/Oak_msdQueueCtrl.o
 .data          0x0000000000000000        0x0 /home/roscube/Desktop/UMSD_v7.0.0_comb/UMSD_v7.0.0/obj/dev/oak/src/api/msdDrv_obj/Oak_msdSysCtrl.o
 .data          0x0000000000000000        0x0 /home/roscube/Desktop/UMSD_v7.0.0_comb/UMSD_v7.0.0/obj/dev/oak/src/api/msdDrv_obj/Oak_msdPhyCtrl.o
 .data          0x0000000000000000        0x0 /home/roscube/Desktop/UMSD_v7.0.0_comb/UMSD_v7.0.0/obj/dev/oak/src/api/msdDrv_obj/Oak_msdRMU.o
 .data          0x0000000000000000        0x0 /home/roscube/Desktop/UMSD_v7.0.0_comb/UMSD_v7.0.0/obj/dev/oak/src/api/msdDrv_obj/Oak_msdTCAMIntf.o
 .data          0x0000000000000000        0x0 /home/roscube/Desktop/UMSD_v7.0.0_comb/UMSD_v7.0.0/obj/dev/oak/src/api/msdDrv_obj/Oak_msdBrgFdbIntf.o
 .data          0x0000000000000000        0x0 /home/roscube/Desktop/UMSD_v7.0.0_comb/UMSD_v7.0.0/obj/dev/oak/src/api/msdDrv_obj/Oak_msdBrgVtuIntf.o
 .data          0x0000000000000000        0x0 /home/roscube/Desktop/UMSD_v7.0.0_comb/UMSD_v7.0.0/obj/dev/oak/src/api/msdDrv_obj/Oak_msdBrgStuIntf.o
 .data          0x0000000000000000        0x0 /home/roscube/Desktop/UMSD_v7.0.0_comb/UMSD_v7.0.0/obj/dev/oak/src/api/msdDrv_obj/Oak_msdPIRLIntf.o
 .data          0x0000000000000000        0x0 /home/roscube/Desktop/UMSD_v7.0.0_comb/UMSD_v7.0.0/obj/dev/oak/src/api/msdDrv_obj/Oak_msdQav.o
 .data          0x0000000000000000        0x0 /home/roscube/Desktop/UMSD_v7.0.0_comb/UMSD_v7.0.0/obj/dev/oak/src/api/msdDrv_obj/Oak_msdArpIntf.o
 .data          0x0000000000000000        0x0 /home/roscube/Desktop/UMSD_v7.0.0_comb/UMSD_v7.0.0/obj/dev/oak/src/api/msdDrv_obj/Oak_msdPortRmonIntf.o
 .data          0x0000000000000000        0x0 /home/roscube/Desktop/UMSD_v7.0.0_comb/UMSD_v7.0.0/obj/dev/oak/src/api/msdDrv_obj/Oak_msdPortCtrlIntf.o
 .data          0x0000000000000000        0x0 /home/roscube/Desktop/UMSD_v7.0.0_comb/UMSD_v7.0.0/obj/dev/oak/src/api/msdDrv_obj/Oak_msdPortPrioMapIntf.o
 .data          0x0000000000000000        0x0 /home/roscube/Desktop/UMSD_v7.0.0_comb/UMSD_v7.0.0/obj/dev/oak/src/api/msdDrv_obj/Oak_msdEcidIntf.o
 .data          0x0000000000000000        0x0 /home/roscube/Desktop/UMSD_v7.0.0_comb/UMSD_v7.0.0/obj/dev/oak/src/api/msdDrv_obj/Oak_msdQueueCtrlIntf.o
 .data          0x0000000000000000        0x0 /home/roscube/Desktop/UMSD_v7.0.0_comb/UMSD_v7.0.0/obj/dev/oak/src/api/msdDrv_obj/Oak_msdSysCtrlIntf.o
 .data          0x0000000000000000        0x0 /home/roscube/Desktop/UMSD_v7.0.0_comb/UMSD_v7.0.0/obj/dev/oak/src/api/msdDrv_obj/Oak_msdPhyCtrlIntf.o
 .data          0x0000000000000000        0x0 /home/roscube/Desktop/UMSD_v7.0.0_comb/UMSD_v7.0.0/obj/dev/oak/src/api/msdDrv_obj/Oak_msdPolicyIntf.o
 .data          0x0000000000000000        0x0 /home/roscube/Desktop/UMSD_v7.0.0_comb/UMSD_v7.0.0/obj/dev/oak/src/api/msdDrv_obj/Oak_msdTCAMRCIntf.o
 .data          0x0000000000000000        0x0 /home/roscube/Desktop/UMSD_v7.0.0_comb/UMSD_v7.0.0/obj/dev/oak/src/api/msdDrv_obj/Oak_msdRMUIntf.o
 .data          0x0000000000000000        0x0 /home/roscube/Desktop/UMSD_v7.0.0_comb/UMSD_v7.0.0/obj/dev/oak/src/api/msdDrv_obj/Oak_msdPTP.o
 .data          0x0000000000000000        0x0 /home/roscube/Desktop/UMSD_v7.0.0_comb/UMSD_v7.0.0/obj/dev/oak/src/api/msdDrv_obj/Oak_msdPTPIntf.o
 .data          0x0000000000000000        0x0 /home/roscube/Desktop/UMSD_v7.0.0_comb/UMSD_v7.0.0/obj/dev/oak/src/api/msdDrv_obj/Oak_msdLed.o
 .data          0x0000000000000000        0x0 /home/roscube/Desktop/UMSD_v7.0.0_comb/UMSD_v7.0.0/obj/dev/oak/src/api/msdDrv_obj/Oak_msdLedIntf.o
 .data          0x0000000000000000        0x0 /home/roscube/Desktop/UMSD_v7.0.0_comb/UMSD_v7.0.0/obj/dev/oak/src/api/msdDrv_obj/Oak_msdTCAMRCCompIntf.o
 .data          0x0000000000000000        0x0 /home/roscube/Desktop/UMSD_v7.0.0_comb/UMSD_v7.0.0/obj/dev/oak/src/api/msdDrv_obj/Oak_msdEEPROM.o
 .data          0x0000000000000000        0x0 /home/roscube/Desktop/UMSD_v7.0.0_comb/UMSD_v7.0.0/obj/dev/oak/src/api/msdDrv_obj/Oak_msdEEPROMIntf.o

.data1
 *(.data1)

.bss            0x0000000000000000        0x0
 *(.bss)
 .bss           0x0000000000000000        0x0 /home/roscube/Desktop/UMSD_v7.0.0_comb/UMSD_v7.0.0/obj/dev/oak/src/api/msdDrv_obj/Oak_msdTCAM.o
 .bss           0x0000000000000000        0x0 /home/roscube/Desktop/UMSD_v7.0.0_comb/UMSD_v7.0.0/obj/dev/oak/src/api/msdDrv_obj/Oak_msdTCAMRC.o
 .bss           0x0000000000000000        0x0 /home/roscube/Desktop/UMSD_v7.0.0_comb/UMSD_v7.0.0/obj/dev/oak/src/api/msdDrv_obj/Oak_msdTCAMRCComp.o
 .bss           0x0000000000000000        0x0 /home/roscube/Desktop/UMSD_v7.0.0_comb/UMSD_v7.0.0/obj/dev/oak/src/api/msdDrv_obj/Oak_msdBrgFdb.o
 .bss           0x0000000000000000        0x0 /home/roscube/Desktop/UMSD_v7.0.0_comb/UMSD_v7.0.0/obj/dev/oak/src/api/msdDrv_obj/Oak_msdPolicy.o
 .bss           0x0000000000000000        0x0 /home/roscube/Desktop/UMSD_v7.0.0_comb/UMSD_v7.0.0/obj/dev/oak/src/api/msdDrv_obj/Oak_msdBrgVtu.o
 .bss           0x0000000000000000        0x0 /home/roscube/Desktop/UMSD_v7.0.0_comb/UMSD_v7.0.0/obj/dev/oak/src/api/msdDrv_obj/Oak_msdArp.o
 .bss           0x0000000000000000        0x0 /home/roscube/Desktop/UMSD_v7.0.0_comb/UMSD_v7.0.0/obj/dev/oak/src/api/msdDrv_obj/Oak_msdBrgStu.o
 .bss           0x0000000000000000        0x0 /home/roscube/Desktop/UMSD_v7.0.0_comb/UMSD_v7.0.0/obj/dev/oak/src/api/msdDrv_obj/Oak_msdPIRL.o
 .bss           0x0000000000000000        0x0 /home/roscube/Desktop/UMSD_v7.0.0_comb/UMSD_v7.0.0/obj/dev/oak/src/api/msdDrv_obj/Oak_msdPortRmon.o
 .bss           0x0000000000000000        0x0 /home/roscube/Desktop/UMSD_v7.0.0_comb/UMSD_v7.0.0/obj/dev/oak/src/api/msdDrv_obj/Oak_msdPortCtrl.o
 .bss           0x0000000000000000        0x0 /home/roscube/Desktop/UMSD_v7.0.0_comb/UMSD_v7.0.0/obj/dev/oak/src/api/msdDrv_obj/Oak_msdEcid.o
 .bss           0x0000000000000000        0x0 /home/roscube/Desktop/UMSD_v7.0.0_comb/UMSD_v7.0.0/obj/dev/oak/src/api/msdDrv_obj/Oak_msdPortPrioMap.o
 .bss           0x0000000000000000        0x0 /home/roscube/Desktop/UMSD_v7.0.0_comb/UMSD_v7.0.0/obj/dev/oak/src/api/msdDrv_obj/Oak_msdQueueCtrl.o
 .bss           0x0000000000000000        0x0 /home/roscube/Desktop/UMSD_v7.0.0_comb/UMSD_v7.0.0/obj/dev/oak/src/api/msdDrv_obj/Oak_msdSysCtrl.o
 .bss           0x0000000000000000        0x0 /home/roscube/Desktop/UMSD_v7.0.0_comb/UMSD_v7.0.0/obj/dev/oak/src/api/msdDrv_obj/Oak_msdPhyCtrl.o
 .bss           0x0000000000000000        0x0 /home/roscube/Desktop/UMSD_v7.0.0_comb/UMSD_v7.0.0/obj/dev/oak/src/api/msdDrv_obj/Oak_msdRMU.o
 .bss           0x0000000000000000        0x0 /home/roscube/Desktop/UMSD_v7.0.0_comb/UMSD_v7.0.0/obj/dev/oak/src/api/msdDrv_obj/Oak_msdTCAMIntf.o
 .bss           0x0000000000000000        0x0 /home/roscube/Desktop/UMSD_v7.0.0_comb/UMSD_v7.0.0/obj/dev/oak/src/api/msdDrv_obj/Oak_msdBrgFdbIntf.o
 .bss           0x0000000000000000        0x0 /home/roscube/Desktop/UMSD_v7.0.0_comb/UMSD_v7.0.0/obj/dev/oak/src/api/msdDrv_obj/Oak_msdBrgVtuIntf.o
 .bss           0x0000000000000000        0x0 /home/roscube/Desktop/UMSD_v7.0.0_comb/UMSD_v7.0.0/obj/dev/oak/src/api/msdDrv_obj/Oak_msdBrgStuIntf.o
 .bss           0x0000000000000000        0x0 /home/roscube/Desktop/UMSD_v7.0.0_comb/UMSD_v7.0.0/obj/dev/oak/src/api/msdDrv_obj/Oak_msdPIRLIntf.o
 .bss           0x0000000000000000        0x0 /home/roscube/Desktop/UMSD_v7.0.0_comb/UMSD_v7.0.0/obj/dev/oak/src/api/msdDrv_obj/Oak_msdQav.o
 .bss           0x0000000000000000        0x0 /home/roscube/Desktop/UMSD_v7.0.0_comb/UMSD_v7.0.0/obj/dev/oak/src/api/msdDrv_obj/Oak_msdArpIntf.o
 .bss           0x0000000000000000        0x0 /home/roscube/Desktop/UMSD_v7.0.0_comb/UMSD_v7.0.0/obj/dev/oak/src/api/msdDrv_obj/Oak_msdPortRmonIntf.o
 .bss           0x0000000000000000        0x0 /home/roscube/Desktop/UMSD_v7.0.0_comb/UMSD_v7.0.0/obj/dev/oak/src/api/msdDrv_obj/Oak_msdPortCtrlIntf.o
 .bss           0x0000000000000000        0x0 /home/roscube/Desktop/UMSD_v7.0.0_comb/UMSD_v7.0.0/obj/dev/oak/src/api/msdDrv_obj/Oak_msdPortPrioMapIntf.o
 .bss           0x0000000000000000        0x0 /home/roscube/Desktop/UMSD_v7.0.0_comb/UMSD_v7.0.0/obj/dev/oak/src/api/msdDrv_obj/Oak_msdEcidIntf.o
 .bss           0x0000000000000000        0x0 /home/roscube/Desktop/UMSD_v7.0.0_comb/UMSD_v7.0.0/obj/dev/oak/src/api/msdDrv_obj/Oak_msdQueueCtrlIntf.o
 .bss           0x0000000000000000        0x0 /home/roscube/Desktop/UMSD_v7.0.0_comb/UMSD_v7.0.0/obj/dev/oak/src/api/msdDrv_obj/Oak_msdSysCtrlIntf.o
 .bss           0x0000000000000000        0x0 /home/roscube/Desktop/UMSD_v7.0.0_comb/UMSD_v7.0.0/obj/dev/oak/src/api/msdDrv_obj/Oak_msdPhyCtrlIntf.o
 .bss           0x0000000000000000        0x0 /home/roscube/Desktop/UMSD_v7.0.0_comb/UMSD_v7.0.0/obj/dev/oak/src/api/msdDrv_obj/Oak_msdPolicyIntf.o
 .bss           0x0000000000000000        0x0 /home/roscube/Desktop/UMSD_v7.0.0_comb/UMSD_v7.0.0/obj/dev/oak/src/api/msdDrv_obj/Oak_msdTCAMRCIntf.o
 .bss           0x0000000000000000        0x0 /home/roscube/Desktop/UMSD_v7.0.0_comb/UMSD_v7.0.0/obj/dev/oak/src/api/msdDrv_obj/Oak_msdRMUIntf.o
 .bss           0x0000000000000000        0x0 /home/roscube/Desktop/UMSD_v7.0.0_comb/UMSD_v7.0.0/obj/dev/oak/src/api/msdDrv_obj/Oak_msdPTP.o
 .bss           0x0000000000000000        0x0 /home/roscube/Desktop/UMSD_v7.0.0_comb/UMSD_v7.0.0/obj/dev/oak/src/api/msdDrv_obj/Oak_msdPTPIntf.o
 .bss           0x0000000000000000        0x0 /home/roscube/Desktop/UMSD_v7.0.0_comb/UMSD_v7.0.0/obj/dev/oak/src/api/msdDrv_obj/Oak_msdLed.o
 .bss           0x0000000000000000        0x0 /home/roscube/Desktop/UMSD_v7.0.0_comb/UMSD_v7.0.0/obj/dev/oak/src/api/msdDrv_obj/Oak_msdLedIntf.o
 .bss           0x0000000000000000        0x0 /home/roscube/Desktop/UMSD_v7.0.0_comb/UMSD_v7.0.0/obj/dev/oak/src/api/msdDrv_obj/Oak_msdTCAMRCCompIntf.o
 .bss           0x0000000000000000        0x0 /home/roscube/Desktop/UMSD_v7.0.0_comb/UMSD_v7.0.0/obj/dev/oak/src/api/msdDrv_obj/Oak_msdEEPROM.o
 .bss           0x0000000000000000        0x0 /home/roscube/Desktop/UMSD_v7.0.0_comb/UMSD_v7.0.0/obj/dev/oak/src/api/msdDrv_obj/Oak_msdEEPROMIntf.o

.lbss
 *(.lbss)

.lrodata
 *(.lrodata)

.ldata
 *(.ldata)

.stab
 *(.stab)

.stabstr
 *(.stabstr)

.stab.excl
 *(.stab.excl)

.stab.exclstr
 *(.stab.exclstr)

.stab.index
 *(.stab.index)

.stab.indexstr
 *(.stab.indexstr)

.comment        0x0000000000000000      0x70c
 *(.comment)
 .comment       0x0000000000000000       0x2c /home/roscube/Desktop/UMSD_v7.0.0_comb/UMSD_v7.0.0/obj/dev/oak/src/api/msdDrv_obj/Oak_msdTCAM.o
 .comment       0x000000000000002c       0x2c /home/roscube/Desktop/UMSD_v7.0.0_comb/UMSD_v7.0.0/obj/dev/oak/src/api/msdDrv_obj/Oak_msdTCAMRC.o
 .comment       0x0000000000000058       0x2c /home/roscube/Desktop/UMSD_v7.0.0_comb/UMSD_v7.0.0/obj/dev/oak/src/api/msdDrv_obj/Oak_msdTCAMRCComp.o
 .comment       0x0000000000000084       0x2c /home/roscube/Desktop/UMSD_v7.0.0_comb/UMSD_v7.0.0/obj/dev/oak/src/api/msdDrv_obj/Oak_msdBrgFdb.o
 .comment       0x00000000000000b0       0x2c /home/roscube/Desktop/UMSD_v7.0.0_comb/UMSD_v7.0.0/obj/dev/oak/src/api/msdDrv_obj/Oak_msdPolicy.o
 .comment       0x00000000000000dc       0x2c /home/roscube/Desktop/UMSD_v7.0.0_comb/UMSD_v7.0.0/obj/dev/oak/src/api/msdDrv_obj/Oak_msdBrgVtu.o
 .comment       0x0000000000000108       0x2c /home/roscube/Desktop/UMSD_v7.0.0_comb/UMSD_v7.0.0/obj/dev/oak/src/api/msdDrv_obj/Oak_msdArp.o
 .comment       0x0000000000000134       0x2c /home/roscube/Desktop/UMSD_v7.0.0_comb/UMSD_v7.0.0/obj/dev/oak/src/api/msdDrv_obj/Oak_msdBrgStu.o
 .comment       0x0000000000000160       0x2c /home/roscube/Desktop/UMSD_v7.0.0_comb/UMSD_v7.0.0/obj/dev/oak/src/api/msdDrv_obj/Oak_msdPIRL.o
 .comment       0x000000000000018c       0x2c /home/roscube/Desktop/UMSD_v7.0.0_comb/UMSD_v7.0.0/obj/dev/oak/src/api/msdDrv_obj/Oak_msdPortRmon.o
 .comment       0x00000000000001b8       0x2c /home/roscube/Desktop/UMSD_v7.0.0_comb/UMSD_v7.0.0/obj/dev/oak/src/api/msdDrv_obj/Oak_msdPortCtrl.o
 .comment       0x00000000000001e4       0x2c /home/roscube/Desktop/UMSD_v7.0.0_comb/UMSD_v7.0.0/obj/dev/oak/src/api/msdDrv_obj/Oak_msdEcid.o
 .comment       0x0000000000000210       0x2c /home/roscube/Desktop/UMSD_v7.0.0_comb/UMSD_v7.0.0/obj/dev/oak/src/api/msdDrv_obj/Oak_msdPortPrioMap.o
 .comment       0x000000000000023c       0x2c /home/roscube/Desktop/UMSD_v7.0.0_comb/UMSD_v7.0.0/obj/dev/oak/src/api/msdDrv_obj/Oak_msdQueueCtrl.o
 .comment       0x0000000000000268       0x2c /home/roscube/Desktop/UMSD_v7.0.0_comb/UMSD_v7.0.0/obj/dev/oak/src/api/msdDrv_obj/Oak_msdSysCtrl.o
 .comment       0x0000000000000294       0x2c /home/roscube/Desktop/UMSD_v7.0.0_comb/UMSD_v7.0.0/obj/dev/oak/src/api/msdDrv_obj/Oak_msdPhyCtrl.o
 .comment       0x00000000000002c0       0x2c /home/roscube/Desktop/UMSD_v7.0.0_comb/UMSD_v7.0.0/obj/dev/oak/src/api/msdDrv_obj/Oak_msdRMU.o
 .comment       0x00000000000002ec       0x2c /home/roscube/Desktop/UMSD_v7.0.0_comb/UMSD_v7.0.0/obj/dev/oak/src/api/msdDrv_obj/Oak_msdTCAMIntf.o
 .comment       0x0000000000000318       0x2c /home/roscube/Desktop/UMSD_v7.0.0_comb/UMSD_v7.0.0/obj/dev/oak/src/api/msdDrv_obj/Oak_msdBrgFdbIntf.o
 .comment       0x0000000000000344       0x2c /home/roscube/Desktop/UMSD_v7.0.0_comb/UMSD_v7.0.0/obj/dev/oak/src/api/msdDrv_obj/Oak_msdBrgVtuIntf.o
 .comment       0x0000000000000370       0x2c /home/roscube/Desktop/UMSD_v7.0.0_comb/UMSD_v7.0.0/obj/dev/oak/src/api/msdDrv_obj/Oak_msdBrgStuIntf.o
 .comment       0x000000000000039c       0x2c /home/roscube/Desktop/UMSD_v7.0.0_comb/UMSD_v7.0.0/obj/dev/oak/src/api/msdDrv_obj/Oak_msdPIRLIntf.o
 .comment       0x00000000000003c8       0x2c /home/roscube/Desktop/UMSD_v7.0.0_comb/UMSD_v7.0.0/obj/dev/oak/src/api/msdDrv_obj/Oak_msdQav.o
 .comment       0x00000000000003f4       0x2c /home/roscube/Desktop/UMSD_v7.0.0_comb/UMSD_v7.0.0/obj/dev/oak/src/api/msdDrv_obj/Oak_msdArpIntf.o
 .comment       0x0000000000000420       0x2c /home/roscube/Desktop/UMSD_v7.0.0_comb/UMSD_v7.0.0/obj/dev/oak/src/api/msdDrv_obj/Oak_msdPortRmonIntf.o
 .comment       0x000000000000044c       0x2c /home/roscube/Desktop/UMSD_v7.0.0_comb/UMSD_v7.0.0/obj/dev/oak/src/api/msdDrv_obj/Oak_msdPortCtrlIntf.o
 .comment       0x0000000000000478       0x2c /home/roscube/Desktop/UMSD_v7.0.0_comb/UMSD_v7.0.0/obj/dev/oak/src/api/msdDrv_obj/Oak_msdPortPrioMapIntf.o
 .comment       0x00000000000004a4       0x2c /home/roscube/Desktop/UMSD_v7.0.0_comb/UMSD_v7.0.0/obj/dev/oak/src/api/msdDrv_obj/Oak_msdEcidIntf.o
 .comment       0x00000000000004d0       0x2c /home/roscube/Desktop/UMSD_v7.0.0_comb/UMSD_v7.0.0/obj/dev/oak/src/api/msdDrv_obj/Oak_msdQueueCtrlIntf.o
 .comment       0x00000000000004fc       0x2c /home/roscube/Desktop/UMSD_v7.0.0_comb/UMSD_v7.0.0/obj/dev/oak/src/api/msdDrv_obj/Oak_msdSysCtrlIntf.o
 .comment       0x0000000000000528       0x2c /home/roscube/Desktop/UMSD_v7.0.0_comb/UMSD_v7.0.0/obj/dev/oak/src/api/msdDrv_obj/Oak_msdPhyCtrlIntf.o
 .comment       0x0000000000000554       0x2c /home/roscube/Desktop/UMSD_v7.0.0_comb/UMSD_v7.0.0/obj/dev/oak/src/api/msdDrv_obj/Oak_msdPolicyIntf.o
 .comment       0x0000000000000580       0x2c /home/roscube/Desktop/UMSD_v7.0.0_comb/UMSD_v7.0.0/obj/dev/oak/src/api/msdDrv_obj/Oak_msdTCAMRCIntf.o
 .comment       0x00000000000005ac       0x2c /home/roscube/Desktop/UMSD_v7.0.0_comb/UMSD_v7.0.0/obj/dev/oak/src/api/msdDrv_obj/Oak_msdRMUIntf.o
 .comment       0x00000000000005d8       0x2c /home/roscube/Desktop/UMSD_v7.0.0_comb/UMSD_v7.0.0/obj/dev/oak/src/api/msdDrv_obj/Oak_msdPTP.o
 .comment       0x0000000000000604       0x2c /home/roscube/Desktop/UMSD_v7.0.0_comb/UMSD_v7.0.0/obj/dev/oak/src/api/msdDrv_obj/Oak_msdPTPIntf.o
 .comment       0x0000000000000630       0x2c /home/roscube/Desktop/UMSD_v7.0.0_comb/UMSD_v7.0.0/obj/dev/oak/src/api/msdDrv_obj/Oak_msdLed.o
 .comment       0x000000000000065c       0x2c /home/roscube/Desktop/UMSD_v7.0.0_comb/UMSD_v7.0.0/obj/dev/oak/src/api/msdDrv_obj/Oak_msdLedIntf.o
 .comment       0x0000000000000688       0x2c /home/roscube/Desktop/UMSD_v7.0.0_comb/UMSD_v7.0.0/obj/dev/oak/src/api/msdDrv_obj/Oak_msdTCAMRCCompIntf.o
 .comment       0x00000000000006b4       0x2c /home/roscube/Desktop/UMSD_v7.0.0_comb/UMSD_v7.0.0/obj/dev/oak/src/api/msdDrv_obj/Oak_msdEEPROM.o
 .comment       0x00000000000006e0       0x2c /home/roscube/Desktop/UMSD_v7.0.0_comb/UMSD_v7.0.0/obj/dev/oak/src/api/msdDrv_obj/Oak_msdEEPROMIntf.o

.note.GNU-stack
                0x0000000000000000        0x0
 .note.GNU-stack
                0x0000000000000000        0x0 /home/roscube/Desktop/UMSD_v7.0.0_comb/UMSD_v7.0.0/obj/dev/oak/src/api/msdDrv_obj/Oak_msdTCAM.o
 .note.GNU-stack
                0x0000000000000000        0x0 /home/roscube/Desktop/UMSD_v7.0.0_comb/UMSD_v7.0.0/obj/dev/oak/src/api/msdDrv_obj/Oak_msdTCAMRC.o
 .note.GNU-stack
                0x0000000000000000        0x0 /home/roscube/Desktop/UMSD_v7.0.0_comb/UMSD_v7.0.0/obj/dev/oak/src/api/msdDrv_obj/Oak_msdTCAMRCComp.o
 .note.GNU-stack
                0x0000000000000000        0x0 /home/roscube/Desktop/UMSD_v7.0.0_comb/UMSD_v7.0.0/obj/dev/oak/src/api/msdDrv_obj/Oak_msdBrgFdb.o
 .note.GNU-stack
                0x0000000000000000        0x0 /home/roscube/Desktop/UMSD_v7.0.0_comb/UMSD_v7.0.0/obj/dev/oak/src/api/msdDrv_obj/Oak_msdPolicy.o
 .note.GNU-stack
                0x0000000000000000        0x0 /home/roscube/Desktop/UMSD_v7.0.0_comb/UMSD_v7.0.0/obj/dev/oak/src/api/msdDrv_obj/Oak_msdBrgVtu.o
 .note.GNU-stack
                0x0000000000000000        0x0 /home/roscube/Desktop/UMSD_v7.0.0_comb/UMSD_v7.0.0/obj/dev/oak/src/api/msdDrv_obj/Oak_msdArp.o
 .note.GNU-stack
                0x0000000000000000        0x0 /home/roscube/Desktop/UMSD_v7.0.0_comb/UMSD_v7.0.0/obj/dev/oak/src/api/msdDrv_obj/Oak_msdBrgStu.o
 .note.GNU-stack
                0x0000000000000000        0x0 /home/roscube/Desktop/UMSD_v7.0.0_comb/UMSD_v7.0.0/obj/dev/oak/src/api/msdDrv_obj/Oak_msdPIRL.o
 .note.GNU-stack
                0x0000000000000000        0x0 /home/roscube/Desktop/UMSD_v7.0.0_comb/UMSD_v7.0.0/obj/dev/oak/src/api/msdDrv_obj/Oak_msdPortRmon.o
 .note.GNU-stack
                0x0000000000000000        0x0 /home/roscube/Desktop/UMSD_v7.0.0_comb/UMSD_v7.0.0/obj/dev/oak/src/api/msdDrv_obj/Oak_msdPortCtrl.o
 .note.GNU-stack
                0x0000000000000000        0x0 /home/roscube/Desktop/UMSD_v7.0.0_comb/UMSD_v7.0.0/obj/dev/oak/src/api/msdDrv_obj/Oak_msdEcid.o
 .note.GNU-stack
                0x0000000000000000        0x0 /home/roscube/Desktop/UMSD_v7.0.0_comb/UMSD_v7.0.0/obj/dev/oak/src/api/msdDrv_obj/Oak_msdPortPrioMap.o
 .note.GNU-stack
                0x0000000000000000        0x0 /home/roscube/Desktop/UMSD_v7.0.0_comb/UMSD_v7.0.0/obj/dev/oak/src/api/msdDrv_obj/Oak_msdQueueCtrl.o
 .note.GNU-stack
                0x0000000000000000        0x0 /home/roscube/Desktop/UMSD_v7.0.0_comb/UMSD_v7.0.0/obj/dev/oak/src/api/msdDrv_obj/Oak_msdSysCtrl.o
 .note.GNU-stack
                0x0000000000000000        0x0 /home/roscube/Desktop/UMSD_v7.0.0_comb/UMSD_v7.0.0/obj/dev/oak/src/api/msdDrv_obj/Oak_msdPhyCtrl.o
 .note.GNU-stack
                0x0000000000000000        0x0 /home/roscube/Desktop/UMSD_v7.0.0_comb/UMSD_v7.0.0/obj/dev/oak/src/api/msdDrv_obj/Oak_msdRMU.o
 .note.GNU-stack
                0x0000000000000000        0x0 /home/roscube/Desktop/UMSD_v7.0.0_comb/UMSD_v7.0.0/obj/dev/oak/src/api/msdDrv_obj/Oak_msdTCAMIntf.o
 .note.GNU-stack
                0x0000000000000000        0x0 /home/roscube/Desktop/UMSD_v7.0.0_comb/UMSD_v7.0.0/obj/dev/oak/src/api/msdDrv_obj/Oak_msdBrgFdbIntf.o
 .note.GNU-stack
                0x0000000000000000        0x0 /home/roscube/Desktop/UMSD_v7.0.0_comb/UMSD_v7.0.0/obj/dev/oak/src/api/msdDrv_obj/Oak_msdBrgVtuIntf.o
 .note.GNU-stack
                0x0000000000000000        0x0 /home/roscube/Desktop/UMSD_v7.0.0_comb/UMSD_v7.0.0/obj/dev/oak/src/api/msdDrv_obj/Oak_msdBrgStuIntf.o
 .note.GNU-stack
                0x0000000000000000        0x0 /home/roscube/Desktop/UMSD_v7.0.0_comb/UMSD_v7.0.0/obj/dev/oak/src/api/msdDrv_obj/Oak_msdPIRLIntf.o
 .note.GNU-stack
                0x0000000000000000        0x0 /home/roscube/Desktop/UMSD_v7.0.0_comb/UMSD_v7.0.0/obj/dev/oak/src/api/msdDrv_obj/Oak_msdQav.o
 .note.GNU-stack
                0x0000000000000000        0x0 /home/roscube/Desktop/UMSD_v7.0.0_comb/UMSD_v7.0.0/obj/dev/oak/src/api/msdDrv_obj/Oak_msdArpIntf.o
 .note.GNU-stack
                0x0000000000000000        0x0 /home/roscube/Desktop/UMSD_v7.0.0_comb/UMSD_v7.0.0/obj/dev/oak/src/api/msdDrv_obj/Oak_msdPortRmonIntf.o
 .note.GNU-stack
                0x0000000000000000        0x0 /home/roscube/Desktop/UMSD_v7.0.0_comb/UMSD_v7.0.0/obj/dev/oak/src/api/msdDrv_obj/Oak_msdPortCtrlIntf.o
 .note.GNU-stack
                0x0000000000000000        0x0 /home/roscube/Desktop/UMSD_v7.0.0_comb/UMSD_v7.0.0/obj/dev/oak/src/api/msdDrv_obj/Oak_msdPortPrioMapIntf.o
 .note.GNU-stack
                0x0000000000000000        0x0 /home/roscube/Desktop/UMSD_v7.0.0_comb/UMSD_v7.0.0/obj/dev/oak/src/api/msdDrv_obj/Oak_msdEcidIntf.o
 .note.GNU-stack
                0x0000000000000000        0x0 /home/roscube/Desktop/UMSD_v7.0.0_comb/UMSD_v7.0.0/obj/dev/oak/src/api/msdDrv_obj/Oak_msdQueueCtrlIntf.o
 .note.GNU-stack
                0x0000000000000000        0x0 /home/roscube/Desktop/UMSD_v7.0.0_comb/UMSD_v7.0.0/obj/dev/oak/src/api/msdDrv_obj/Oak_msdSysCtrlIntf.o
 .note.GNU-stack
                0x0000000000000000        0x0 /home/roscube/Desktop/UMSD_v7.0.0_comb/UMSD_v7.0.0/obj/dev/oak/src/api/msdDrv_obj/Oak_msdPhyCtrlIntf.o
 .note.GNU-stack
                0x0000000000000000        0x0 /home/roscube/Desktop/UMSD_v7.0.0_comb/UMSD_v7.0.0/obj/dev/oak/src/api/msdDrv_obj/Oak_msdPolicyIntf.o
 .note.GNU-stack
                0x0000000000000000        0x0 /home/roscube/Desktop/UMSD_v7.0.0_comb/UMSD_v7.0.0/obj/dev/oak/src/api/msdDrv_obj/Oak_msdTCAMRCIntf.o
 .note.GNU-stack
                0x0000000000000000        0x0 /home/roscube/Desktop/UMSD_v7.0.0_comb/UMSD_v7.0.0/obj/dev/oak/src/api/msdDrv_obj/Oak_msdRMUIntf.o
 .note.GNU-stack
                0x0000000000000000        0x0 /home/roscube/Desktop/UMSD_v7.0.0_comb/UMSD_v7.0.0/obj/dev/oak/src/api/msdDrv_obj/Oak_msdPTP.o
 .note.GNU-stack
                0x0000000000000000        0x0 /home/roscube/Desktop/UMSD_v7.0.0_comb/UMSD_v7.0.0/obj/dev/oak/src/api/msdDrv_obj/Oak_msdPTPIntf.o
 .note.GNU-stack
                0x0000000000000000        0x0 /home/roscube/Desktop/UMSD_v7.0.0_comb/UMSD_v7.0.0/obj/dev/oak/src/api/msdDrv_obj/Oak_msdLed.o
 .note.GNU-stack
                0x0000000000000000        0x0 /home/roscube/Desktop/UMSD_v7.0.0_comb/UMSD_v7.0.0/obj/dev/oak/src/api/msdDrv_obj/Oak_msdLedIntf.o
 .note.GNU-stack
                0x0000000000000000        0x0 /home/roscube/Desktop/UMSD_v7.0.0_comb/UMSD_v7.0.0/obj/dev/oak/src/api/msdDrv_obj/Oak_msdTCAMRCCompIntf.o
 .note.GNU-stack
                0x0000000000000000        0x0 /home/roscube/Desktop/UMSD_v7.0.0_comb/UMSD_v7.0.0/obj/dev/oak/src/api/msdDrv_obj/Oak_msdEEPROM.o
 .note.GNU-stack
                0x0000000000000000        0x0 /home/roscube/Desktop/UMSD_v7.0.0_comb/UMSD_v7.0.0/obj/dev/oak/src/api/msdDrv_obj/Oak_msdEEPROMIntf.o

.gnu.build.attributes
 *(.gnu.build.attributes)

.debug
 *(.debug)

.line
 *(.line)

.debug_srcinfo
 *(.debug_srcinfo)

.debug_sfnames
 *(.debug_sfnames)

.debug_aranges
 *(.debug_aranges)

.debug_pubnames
 *(.debug_pubnames)

.debug_info
 *(.debug_info)

.debug_abbrev
 *(.debug_abbrev)

.debug_line
 *(.debug_line)

.debug_frame
 *(.debug_frame)

.debug_str
 *(.debug_str)

.debug_loc
 *(.debug_loc)

.debug_macinfo
 *(.debug_macinfo)

.debug_weaknames
 *(.debug_weaknames)

.debug_funcnames
 *(.debug_funcnames)

.debug_typenames
 *(.debug_typenames)

.debug_varnames
 *(.debug_varnames)

.debug_pubtypes
 *(.debug_pubtypes)

.debug_ranges
 *(.debug_ranges)

.debug_addr
 *(.debug_addr)

.debug_line_str
 *(.debug_line_str)

.debug_loclists
 *(.debug_loclists)

.debug_macro
 *(.debug_macro)

.debug_names
 *(.debug_names)

.debug_rnglists
 *(.debug_rnglists)

.debug_str_offsets
 *(.debug_str_offsets)

.debug_sup
 *(.debug_sup)

.gnu.attributes
 *(.gnu.attributes)
OUTPUT(/home/roscube/Desktop/UMSD_v7.0.0_comb/UMSD_v7.0.0/obj/dev/oak/src/api/msdDrv_obj/api.o elf64-x86-64)
