
Merging program properties


Discarded input sections

 .note.gnu.property
                0x0000000000000000       0x20 /home/roscube/Desktop/UMSD_v7.0.0_comb/UMSD_v7.0.0/obj/src/api/msdDrv_obj/api.o
 .note.gnu.property
                0x0000000000000000       0x20 /home/roscube/Desktop/UMSD_v7.0.0_comb/UMSD_v7.0.0/obj/src/platform/msdDrv_obj/platform.o
 .note.gnu.property
                0x0000000000000000       0x20 /home/roscube/Desktop/UMSD_v7.0.0_comb/UMSD_v7.0.0/obj/src/utils/msdDrv_obj/utils.o
 .note.gnu.property
                0x0000000000000000       0x20 /home/roscube/Desktop/UMSD_v7.0.0_comb/UMSD_v7.0.0/obj/dev/topaz/msdDrv_Topaz.o
 .note.gnu.property
                0x0000000000000000       0x20 /home/roscube/Desktop/UMSD_v7.0.0_comb/UMSD_v7.0.0/obj/dev/peridot/msdDrv_Peridot.o
 .note.gnu.property
                0x0000000000000000       0x20 /home/roscube/Desktop/UMSD_v7.0.0_comb/UMSD_v7.0.0/obj/dev/agate/msdDrv_Agate.o
 .note.gnu.property
                0x0000000000000000       0x20 /home/roscube/Desktop/UMSD_v7.0.0_comb/UMSD_v7.0.0/obj/dev/pearl/msdDrv_Pearl.o
 .note.gnu.property
                0x0000000000000000       0x20 /home/roscube/Desktop/UMSD_v7.0.0_comb/UMSD_v7.0.0/obj/dev/amethyst/msdDrv_Amethyst.o
 .note.gnu.property
                0x0000000000000000       0x20 /home/roscube/Desktop/UMSD_v7.0.0_comb/UMSD_v7.0.0/obj/dev/oak/msdDrv_Oak.o
 .note.gnu.property
                0x0000000000000000       0x20 /home/roscube/Desktop/UMSD_v7.0.0_comb/UMSD_v7.0.0/obj/dev/spruce/msdDrv_Spruce.o
 .note.gnu.property
                0x0000000000000000       0x20 /home/roscube/Desktop/UMSD_v7.0.0_comb/UMSD_v7.0.0/obj/dev/bonsaiz1/msdDrv_BonsaiZ1.o
 .note.gnu.property
                0x0000000000000000       0x20 /home/roscube/Desktop/UMSD_v7.0.0_comb/UMSD_v7.0.0/obj/dev/fir/msdDrv_Fir.o
 .note.gnu.property
                0x0000000000000000       0x20 /home/roscube/Desktop/UMSD_v7.0.0_comb/UMSD_v7.0.0/obj/dev/bonsai/msdDrv_Bonsai.o

Memory Configuration

Name             Origin             Length             Attributes
*default*        0x0000000000000000 0xffffffffffffffff

Linker script and memory map

LOAD /home/roscube/Desktop/UMSD_v7.0.0_comb/UMSD_v7.0.0/obj/src/driver/msdDrv_obj/driver.o
LOAD /home/roscube/Desktop/UMSD_v7.0.0_comb/UMSD_v7.0.0/obj/src/api/msdDrv_obj/api.o
LOAD /home/roscube/Desktop/UMSD_v7.0.0_comb/UMSD_v7.0.0/obj/src/platform/msdDrv_obj/platform.o
LOAD /home/roscube/Desktop/UMSD_v7.0.0_comb/UMSD_v7.0.0/obj/src/utils/msdDrv_obj/utils.o
LOAD /home/roscube/Desktop/UMSD_v7.0.0_comb/UMSD_v7.0.0/obj/dev/topaz/msdDrv_Topaz.o
LOAD /home/roscube/Desktop/UMSD_v7.0.0_comb/UMSD_v7.0.0/obj/dev/peridot/msdDrv_Peridot.o
LOAD /home/roscube/Desktop/UMSD_v7.0.0_comb/UMSD_v7.0.0/obj/dev/agate/msdDrv_Agate.o
LOAD /home/roscube/Desktop/UMSD_v7.0.0_comb/UMSD_v7.0.0/obj/dev/pearl/msdDrv_Pearl.o
LOAD /home/roscube/Desktop/UMSD_v7.0.0_comb/UMSD_v7.0.0/obj/dev/amethyst/msdDrv_Amethyst.o
LOAD /home/roscube/Desktop/UMSD_v7.0.0_comb/UMSD_v7.0.0/obj/dev/oak/msdDrv_Oak.o
LOAD /home/roscube/Desktop/UMSD_v7.0.0_comb/UMSD_v7.0.0/obj/dev/spruce/msdDrv_Spruce.o
LOAD /home/roscube/Desktop/UMSD_v7.0.0_comb/UMSD_v7.0.0/obj/dev/bonsaiz1/msdDrv_BonsaiZ1.o
LOAD /home/roscube/Desktop/UMSD_v7.0.0_comb/UMSD_v7.0.0/obj/dev/fir/msdDrv_Fir.o
LOAD /home/roscube/Desktop/UMSD_v7.0.0_comb/UMSD_v7.0.0/obj/dev/bonsai/msdDrv_Bonsai.o

.interp
 *(.interp)

.note.gnu.property
                0x0000000000000000       0x20
 .note.gnu.property
                0x0000000000000000       0x20 /home/roscube/Desktop/UMSD_v7.0.0_comb/UMSD_v7.0.0/obj/src/driver/msdDrv_obj/driver.o

.note.gnu.build-id
 *(.note.gnu.build-id)

.hash
 *(.hash)

.gnu.hash
 *(.gnu.hash)

.dynsym
 *(.dynsym)

.dynstr
 *(.dynstr)

.gnu.version
 *(.gnu.version)

.gnu.version_d
 *(.gnu.version_d)

.gnu.version_r
 *(.gnu.version_r)

.rela.init
 *(.rela.init)

.rela.text
 *(.rela.text)

.rela.fini
 *(.rela.fini)

.rela.rodata
 *(.rela.rodata)

.rela.data.rel.ro
 *(.rela.data.rel.ro)

.rela.data
 *(.rela.data)

.rela.tdata
 *(.rela.tdata)

.rela.tbss
 *(.rela.tbss)

.rela.ctors
 *(.rela.ctors)

.rela.dtors
 *(.rela.dtors)

.rela.got
 *(.rela.got)

.rela.bss
 *(.rela.bss)

.rela.ldata
 *(.rela.ldata)

.rela.lbss
 *(.rela.lbss)

.rela.lrodata
 *(.rela.lrodata)

.rela.ifunc
 *(.rela.ifunc)

.rela.plt
 *(.rela.plt)

.relr.dyn
 *(.relr.dyn)

.init
 *(SORT_NONE(.init))

.plt
 *(.plt)

.plt.got
 *(.plt.got)

.plt.sec
 *(.plt.sec)

.text           0x0000000000000000   0x1650f9
 *(.text .stub)
 .text          0x0000000000000000     0xfe24 /home/roscube/Desktop/UMSD_v7.0.0_comb/UMSD_v7.0.0/obj/src/driver/msdDrv_obj/driver.o
                0x0000000000000000                msdUnLoadDriver
                0x0000000000000160                msdLoadDriver
                0x0000000000000840                msdSetDriverInterface
                0x0000000000000880                msdGetDriverInterface
                0x00000000000008c0                sohoDevGet
                0x00000000000008f0                msdlport2port
                0x0000000000000920                msdport2lport
                0x0000000000000970                msdlportvec2portvec
                0x00000000000009d0                msdportvec2lportvec
                0x0000000000000a10                msdlport2phy
                0x0000000000000a60                msdlport2serdes
                0x0000000000000b80                msdEnableHwSemaphore
                0x0000000000000c20                msdDisableHwSemaphore
                0x0000000000000ea0                msdSetSMIC45PhyReg
                0x0000000000000f10                msdGetSMIC45PhyReg
                0x0000000000000f80                msdSetSMIPhyReg
                0x0000000000000fe0                msdGetSMIPhyReg
                0x0000000000001040                msdSetSMIPhyXMDIOReg
                0x00000000000010b0                msdGetSMIPhyXMDIOReg
                0x0000000000001120                msdSetSMIExtPhyReg
                0x0000000000001180                msdGetSMIExtPhyReg
                0x00000000000011e0                msdSetSMIExtPhyXMDIOReg
                0x0000000000001250                msdGetSMIExtPhyXMDIOReg
                0x00000000000012c0                msdRmuTxRxPkt
                0x00000000000012f0                msdRmuReqPktCreate
                0x0000000000001500                msdRmuPackEthReqPkt
                0x0000000000001840                msdSetAnyReg
                0x0000000000001940                msdSetAnyExtendedReg
                0x0000000000001ba0                msdGetAnyReg
                0x0000000000001c90                msdSetAnyRegField
                0x0000000000001d60                msdGetAnyRegField
                0x0000000000001e10                msdGetAnyExtendedReg
                0x0000000000001f90                msdSetAnyExtendedRegField
                0x0000000000002080                msdGetAnyExtendedRegField
                0x0000000000002130                msdVersion
                0x00000000000021b0                InitDevObj
 *fill*         0x000000000000fe24        0xc 
 .text          0x000000000000fe30     0xc390 /home/roscube/Desktop/UMSD_v7.0.0_comb/UMSD_v7.0.0/obj/src/api/msdDrv_obj/api.o
                0x000000000000fe30                msdTcamAllDelete
                0x000000000000fe80                msdTcamEntryDelete
                0x000000000000fed0                msdTcamEntryAdd
                0x000000000000ff30                msdTcamEntryRead
                0x000000000000ff90                msdTcamEntryGetNext
                0x000000000000fff0                msdTcamEntryFind
                0x0000000000010050                msdPortTcamModeSet
                0x00000000000100b0                msdPortTcamModeGet
                0x0000000000010110                msdTcamEntryPortAdd
                0x0000000000010170                msdTcamEntryPortRemove
                0x00000000000101d0                msdEgrTcamEntryPerPortDelete
                0x0000000000010230                msdEgrTcamEntryAllPortsDelete
                0x0000000000010280                msdEgrTcamEntryAdd
                0x00000000000102e0                msdEgrTcamEntryGetNext
                0x0000000000010340                msdEgrTcamEntryRead
                0x00000000000103a0                msdTcamDump
                0x00000000000103f0                msdTcamAdvConfig
                0x00000000000104b0                msdVctGetAdvCableDiag
                0x0000000000010520                msdVctGetAdvExtendStatus
                0x0000000000010580                msdFdbMacEntryAdd
                0x00000000000105d0                msdFdbAllDelete
                0x0000000000010620                msdFdbAllDeleteInDB
                0x0000000000010680                msdFdbMove
                0x00000000000106e0                msdFdbMoveInDB
                0x0000000000010750                msdFdbPortRemove
                0x00000000000107b0                msdFdbPortRemoveInDB
                0x0000000000010810                msdFdbMacEntryDelete
                0x0000000000010870                msdFdbViolationGet
                0x00000000000108c0                msdFdbMacEntryFind
                0x0000000000010930                msdFdbAgingTimeoutSet
                0x0000000000010980                msdFdbAgingTimeoutGet
                0x00000000000109d0                msdFdbLearnOnAllDevicesGet
                0x0000000000010a20                msdFdbLearnOnAllDevicesSet
                0x0000000000010a70                msdFdbPortLearnLimitSet
                0x0000000000010ad0                msdFdbPortLearnLimitGet
                0x0000000000010b30                msdFdbPortLearnCountGet
                0x0000000000010b90                msdFdbEntryCountGet
                0x0000000000010be0                msdFdbEntryCountPerFidGet
                0x0000000000010c40                msdFdbEntryCountNonStaticGet
                0x0000000000010c90                msdFdbEntryCountNonStaticPerFidGet
                0x0000000000010cf0                msdFdbDump
                0x0000000000010d40                msdPortLockedGet
                0x0000000000010da0                msdPortLockedSet
                0x0000000000010e00                msdPortHoldAt1Get
                0x0000000000010e60                msdPortHoldAt1Set
                0x0000000000010ec0                msdPortIntOnAgeOutGet
                0x0000000000010f20                msdPortIntOnAgeOutSet
                0x0000000000010f80                msdPortRefreshLockedGet
                0x0000000000010fe0                msdPortRefreshLockedSet
                0x0000000000011040                msdPortIgnoreWrongDataGet
                0x00000000000110a0                msdPortIgnoreWrongDataSet
                0x0000000000011100                msdFdbEntryNextGet
                0x0000000000011180                msdVlanEntryFind
                0x00000000000111e0                msdVlanExists
                0x0000000000011240                msdVlanEntryNextGet
                0x00000000000112a0                msdVlanAllDelete
                0x00000000000112f0                msdVlanEntryAdd
                0x0000000000011340                msdVlanEntryDelete
                0x0000000000011390                msdVlanModeSet
                0x00000000000113e0                msdVlanModeGet
                0x0000000000011430                msdVlanViolationGet
                0x0000000000011480                msdVlanEntryCountGet
                0x00000000000114d0                msdVlanMemberTagSet
                0x0000000000011530                msdVlanMemberTagGet
                0x0000000000011590                msdVtuDump
                0x00000000000115e0                msdStuEntryAdd
                0x0000000000011630                msdStuEntryNextGet
                0x0000000000011690                msdStuEntryDelete
                0x00000000000116e0                msdStuEntryFind
                0x0000000000011740                msdStuEntryCountGet
                0x0000000000011790                msdStuDump
                0x00000000000117e0                msdIRLReset
                0x0000000000011830                msdIRLInitResourceCounter
                0x0000000000011890                msdIRLCustomSetup
                0x0000000000011910                msdIRLResourceRead
                0x0000000000011970                msdIRLResourceWrite
                0x00000000000119d0                msdIRLResRegGet
                0x0000000000011a40                msdIRLResRegSet
                0x0000000000011ab0                msdIRLAdvConfig
                0x0000000000011b50                msdIRLAdvConfigDisable
                0x0000000000011bb0                msdStatsFlushAll
                0x0000000000011c00                msdStatsFlushPort
                0x0000000000011c50                msdStatsPortCounterGet
                0x0000000000011cb0                msdStatsPortAllCountersGet
                0x0000000000011d10                msdStatsHistogramModeGet
                0x0000000000011d60                msdStatsHistogramModeSet
                0x0000000000011db0                msdPortMibDump
                0x0000000000011e00                msdPortForceDefaultVlanIdGet
                0x0000000000011e60                msdPortForceDefaultVlanIdSet
                0x0000000000011ec0                msdPortDefaultVlanIdGet
                0x0000000000011f20                msdPortDefaultVlanIdSet
                0x0000000000011f80                msdPort8021qModeGet
                0x0000000000011fe0                msdPort8021qModeSet
                0x0000000000012040                msdPortDiscardTaggedGet
                0x00000000000120a0                msdPortDiscardTaggedSet
                0x0000000000012100                msdPortDiscardUntaggedGet
                0x0000000000012160                msdPortDiscardUntaggedSet
                0x00000000000121c0                msdPortUnicastFloodBlockGet
                0x0000000000012220                msdPortUnicastFloodBlockSet
                0x0000000000012280                msdPortMulticastFloodBlockGet
                0x00000000000122e0                msdPortMulticastFloodBlockSet
                0x0000000000012340                msdPortDiscardBcastModeGet
                0x00000000000123a0                msdPortDiscardBcastModeSet
                0x0000000000012400                msdPortIGMPSnoopEnableGet
                0x0000000000012460                msdPortIGMPSnoopEnableSet
                0x00000000000124c0                msdPortHeaderModeGet
                0x0000000000012520                msdPortHeaderModeSet
                0x0000000000012580                msdPortDropOnLockGet
                0x00000000000125e0                msdPortDropOnLockSet
                0x0000000000012640                msdPortMtuGet
                0x00000000000126a0                msdPortMtuSet
                0x0000000000012700                msdPortSpecifiedMtuGet
                0x0000000000012760                msdPortSpecifiedMtuSet
                0x00000000000127c0                msdPortLearnEnableGet
                0x0000000000012820                msdPortLearnEnableSet
                0x0000000000012880                msdPortVTUPriorityOverrideGet
                0x00000000000128e0                msdPortVTUPriorityOverrideSet
                0x0000000000012940                msdPortSAPriorityOverrideGet
                0x00000000000129a0                msdPortSAPriorityOverrideSet
                0x0000000000012a00                msdPortDAPriorityOverrideGet
                0x0000000000012a60                msdPortDAPriorityOverrideSet
                0x0000000000012ac0                msdPortMessagePortGet
                0x0000000000012b20                msdPortMessagePortSet
                0x0000000000012b80                msdPortEtherTypeGet
                0x0000000000012be0                msdPortEtherTypeSet
                0x0000000000012c40                msdPortAllowVidZeroGet
                0x0000000000012ca0                msdPortAllowVidZeroSet
                0x0000000000012d00                msdPortFlowControlEnableGet
                0x0000000000012d60                msdPortFlowControlEnableSet
                0x0000000000012dc0                msdPortEgressMonitorSourceEnableGet
                0x0000000000012e20                msdPortEgressMonitorSourceEnableSet
                0x0000000000012e80                msdPortIngressMonitorSourceEnableGet
                0x0000000000012ee0                msdPortIngressMonitorSourceEnableSet
                0x0000000000012f40                msdPortEgressRateGet
                0x0000000000012fa0                msdPortEgressRateSet
                0x0000000000013000                msdPortForceDuplexModeGet
                0x0000000000013060                msdPortForceDuplexModeSet
                0x00000000000130c0                msdPortDuplexStatusGet
                0x0000000000013120                msdPortForceLinkModeGet
                0x0000000000013180                msdPortForceLinkModeSet
                0x00000000000131e0                msdPortLinkStatusGet
                0x0000000000013240                msdPortForceSpeedModeGet
                0x00000000000132a0                msdPortForceSpeedModeSet
                0x0000000000013300                msdPortSpeedStatusGet
                0x0000000000013360                msdPortCutThroughEnableGet
                0x00000000000133c0                msdPortCutThroughEnableSet
                0x0000000000013420                msdPortIgnoreFcsGet
                0x0000000000013480                msdPortIgnoreFcsSet
                0x00000000000134e0                msdPortAllowBadFcsGet
                0x0000000000013540                msdPortAllowBadFcsSet
                0x00000000000135a0                msdPortPauseLimitOutGet
                0x0000000000013600                msdPortPauseLimitOutSet
                0x0000000000013660                msdPortPauseLimitInGet
                0x00000000000136c0                msdPortPauseLimitInSet
                0x0000000000013720                msdPortQueueToPauseGet
                0x0000000000013780                msdPortQueueToPauseSet
                0x00000000000137e0                msdPortRxPriorityFlowControlEnableGet
                0x0000000000013840                msdPortRxPriorityFlowControlEnableSet
                0x00000000000138a0                msdPortRxPriorityFlowControlToQueueGet
                0x0000000000013900                msdPortRxPriorityFlowControlToQueueSet
                0x0000000000013960                msdPortTxPriorityFlowControlEnableGet
                0x00000000000139c0                msdPortTxPriorityFlowControlEnableSet
                0x0000000000013a20                msdPortOutQueueSizeGet
                0x0000000000013a80                msdPortMapDAGet
                0x0000000000013ae0                msdPortMapDASet
                0x0000000000013b40                msdPortARPMirrorGet
                0x0000000000013ba0                msdPortARPMirrorSet
                0x0000000000013c00                msdPortBasedVlanMapGet
                0x0000000000013c60                msdPortBasedVlanMapSet
                0x0000000000013cc0                msdPortFrameModeGet
                0x0000000000013d20                msdPortFrameModeSet
                0x0000000000013d80                msdPortEgressModeSet
                0x0000000000013de0                msdPortEgressModeGet
                0x0000000000013e40                msdPortECIDSet
                0x0000000000013ea0                msdPortECIDGet
                0x0000000000013f00                msdPortIgnoreETagSet
                0x0000000000013f60                msdPortIgnoreETagGet
                0x0000000000013fc0                msdPortStateGet
                0x0000000000014020                msdPortStateSet
                0x0000000000014080                msdPortRegDump
                0x00000000000140d0                msdPortExtendedPortCtrlRegSet
                0x0000000000014150                msdPortExtendedPortCtrlRegGet
                0x00000000000141d0                msdPortPreemptEnableSet
                0x0000000000014230                msdPortPreemptEnableGet
                0x0000000000014290                msdPortPreemptSizeSet
                0x00000000000142f0                msdPortPreemptSizeGet
                0x0000000000014350                msdPortPreemptQueueSet
                0x00000000000143b0                msdPortPreemptQueueGet
                0x0000000000014410                msdQosPortPrioMapSet
                0x0000000000014480                msdQosPortPrioMapGet
                0x00000000000144f0                msdQosPortCosToQueueSet
                0x0000000000014550                msdQosPortCosToQueueGet
                0x00000000000145b0                msdQosPortCosToDscpMappingSet
                0x0000000000014610                msdQosPortCosToDscpMappingGet
                0x0000000000014670                msdPortDefQPriSet
                0x00000000000146d0                msdPortDefQPriGet
                0x0000000000014730                msdPortDefFPriSet
                0x0000000000014790                msdPortDefFPriGet
                0x00000000000147f0                msdPortPrioRuleSet
                0x0000000000014850                msdPortPrioRuleGet
                0x00000000000148b0                msdPortInitialPriSet
                0x0000000000014910                msdPortInitialPriGet
                0x0000000000014970                msdQosPortRewriteDscp
                0x00000000000149d0                msdQavPortQpriXRateSet
                0x0000000000014a30                msdQavPortQpriXRateGet
                0x0000000000014a90                msdQavPortQpriXHiLimitSet
                0x0000000000014af0                msdQavPortQpriXHiLimitGet
                0x0000000000014b50                msdPortQueueCtrlGet
                0x0000000000014bb0                msdPortQueueCtrlSet
                0x0000000000014c10                msdPortSchedGet
                0x0000000000014c70                msdPortSchedSet
                0x0000000000014cd0                msdSysQoSWeightGet
                0x0000000000014d20                msdSysQoSWeightSet
                0x0000000000014d70                msdPortQoSWeightGet
                0x0000000000014dd0                msdPortQoSWeightSet
                0x0000000000014e30                msdSysFloodBCSet
                0x0000000000014e80                msdSysFloodBCGet
                0x0000000000014ed0                msdSysMonitorMgmtCtrlSet
                0x0000000000014f30                msdSysMonitorMgmtCtrlGet
                0x0000000000014f90                msdSysCPUDestSet
                0x0000000000014fe0                msdSysCPUDestGet
                0x0000000000015030                msdSysIngressMonitorDestSet
                0x0000000000015080                msdSysIngressMonitorDestGet
                0x00000000000150d0                msdSysEgressMonitorDestSet
                0x0000000000015120                msdSysEgressMonitorDestGet
                0x0000000000015170                msdSysRsvd2CpuEnablesSet
                0x00000000000151c0                msdSysRsvd2CpuEnablesGet
                0x0000000000015210                msdSysMGMTPriSet
                0x0000000000015260                msdSysMGMTPriGet
                0x00000000000152b0                msdPortSmiSetupSet
                0x0000000000015310                msdPortSmiSetupGet
                0x0000000000015370                msdGlobal1RegDump
                0x00000000000153c0                msdGlobal2RegDump
                0x0000000000015410                msdSysRMUModeSet
                0x0000000000015460                msdSysRMUModeGet
                0x00000000000154b0                msdQbvWrite
                0x0000000000015510                msdQbvRead
                0x0000000000015570                msdSysDevIntEnableSet
                0x00000000000155c0                msdSysDevIntEnableGet
                0x0000000000015610                msdSysDevIntStatusGet
                0x0000000000015660                msdSysActiveIntEnableSet
                0x00000000000156b0                msdSysActiveIntEnableGet
                0x0000000000015700                msdSysActiveIntStatusGet
                0x0000000000015750                msdPhyReset
                0x00000000000157a0                msdSerdesReset
                0x00000000000157f0                msdPhyPortLoopbackSet
                0x0000000000015850                msdPhyPortSpeedSet
                0x00000000000158b0                msdPhyPortPowerDown
                0x0000000000015910                msdPhyPortDuplexModeSet
                0x0000000000015970                msdPhyPortAutoModeSet
                0x00000000000159d0                msdPhyEEESet
                0x0000000000015a30                msdPhyFlowControlEnableSet
                0x0000000000015a90                msdPhyInterruptEnableSet
                0x0000000000015af0                msdPhyInterruptEnableGet
                0x0000000000015b50                msdPhyInterruptStatusGet
                0x0000000000015bb0                msdImpRun
                0x0000000000015c00                msdImpReset
                0x0000000000015c50                msdImpWriteEEPROM
                0x0000000000015cb0                msdImpLoadToEEPROM
                0x0000000000015d10                msdImpLoadToRAM
                0x0000000000015d70                msdImpStop
                0x0000000000015dc0                msdRMUGetID
                0x0000000000015e10                msdRMUAtuDump
                0x0000000000015e70                msdRMUEcidDump
                0x0000000000015ed0                msdRMUMibDump
                0x0000000000015f30                msdRMUMib2Dump
                0x0000000000015f90                msdRMUMultiRegAccess
                0x0000000000015ff0                msdRMUTcamDump
                0x0000000000016050                msdRMUTcamEntryAdd
                0x00000000000160b0                msdRMUTcamEntryRead
                0x0000000000016110                msdRMURegisterDump
                0x0000000000016170                msdTrunkMaskTableGet
                0x00000000000161d0                msdTrunkMaskTableSet
                0x0000000000016230                msdTrunkHashTrunkGet
                0x0000000000016280                msdTrunkHashTrunkSet
                0x00000000000162d0                msdTrunkRoutingGet
                0x0000000000016330                msdTrunkRoutingSet
                0x0000000000016390                msdTrunkMappingGet
                0x00000000000163f0                msdTrunkMappingSet
                0x0000000000016450                msdPortLAGPortGet
                0x00000000000164b0                msdPortLAGPortSet
                0x0000000000016510                msdPtpIntEnableSet
                0x0000000000016570                msdPtpIntEnableGet
                0x00000000000165d0                msdPtpPortPTPEnSet
                0x0000000000016630                msdPtpPortPTPEnGet
                0x0000000000016690                msdPtpPortConfigSet
                0x00000000000166f0                msdPtpPortConfigGet
                0x0000000000016750                msdPtpTimeStampGet
                0x00000000000167b0                msdPtpTSValidStGet
                0x0000000000016810                msdPtpTimeStampReset
                0x0000000000016870                msdPtpGlobalConfigSet
                0x00000000000168c0                msdPtpGlobalConfigGet
                0x0000000000016910                msdPtpIntStatusGet
                0x0000000000016960                msdPtpMeanPathDelaySet
                0x00000000000169c0                msdPtpMeanPathDelayGet
                0x0000000000016a20                msdPtpIgrPathDelayAsymSet
                0x0000000000016a80                msdPtpIgrPathDelayAsymGet
                0x0000000000016ae0                msdPtpEgrPathDelayAsymSet
                0x0000000000016b40                msdPtpEgrPathDelayAsymGet
                0x0000000000016ba0                msdPtpModeSet
                0x0000000000016bf0                msdPtpModeGet
                0x0000000000016c40                msdPtpMasterSlaveSet
                0x0000000000016c90                msdPtpMasterSlaveGet
                0x0000000000016ce0                msdPtpTODBusyBitStatusGet
                0x0000000000016d30                msdPtpTODStoreCompensation
                0x0000000000016d90                msdPtpTODStoreAll
                0x0000000000016df0                msdPtpTODCaptureAll
                0x0000000000016e50                msdPtpPulseSet
                0x0000000000016ea0                msdPtpPulseGet
                0x0000000000016ef0                msdGetPTPGlobalTime
                0x0000000000016f40                msdPtpPortRegGet
                0x0000000000016fa0                msdPtpPortRegSet
                0x0000000000017000                msdPtpGlobalRegGet
                0x0000000000017060                msdPtpGlobalRegSet
                0x00000000000170c0                msdTaiRegGet
                0x0000000000017120                msdTaiRegSet
                0x0000000000017180                msdPtp1588v2ConfigSet
                0x00000000000171f0                msdPtp8021asConfigSet
                0x0000000000017250                msdPtp8021asRevConfigSet
                0x00000000000172b0                msdPtpPreemptTimestampSelSet
                0x0000000000017310                msdPtpPreemptTimestampSelGet
                0x0000000000017370                msdPtpPreemptCtrlSet
                0x00000000000173d0                msdPtpPreemptCtrlGet
                0x0000000000017430                msdTaiTrigGenTimerSelSet
                0x0000000000017480                msdTaiTrigGenTimerSelGet
                0x00000000000174d0                msdLedForceOn
                0x0000000000017530                msdLedForceOff
                0x0000000000017590                msdLedLinkAct
                0x00000000000175f0                msdLedModeSet
                0x0000000000017650                msdLedModeGet
                0x00000000000176b0                msdLedBlinkRateSet
                0x0000000000017710                msdLedBlinkRateGet
                0x0000000000017770                msdLedPulseStretchSet
                0x00000000000177d0                msdLedPulseStretchGet
                0x0000000000017830                msdLedSpecialModeSet
                0x0000000000017890                msdLedSpecialModeGet
                0x00000000000178f0                msdLedCtrlSet
                0x0000000000017950                msdLedCtrlGet
                0x00000000000179b0                msdLedDump
                0x0000000000017a00                msdArpMcEntryAdd
                0x0000000000017a60                msdArpUcEntryAdd
                0x0000000000017ac0                msdArpEntryDelete
                0x0000000000017b10                msdArpAllDelete
                0x0000000000017b60                msdArpEntryRead
                0x0000000000017bc0                msdArpEntryGetNext
                0x0000000000017c20                msdBpeEnableSet
                0x0000000000017c70                msdBpeEnableGet
                0x0000000000017cc0                msdEcidEntryAdd
                0x0000000000017d10                msdEcidEntryAllDelete
                0x0000000000017d60                msdEcidEntryMove
                0x0000000000017dc0                msdEcidEntryDelete
                0x0000000000017e20                msdEcidEntryNextGet
                0x0000000000017e80                msdEcidEntryFind
                0x0000000000017ef0                msdEcidEntryCountGet
                0x0000000000017f40                msdEcidDump
                0x0000000000017f90                msdEEPROMWrite
                0x0000000000017ff0                msdEEPROMRead
                0x0000000000018050                msdEEPROMChipSelSet
                0x00000000000180a0                msdEEPROMChipSelGet
                0x00000000000180f0                msdPolicyMgmtCtrlSet
                0x0000000000018150                msdPolicyMgmtCtrlGet
                0x00000000000181b0                msdPolicyCPUDestSet
                0x0000000000018210                msdPolicyCPUDestGet
                0x0000000000018270                msdPolicyIngressMonitorDestSet
                0x00000000000182d0                msdPolicyIngressMonitorDestGet
                0x0000000000018330                msdPolicyRsvd2CpuEnablesSet
                0x0000000000018390                msdPolicyRsvd2CpuEnablesGet
                0x00000000000183f0                msdPolicyMGMTPriSet
                0x0000000000018450                msdPolicyMGMTPriGet
                0x00000000000184b0                msdPolicyRouteDestSet
                0x0000000000018510                msdPolicyRouteDestGet
                0x0000000000018570                msdPolicyMirrorDestSet
                0x00000000000185d0                msdPolicyMirrorDestGet
                0x0000000000018630                msdPolicyIllegalIPAddrSet
                0x0000000000018690                msdPolicyIllegalIPAddrGet
                0x00000000000186f0                msdPolicyDipDaMismatchSet
                0x0000000000018750                msdPolicyDipDaMismatchGet
                0x00000000000187b0                msdPolicyZeroSIPSet
                0x0000000000018810                msdPolicyZeroSIPGet
                0x0000000000018870                msdPolicyMcTtlExceededSet
                0x00000000000188d0                msdPolicyMcTtlExceededGet
                0x0000000000018930                msdPolicyUcTtlExceededSet
                0x0000000000018990                msdPolicyUcTtlExceededGet
                0x00000000000189f0                msdPortTtlThresholdSet
                0x0000000000018a50                msdPortTtlThresholdGet
                0x0000000000018ab0                msdPolicyIpHdrErrSet
                0x0000000000018b10                msdPolicyIpHdrErrGet
                0x0000000000018b70                msdPolicyTCPFinUrgPshSet
                0x0000000000018bd0                msdPolicyTCPFinUrgPshGet
                0x0000000000018c30                msdPolicyTCPFlagsSeqNumSet
                0x0000000000018c90                msdPolicyTCPFlagsSeqNumGet
                0x0000000000018cf0                msdPolicyTCPSYNSet
                0x0000000000018d50                msdPolicyTCPSYNGet
                0x0000000000018db0                msdPolicyTCPHSizeSet
                0x0000000000018e10                msdPolicyTCPHSizeGet
                0x0000000000018e70                msdPortTCPMinHdrSizeSet
                0x0000000000018ed0                msdPortTCPMinHdrSizeGet
                0x0000000000018f30                msdPolicyICMPSizeSet
                0x0000000000018f90                msdPolicyICMPSizeGet
                0x0000000000018ff0                msdPortICMPMaxSizeSet
                0x0000000000019050                msdPortICMPMaxSizeGet
                0x00000000000190b0                msdPolicyUDPPortSet
                0x0000000000019110                msdPolicyUDPPortGet
                0x0000000000019170                msdPolicyTCPPortSet
                0x00000000000191d0                msdPolicyTCPPortGet
                0x0000000000019230                msdPolicyTCPSynFinSet
                0x0000000000019290                msdPolicyTCPSynFinGet
                0x00000000000192f0                msdPolicyTCPFragSet
                0x0000000000019350                msdPolicyTCPFragGet
                0x00000000000193b0                msdPolicyNearNonTPMRSet
                0x0000000000019410                msdPolicyNearNonTPMRGet
                0x0000000000019470                msdPolicyETagSet
                0x00000000000194d0                msdPolicyETagGet
                0x0000000000019530                msdPolicyNonETagSet
                0x0000000000019590                msdPolicyNonETagGet
                0x00000000000195f0                msdPolicyDump
                0x0000000000019640                msdTcamRCEntryAdd
                0x00000000000196a0                msdTcamRCAllDelete
                0x00000000000196f0                msdTcamRCEntryDelete
                0x0000000000019740                msdTcamRCEntryRead
                0x00000000000197a0                msdTcamRCEntryGetNext
                0x0000000000019800                msdTcamRCEntryFind
                0x0000000000019860                msdTcamRCDump
                0x00000000000198b0                msdTcamRCCompAdd
                0x0000000000019910                msdTcamRCCompAllDelete
                0x0000000000019960                msdTcamRCCompFlushPort
                0x00000000000199b0                msdTcamRCCompRead
                0x0000000000019a10                msdStreamFilterFlushAll
                0x0000000000019a60                msdStreamFilterSet
                0x0000000000019ac0                msdStreamFilterBlockStatusSet
                0x0000000000019b20                msdStreamFilterBlockStatusGet
                0x0000000000019b80                msdStreamFilterEnAtsSet
                0x0000000000019be0                msdStreamFilterEnGateSet
                0x0000000000019c40                msdStreamFilterMatchCounterGet
                0x0000000000019ca0                msdStreamFilterFiltedCounterGet
                0x0000000000019d00                msdStreamGateFiltedCounterGet
                0x0000000000019d60                msdFlowMeterFiltedCounterGet
                0x0000000000019dc0                msdStreamGateFlushAll
                0x0000000000019e10                msdStreamGateDefStateSet
                0x0000000000019e80                msdStreamGateScaleSet
                0x0000000000019ee0                msdStreamGateTimeGenIdSet
                0x0000000000019f40                msdStreamGateEntryAdd
                0x0000000000019fa0                msdStreamGateTimeGenFlushAll
                0x0000000000019ff0                msdStreamGateTimeGenSet
                0x000000000001a050                msdFlowMeterFlushAll
                0x000000000001a0a0                msdFlowMeterCouplingFlagSet
                0x000000000001a100                msdFlowMeterCouplingFlagGet
                0x000000000001a160                msdFlowMeterDropOnYelSet
                0x000000000001a1c0                msdFlowMeterDropOnYelGet
                0x000000000001a220                msdFlowMeterRedBlockEnSet
                0x000000000001a280                msdFlowMeterRedBlockEnGet
                0x000000000001a2e0                msdFlowMeterRedBlockStatusSet
                0x000000000001a340                msdFlowMeterRedBlockStatusGet
                0x000000000001a3a0                msdFlowMeterAdvConfig
                0x000000000001a410                msdQcrFlushOne
                0x000000000001a460                msdQcrFlushAll
                0x000000000001a4b0                msdQcrSetGrpId
                0x000000000001a510                msdQcrGetGrpId
                0x000000000001a570                msdQcrSetCbsLimit
                0x000000000001a5d0                msdQcrGetCbsLimit
                0x000000000001a630                msdQcrSetRateLimit
                0x000000000001a690                msdQcrGetRateLimit
                0x000000000001a6f0                msdQcrSetMaxResidenceTime
                0x000000000001a750                msdQcrGetMaxResidenceTime
                0x000000000001a7b0                msdQcrSetQueueEnables
                0x000000000001a810                msdQcrGetQueueEnables
                0x000000000001a870                msdFrerSeqGenFlushAll
                0x000000000001a8c0                msdFrerSeqGenFlushEntry
                0x000000000001a910                msdFrerSeqGenRead
                0x000000000001a970                msdFrerSeqGenLoad
                0x000000000001a9c0                msdFrerIndvRcvyFlushAll
                0x000000000001aa10                msdFrerIndvRcvyFlushEntry
                0x000000000001aa60                msdFrerIndvRcvyRead
                0x000000000001aac0                msdFrerIndvRcvyLoad
                0x000000000001ab10                msdFrerIndvRcvyGetNext
                0x000000000001ab70                msdFrerIndvRcvyReadClear
                0x000000000001abd0                msdFrerSeqRcvyFlushAll
                0x000000000001ac20                msdFrerSeqRcvyFlushEntry
                0x000000000001ac70                msdFrerSeqRcvyRead
                0x000000000001ace0                msdFrerSeqRcvyLoad
                0x000000000001ad30                msdFrerSeqRcvyGetNext
                0x000000000001ada0                msdFrerSeqRcvyGetViolation
                0x000000000001ae10                msdFrerSeqRcvyReadClear
                0x000000000001ae80                msdFrerBank0SCtrFlushAll
                0x000000000001aed0                msdFrerBank0SCtrFlushCtr
                0x000000000001af20                msdFrerBank0SCtrRead
                0x000000000001af80                msdFrerBank0SCtrLoad
                0x000000000001afd0                msdFrerBank0SCtrGetNext
                0x000000000001b030                msdFrerBank0SCtrReadClear
                0x000000000001b090                msdFrerBank1SCtrFlushAll
                0x000000000001b0e0                msdFrerBank1SCtrFlushCtr
                0x000000000001b130                msdFrerBank1SCtrRead
                0x000000000001b190                msdFrerBank1SCtrLoad
                0x000000000001b1e0                msdFrerBank1SCtrGetNext
                0x000000000001b240                msdFrerBank1SCtrReadClear
                0x000000000001b2a0                msdMacSecRead
                0x000000000001b310                msdMacSecWrite
                0x000000000001b380                msdMacSecFlushAll
                0x000000000001b3d0                msdMacSecGetEvent
                0x000000000001b420                msdMacSecCreateRule
                0x000000000001b480                msdMacSecDeleteRule
                0x000000000001b4d0                msdMacSecGetRule
                0x000000000001b530                msdMacSecCreateRxSecY
                0x000000000001b590                msdMacSecCreateTxSecY
                0x000000000001b5f0                msdMacSecDeleteTxSecY
                0x000000000001b640                msdMacSecDeleteRxSecY
                0x000000000001b690                msdMacSecGetTxSecY
                0x000000000001b6f0                msdMacSecGetRxSecY
                0x000000000001b750                msdMacSecCreateRxSC
                0x000000000001b7b0                msdMacSecDeleteRxSC
                0x000000000001b800                msdMacSecGetRxSC
                0x000000000001b860                msdMacSecCreateRxSA
                0x000000000001b8c0                msdMacSecDeleteRxSA
                0x000000000001b910                msdMacSecGetRxSA
                0x000000000001b970                msdMacSecCreateTxSC
                0x000000000001b9d0                msdMacSecDeleteTxSC
                0x000000000001ba20                msdMacSecGetTxSC
                0x000000000001ba80                msdMacSecCreateTxSA
                0x000000000001bae0                msdMacSecDeleteTxSA
                0x000000000001bb30                msdMacSecGetTxSA
                0x000000000001bb90                msdMacSecGetRXSCStates
                0x000000000001bbf0                msdMacSecGetRXSecYStates
                0x000000000001bc50                msdMacSecGetTXSCStates
                0x000000000001bcb0                msdMacSecGetTXSecYStates
                0x000000000001bd10                msdMacSecEnableEgressSet
                0x000000000001bd70                msdMacSecEnableIngressSet
                0x000000000001bdd0                msdMacSecEnableIngressGet
                0x000000000001be30                msdMacSecEnableEgressGet
                0x000000000001be90                msdMacSecSetTxPNThreshold
                0x000000000001bee0                msdMacSecGetTxPNThreshold
                0x000000000001bf30                msdMacSecSetTxXPNThreshold
                0x000000000001bf80                msdMacSecGetTxXPNThreshold
                0x000000000001bfd0                msdMacSecSetRxDefaultSCI
                0x000000000001c030                msdMacSecGetRxDefaultSCI
                0x000000000001c090                msdMacSecSetTxSCIntCtrl
                0x000000000001c0f0                msdMacSecGetTxSCIntCtrl
                0x000000000001c150                msdMacSecGetNextTxSCIntStatus
 .text          0x000000000001c1c0      0x518 /home/roscube/Desktop/UMSD_v7.0.0_comb/UMSD_v7.0.0/obj/src/platform/msdDrv_obj/platform.o
                0x000000000001c1c0                msdSemCreate
                0x000000000001c200                msdSemDelete
                0x000000000001c240                msdSemTake
                0x000000000001c370                msdSemGive
                0x000000000001c3f0                msdSetStringPrintCallback
                0x000000000001c400                msdDbgPrint
                0x000000000001c540                msdDbgLvlSet
                0x000000000001c610                msdDisplayStatus
 *fill*         0x000000000001c6d8        0x8 
 .text          0x000000000001c6e0      0x164 /home/roscube/Desktop/UMSD_v7.0.0_comb/UMSD_v7.0.0/obj/src/utils/msdDrv_obj/utils.o
                0x000000000001c6e0                msdMemSet
                0x000000000001c710                msdMemCpy
                0x000000000001c740                msdMemCmp
                0x000000000001c780                msdStrlen
                0x000000000001c7c0                msd_isBigEndian
                0x000000000001c7d0                msd_htonl
                0x000000000001c7e0                msd_htons
                0x000000000001c7f0                msd_ntohl
                0x000000000001c800                msd_ntohs
                0x000000000001c810                msdLong2Char
                0x000000000001c830                msdShort2Char
 *fill*         0x000000000001c844        0xc 
 .text          0x000000000001c850    0x15e6c /home/roscube/Desktop/UMSD_v7.0.0_comb/UMSD_v7.0.0/obj/dev/topaz/msdDrv_Topaz.o
                0x000000000001c850                Topaz_msdSetSMIC45PhyReg
                0x000000000001c9d0                Topaz_msdGetSMIC45PhyReg
                0x000000000001cb50                Topaz_msdSetSMIPhyReg
                0x000000000001cc40                Topaz_msdGetSMIPhyReg
                0x000000000001cd90                Topaz_msdSetSMIPhyRegField
                0x000000000001ce80                Topaz_msdGetSMIPhyRegField
                0x000000000001cf20                Topaz_msdSetPagedPhyRegField
                0x000000000001cfa0                Topaz_msdGetPagedPhyRegField
                0x000000000001d070                Topaz_msdWritePagedPhyReg
                0x000000000001d0d0                Topaz_msdReadPagedPhyReg
                0x000000000001d130                Topaz_msdSetSMIPhyXMDIOReg
                0x000000000001d240                Topaz_msdGetSMIPhyXMDIOReg
                0x000000000001d390                Topaz_msdPhyReset
                0x000000000001d550                Topaz_msdSetSMIExtPhyReg
                0x000000000001d640                Topaz_msdGetSMIExtPhyReg
                0x000000000001d790                Topaz_msdWritePagedExtPhyReg
                0x000000000001d7f0                Topaz_msdReadPagedExtPhyReg
                0x000000000001d850                Topaz_msdSetSMIExtPhyXMDIOReg
                0x000000000001d940                Topaz_msdGetSMIExtPhyXMDIOReg
                0x000000000001e930                Topaz_gtcamFlushAll
                0x000000000001e980                Topaz_gtcamFlushEntry
                0x000000000001e9e0                Topaz_gtcamLoadEntry
                0x000000000001ea60                Topaz_gtcamReadTCAMData
                0x000000000001eaf0                Topaz_gtcamGetNextTCAMData
                0x000000000001eb90                Topaz_gtcamFindEntry
                0x000000000001ec60                Topaz_gtcamSetMode
                0x000000000001ecc0                Topaz_gtcamGetMode
                0x000000000001ed50                Topaz_gtcamAddEntryPort
                0x000000000001ee40                Topaz_gtcamRemoveEntryPort
                0x000000000001ef30                Topaz_gtcamDump
                0x000000000001f2d0                Topaz_gtcamAdvConfig
                0x000000000001ffc0                Topaz_gvctGetAdvCableDiag
                0x0000000000020430                Topaz_gvctGetAdvExtendedStatus
                0x0000000000020f80                Topaz_gfdbGetAtuEntryNext
                0x0000000000020fa0                Topaz_gfdbFlush
                0x0000000000021010                Topaz_gfdbFlushInDB
                0x00000000000210a0                Topaz_gfdbMove
                0x0000000000021190                Topaz_gfdbMoveInDB
                0x0000000000021290                Topaz_gfdbAddMacEntry
                0x0000000000021350                Topaz_gfdbDelAtuEntry
                0x00000000000213e0                Topaz_gfdbGetViolation
                0x00000000000214e0                Topaz_gfdbFindAtuMacEntry
                0x0000000000021610                Topaz_gfdbSetAgingTimeout
                0x0000000000021670                Topaz_gfdbGetAgingTimeout
                0x00000000000216e0                Topaz_gfdbGetLearn2All
                0x0000000000021760                Topaz_gfdbSetLearn2All
                0x0000000000021790                Topaz_gfdbSetPortLearnLimit
                0x00000000000218c0                Topaz_gfdbGetPortLearnLimit
                0x00000000000219d0                Topaz_gfdbGetPortLearnCount
                0x0000000000021a90                Topaz_gfdbGetEntryCount
                0x0000000000021ae0                Topaz_gfdbGetEntryCountPerFid
                0x0000000000021b30                Topaz_gfdbGetNonStaticEntryCount
                0x0000000000021b80                Topaz_gfdbGetNonStaticEntryCountPerFid
                0x0000000000022270                Topaz_gvtuGetEntryNext
                0x0000000000022380                Topaz_gvtuFlush
                0x00000000000223a0                Topaz_gvtuAddEntry
                0x00000000000224c0                Topaz_gvtuDelEntry
                0x0000000000022520                Topaz_gvtuGetViolation
                0x0000000000022630                Topaz_gvtuFindVidEntry
                0x00000000000227a0                Topaz_gvtuDump
                0x0000000000022eb0                Topaz_gstuGetEntryNext
                0x0000000000022f90                Topaz_gstuAddEntry
                0x0000000000023060                Topaz_gstuDelEntry
                0x00000000000230c0                Topaz_gstuFindSidEntry
                0x00000000000231c0                Topaz_gstuDump
                0x0000000000023550                Topaz_gpirlInitialize
                0x0000000000023570                Topaz_gpirlInitResource
                0x00000000000235f0                Topaz_gpirlCustomSetup
                0x0000000000023970                Topaz_gpirlReadResource
                0x0000000000023ba0                Topaz_gpirlWriteResource
                0x0000000000023e00                Topaz_gpirlGetResReg
                0x0000000000023eb0                Topaz_gpirlSetResReg
                0x0000000000024340                Topaz_gstatsFlushAll
                0x0000000000024360                Topaz_gstatsFlushPort
                0x00000000000243a0                Topaz_gstatsGetPortCounter
                0x0000000000024400                Topaz_gstatsGetPortAllCounters
                0x0000000000024450                Topaz_gstatsGetHistogramMode
                0x0000000000024500                Topaz_gstatsSetHistogramMode
                0x0000000000024540                Topaz_gmibDump
                0x0000000000024c40                Topaz_impRun
                0x0000000000024d20                Topaz_impReset
                0x0000000000024e20                Topaz_impWriteEEPROM
                0x0000000000024f20                Topaz_impLoadToEEPROM
                0x0000000000025070                Topaz_impLoadToRAM
                0x00000000000251d0                Topaz_impStop
                0x00000000000254c0                Topaz_gphyReset
                0x0000000000025590                Topaz_serdesReset
                0x0000000000025650                Topaz_gphySetPortLoopback
                0x0000000000025740                Topaz_gphySetPortSpeed
                0x00000000000258d0                Topaz_gphyPortPowerDown
                0x00000000000259c0                Topaz_gphySetPortDuplexMode
                0x0000000000025ae0                Topaz_gphySetPortAutoMode
                0x0000000000025bb0                Topaz_gphySetEEE
                0x0000000000025cb0                Topaz_gphySetFlowControlEnable
                0x0000000000025dd0                Topaz_gphySetIntEnable
                0x0000000000025e40                Topaz_gphyGetIntEnable
                0x0000000000025ee0                Topaz_gphyGetIntStatus
                0x0000000000025f80                Topaz_gprtSetForceDefaultVid
                0x0000000000025fe0                Topaz_gprtGetForceDefaultVid
                0x0000000000026070                Topaz_gvlnSetPortVid
                0x00000000000260d0                Topaz_gvlnGetPortVid
                0x0000000000026160                Topaz_gvlnSetPortVlanDot1qMode
                0x00000000000261c0                Topaz_gvlnGetPortVlanDot1qMode
                0x0000000000026250                Topaz_gprtSetDiscardTagged
                0x00000000000262b0                Topaz_gprtGetDiscardTagged
                0x0000000000026340                Topaz_gprtSetDiscardUntagged
                0x00000000000263a0                Topaz_gprtGetDiscardUntagged
                0x0000000000026430                Topaz_gprtSetUnicastFloodBlock
                0x0000000000026490                Topaz_gprtGetUnicastFloodBlock
                0x0000000000026520                Topaz_gprtSetMulticastFloodBlock
                0x0000000000026580                Topaz_gprtGetMulticastFloodBlock
                0x0000000000026610                Topaz_gprtSetDiscardBCastMode
                0x0000000000026670                Topaz_gprtGetDiscardBCastMode
                0x0000000000026710                Topaz_gprtSetIGMPSnoopEnable
                0x0000000000026770                Topaz_gprtGetIGMPSnoopEnable
                0x0000000000026810                Topaz_gprtGetHeaderMode
                0x00000000000268b0                Topaz_gprtSetHeaderMode
                0x0000000000026910                Topaz_gprtGetDropOnLock
                0x00000000000269b0                Topaz_gprtSetDropOnLock
                0x0000000000026a10                Topaz_gprtSetJumboMode
                0x0000000000026a80                Topaz_gprtGetJumboMode
                0x0000000000026b10                Topaz_gprtSetLearnEnable
                0x0000000000026b80                Topaz_gprtGetLearnEnable
                0x0000000000026c10                Topaz_gprtGetVTUPriorityOverride
                0x0000000000026ca0                Topaz_gprtSetVTUPriorityOverride
                0x0000000000026d00                Topaz_gprtGetSAPriorityOverride
                0x0000000000026d90                Topaz_gprtSetSAPriorityOverride
                0x0000000000026df0                Topaz_gprtGetDAPriorityOverride
                0x0000000000026e80                Topaz_gprtSetDAPriorityOverride
                0x0000000000026ee0                Topaz_gprtGetMessagePort
                0x0000000000026f70                Topaz_gprtSetMessagePort
                0x0000000000026fd0                Topaz_gprtGetEtherType
                0x0000000000027020                Topaz_gprtSetEtherType
                0x0000000000027070                Topaz_gprtSetTrunkPort
                0x0000000000027110                Topaz_gprtGetTrunkPort
                0x00000000000271f0                Topaz_gprtSetFlowCtrl
                0x0000000000027260                Topaz_gprtGetFlowCtrl
                0x0000000000027310                Topaz_gprtSetEgressMonitorSource
                0x0000000000027370                Topaz_gprtGetEgressMonitorSource
                0x0000000000027400                Topaz_gprtSetIngressMonitorSource
                0x0000000000027460                Topaz_gprtGetIngressMonitorSource
                0x00000000000274f0                Topaz_grcSetELimitMode
                0x0000000000027550                Topaz_grcSetEgressRate
                0x0000000000027700                Topaz_grcGetELimitMode
                0x0000000000027790                Topaz_grcGetEgressRate
                0x00000000000278d0                Topaz_gprtSetDuplex
                0x0000000000027940                Topaz_gprtGetDuplex
                0x0000000000027a10                Topaz_gprtGetDuplexStatus
                0x0000000000027aa0                Topaz_gprtGetForceLink
                0x0000000000027b60                Topaz_gprtSetForceLink
                0x0000000000027bd0                Topaz_gprtGetLinkState
                0x0000000000027c60                Topaz_gprtSetForceSpeed
                0x0000000000027ed0                Topaz_gprtGetForceSpeed
                0x0000000000028050                Topaz_gprtGetSpeed
                0x00000000000281d0                Topaz_gprtGetVlanPorts
                0x0000000000028290                Topaz_gprtSetVlanPorts
                0x0000000000028340                Topaz_gprtGetFrameMode
                0x00000000000283d0                Topaz_gprtSetFrameMode
                0x0000000000028430                Topaz_gprtSetEgressMode
                0x0000000000028490                Topaz_gprtGetEgressMode
                0x0000000000028520                Topaz_gprtGetPortState
                0x00000000000285b0                Topaz_gprtSetPortState
                0x0000000000028610                Topaz_gprtSetCutThrouthEnable
                0x0000000000028680                Topaz_gprtGetCutThrouthEnable
                0x0000000000028710                Topaz_gprtSetIgnoreFcs
                0x0000000000028770                Topaz_gprtGetIgnoreFcs
                0x0000000000028800                Topaz_gprtSetAllowBadFcs
                0x0000000000028860                Topaz_gprtGetAllowBadFcs
                0x00000000000288f0                Topaz_gprtSetPauseLimitOut
                0x0000000000028950                Topaz_gprtGetPauseLimitOut
                0x00000000000289b0                Topaz_gprtSetPauseLimitIn
                0x0000000000028a10                Topaz_gprtGetPauseLimitIn
                0x0000000000028a70                Topaz_gprtGetOutQueueSize
                0x0000000000028b10                Topaz_gprtSetMapDA
                0x0000000000028b70                Topaz_gprtGetMapDA
                0x0000000000028c00                Topaz_gprtSetPortLocked
                0x0000000000028c60                Topaz_gprtGetPortLocked
                0x0000000000028cf0                Topaz_gprtSetHoldAt1
                0x0000000000028d50                Topaz_gprtGetHoldAt1
                0x0000000000028de0                Topaz_gprtSetInt0nAgeOut
                0x0000000000028e40                Topaz_gprtGetInt0nAgeOut
                0x0000000000028ed0                Topaz_gprtSetRefreshLocked
                0x0000000000028f30                Topaz_gprtGetRefreshLocked
                0x0000000000028fc0                Topaz_gprtSetIgnoreWrongData
                0x0000000000029020                Topaz_gprtGetIgnoreWrongData
                0x00000000000290b0                Topaz_gprtSetARPMirror
                0x0000000000029110                Topaz_gprtGetARPMirror
                0x00000000000291a0                Topaz_gprtRegDump
                0x00000000000292a0                Topaz_gqosSetPrioMapRule
                0x0000000000029300                Topaz_gqosGetPrioMapRule
                0x0000000000029390                Topaz_gprtSetInitialPri
                0x0000000000029400                Topaz_gprtGetInitialPri
                0x00000000000294c0                Topaz_gprtSetDefQpri
                0x0000000000029520                Topaz_gprtGetDefQpri
                0x00000000000295c0                Topaz_gprtSetDefFpri
                0x0000000000029620                Topaz_gprtGetDefFpri
                0x00000000000299c0                Topaz_gqavSetPortQpriXRate
                0x0000000000029a60                Topaz_gqavGetPortQpriXRate
                0x0000000000029b00                Topaz_gqavSetPortQpriXHiLimit
                0x0000000000029bb0                Topaz_gqavGetPortQpriXHiLimit
                0x0000000000029c50                Topaz_gprtSetQueueCtrl
                0x0000000000029d60                Topaz_gprtGetQueueCtrl
                0x0000000000029ea0                Topaz_gprtSetPortSched
                0x0000000000029f00                Topaz_gprtGetPortSched
                0x0000000000029fd0                Topaz_gsysSetQoSWeight
                0x000000000002a280                Topaz_gsysGetQoSWeight
                0x000000000002a760                Topaz_gsysSetTrunkMaskTable
                0x000000000002a890                Topaz_gsysGetTrunkMaskTable
                0x000000000002a9f0                Topaz_gsysSetHashTrunk
                0x000000000002aa20                Topaz_gsysGetHashTrunk
                0x000000000002aa90                Topaz_gsysSetTrunkRouting
                0x000000000002abb0                Topaz_gsysGetTrunkRouting
                0x000000000002ad00                Topaz_gsysSetFloodBC
                0x000000000002ad30                Topaz_gsysGetFloodBC
                0x000000000002ada0                Topaz_gsysSetMonitorMgmtCtrl
                0x000000000002add0                Topaz_gsysGetMonitorMgmtCtrl
                0x000000000002adf0                Topaz_gsysSetCPUDest
                0x000000000002aeb0                Topaz_gsysGetCPUDest
                0x000000000002af40                Topaz_gsysSetIngressMonitorDest
                0x000000000002afa0                Topaz_gsysGetIngressMonitorDest
                0x000000000002b020                Topaz_gsysSetEgressMonitorDest
                0x000000000002b080                Topaz_gsysGetEgressMonitorDest
                0x000000000002b100                Topaz_gsysSetRsvd2CpuEnables
                0x000000000002b140                Topaz_gsysGetRsvd2CpuEnables
                0x000000000002b1c0                Topaz_gsysSetMGMTPri
                0x000000000002b260                Topaz_gsysGetMGMTPri
                0x000000000002b2c0                Topaz_gsysSetSMISetup
                0x000000000002b3e0                Topaz_gsysGetSMISetup
                0x000000000002b4f0                Topaz_gsysGlobal1RegDump
                0x000000000002b5c0                Topaz_gsysGlobal2RegDump
                0x000000000002b690                Topaz_gsysSetRMUMode
                0x000000000002b750                Topaz_gsysGetRMUMode
                0x000000000002b7e0                Topaz_gsysQbvWrite
                0x000000000002b8f0                Topaz_gsysQbvRead
                0x000000000002b9f0                Topaz_gsysDevIntEnableSet
                0x000000000002ba50                Topaz_gsysDevIntEnableGet
                0x000000000002bae0                Topaz_gsysDevIntStatusGet
                0x000000000002bb60                Topaz_gsysActiveIntEnableSet
                0x000000000002bc20                Topaz_gsysActiveIntEnableGet
                0x000000000002bcb0                Topaz_gsysActiveIntStatusGet
                0x000000000002c310                Topaz_msdRmuGetID
                0x000000000002c440                Topaz_msdRmuAtuDump
                0x000000000002c650                Topaz_msdRmuMib2Dump
                0x000000000002ca80                Topaz_msdRmuReadRegister
                0x000000000002cab0                Topaz_msdRmuWriteRegister
                0x000000000002cad0                Topaz_msdRmuMultiRegAccess
                0x000000000002ccc0                Topaz_msdRmuTCAMDump
                0x000000000002ce30                Topaz_msdRmuTCAMWrite
                0x000000000002cfe0                Topaz_msdRmuTCAMRead
                0x000000000002d190                Topaz_msdRmuRegDump
                0x000000000002d260                Topaz_gtcamLoadEntryIntf
                0x000000000002d3d0                Topaz_gtcamReadTCAMDataIntf
                0x000000000002d560                Topaz_gtcamGetNextTCAMDataIntf
                0x000000000002d6f0                Topaz_gtcamFindEntryIntf
                0x000000000002d8c0                Topaz_gtcamSetModeIntf
                0x000000000002d8d0                Topaz_gtcamGetModeIntf
                0x000000000002d930                Topaz_gtcamAdvConfigIntf
                0x000000000002dad0                Topaz_gvctGetAdvCableDiagIntf
                0x000000000002dbd0                Topaz_gvctGetAdvExtendedStatusIntf
                0x000000000002dc70                Topaz_gfdbAddMacEntryIntf
                0x000000000002dcf0                Topaz_gfdbFlushIntf
                0x000000000002dd00                Topaz_gfdbFlushInDBIntf
                0x000000000002dd10                Topaz_gfdbMoveIntf
                0x000000000002dd20                Topaz_gfdbMoveInDBIntf
                0x000000000002dd30                Topaz_gfdbPortRemoveIntf
                0x000000000002dd60                Topaz_gfdbPortRemoveInDBIntf
                0x000000000002dd90                Topaz_gfdbGetAtuEntryNextIntf
                0x000000000002de60                Topaz_gfdbGetViolationIntf
                0x000000000002df40                Topaz_gfdbFindAtuMacEntryIntf
                0x000000000002e030                Topaz_gfdbDump
                0x000000000002e1a0                Topaz_gvtuFindVidEntryIntf
                0x000000000002e310                Topaz_gvtuGetEntryNextIntf
                0x000000000002e410                Topaz_gvtuExistVidEntryIntf
                0x000000000002e4a0                Topaz_gvtuFlushIntf
                0x000000000002e4b0                Topaz_gvtuAddEntryIntf
                0x000000000002e5b0                Topaz_gvtuDelEntryIntf
                0x000000000002e620                Topaz_gvtuGetViolationIntf
                0x000000000002e6e0                Topaz_gvtuGetEntryCountIntf
                0x000000000002e780                Topaz_gvtuSetMemberTagIntf
                0x000000000002e850                Topaz_gvtuGetMemberTagIntf
                0x000000000002e910                Topaz_gstuAddEntryIntf
                0x000000000002e9e0                Topaz_gstuGetEntryNextIntf
                0x000000000002ea90                Topaz_gstuDelEntryIntf
                0x000000000002eaf0                Topaz_gstuFindSidEntryIntf
                0x000000000002ec20                Topaz_gstuGetEntryCountIntf
                0x000000000002ecc0                Topaz_gpirlInitializeIntf
                0x000000000002ecd0                Topaz_gpirlInitResourceIntf
                0x000000000002ece0                Topaz_gpirlCustomSetupIntf
                0x000000000002eda0                Topaz_gpirlReadResourceIntf
                0x000000000002ee80                Topaz_gpirlWriteResourceIntf
                0x000000000002ef60                Topaz_gpirlGetResRegIntf
                0x000000000002ef70                Topaz_gpirlSetResRegIntf
                0x000000000002ef80                Topaz_gpirlAdvConfigIntf
                0x000000000002f0a0                Topaz_gpirlAdvConfigDisableIntf
                0x000000000002f120                Topaz_gstatsGetPortCounterIntf
                0x000000000002f130                Topaz_gstatsGetPortAllCountersIntf
                0x000000000002f330                Topaz_gstatsGetHistogramModeIntf
                0x000000000002f340                Topaz_gstatsSetHistogramModeIntf
                0x000000000002f350                Topaz_impRunIntf
                0x000000000002f360                Topaz_impResetIntf
                0x000000000002f370                Topaz_impWriteEEPROMIntf
                0x000000000002f380                Topaz_impLoadToEEPROMIntf
                0x000000000002f390                Topaz_impLoadToRAMIntf
                0x000000000002f3a0                Topaz_impStopIntf
                0x000000000002f3b0                Topaz_EEPROMWrite
                0x000000000002f530                Topaz_EEPROMRead
                0x000000000002f6b0                Topaz_gphySetPortSpeedIntf
                0x000000000002f6c0                Topaz_gphySetPortAutoModeIntf
                0x000000000002f6d0                Topaz_gvlnSetPortVlanDot1qModeIntf
                0x000000000002f6e0                Topaz_gvlnGetPortVlanDot1qModeIntf
                0x000000000002f6f0                Topaz_gprtSetDiscardTaggedIntf
                0x000000000002f700                Topaz_gprtGetDiscardTaggedIntf
                0x000000000002f710                Topaz_gprtSetDiscardUntaggedIntf
                0x000000000002f720                Topaz_gprtGetDiscardUntaggedIntf
                0x000000000002f730                Topaz_gprtSetUnicastFloodBlockIntf
                0x000000000002f740                Topaz_gprtGetUnicastFloodBlockIntf
                0x000000000002f750                Topaz_gprtSetMulticastFloodBlockIntf
                0x000000000002f760                Topaz_gprtGetMulticastFloodBlockIntf
                0x000000000002f770                Topaz_gprtSetDiscardBCastModeIntf
                0x000000000002f780                Topaz_gprtGetDiscardBCastModeIntf
                0x000000000002f790                Topaz_gprtSetJumboModeIntf
                0x000000000002f7a0                Topaz_gprtGetJumboModeIntf
                0x000000000002f7b0                Topaz_gprtSetLearnEnableIntf
                0x000000000002f7c0                Topaz_gprtGetLearnEnableIntf
                0x000000000002f7d0                Topaz_gprtGetVTUPriorityOverrideIntf
                0x000000000002f7e0                Topaz_gprtSetVTUPriorityOverrideIntf
                0x000000000002f7f0                Topaz_gprtGetSAPriorityOverrideIntf
                0x000000000002f800                Topaz_gprtSetSAPriorityOverrideIntf
                0x000000000002f810                Topaz_gprtGetDAPriorityOverrideIntf
                0x000000000002f820                Topaz_gprtSetDAPriorityOverrideIntf
                0x000000000002f830                Topaz_gprtSetFlowCtrlIntf
                0x000000000002f860                Topaz_gprtGetFlowCtrlIntf
                0x000000000002f870                Topaz_gprtSetForceSpeedIntf
                0x000000000002f8b0                Topaz_gprtGetForceSpeedIntf
                0x000000000002f8c0                Topaz_grcSetEgressRateIntf
                0x000000000002f8d0                Topaz_grcGetEgressRateIntf
                0x000000000002f8e0                Topaz_grcSetELimitModeIntf
                0x000000000002f8f0                Topaz_grcGetELimitModeIntf
                0x000000000002f900                Topaz_gprtSetDuplexIntf
                0x000000000002f910                Topaz_gprtGetDuplexIntf
                0x000000000002f920                Topaz_gprtGetDuplexStatusIntf
                0x000000000002f930                Topaz_gprtGetForceLinkIntf
                0x000000000002f940                Topaz_gprtSetForceLinkIntf
                0x000000000002f950                Topaz_gprtGetSpeedIntf
                0x000000000002f960                Topaz_gprtGetFrameModeIntf
                0x000000000002f970                Topaz_gprtSetFrameModeIntf
                0x000000000002f980                Topaz_gprtSetEgressModeIntf
                0x000000000002f9a0                Topaz_gprtGetEgressModeIntf
                0x000000000002f9b0                Topaz_gprtGetPortStateIntf
                0x000000000002f9c0                Topaz_gprtSetPortStateIntf
                0x000000000002f9d0                Topaz_gprtSetCutThrouthEnableIntf
                0x000000000002f9e0                Topaz_gprtGetCutThrouthEnableIntf
                0x000000000002f9f0                Topaz_gqosSetPrioMapRuleIntf
                0x000000000002fa00                Topaz_gqosGetPrioMapRuleIntf
                0x000000000002fa10                Topaz_gprtSetInitialPriIntf
                0x000000000002fa20                Topaz_gprtGetInitialPriIntf
                0x000000000002fa30                Topaz_gprtSetDefQpriIntf
                0x000000000002fa40                Topaz_gprtGetDefQpriIntf
                0x000000000002fa50                Topaz_gprtSetQueueCtrlIntf
                0x000000000002fa60                Topaz_gprtGetQueueCtrlIntf
                0x000000000002fa70                Topaz_gprtSetPortSchedIntf
                0x000000000002fab0                Topaz_gprtGetPortSchedIntf
                0x000000000002fac0                Topaz_gsysSetQoSWeightIntf
                0x000000000002fbc0                Topaz_gsysGetQoSWeightIntf
                0x000000000002fcc0                Topaz_EEPROMWriteIntf
                0x000000000002fcd0                Topaz_EEPROMReadIntf
                0x000000000002fce0                Topaz_msdRmuGetIDIntf
                0x000000000002fcf0                Topaz_msdRmuAtuDumpIntf
                0x000000000002fe40                Topaz_msdRmuMib2DumpIntf
                0x0000000000030040                Topaz_msdRmuReadRegisterIntf
                0x0000000000030050                Topaz_msdRmuWriteRegisterIntf
                0x0000000000030070                Topaz_msdRmuMultiRegAccessIntf
                0x0000000000030080                Topaz_msdRmuTCAMDumpIntf
                0x00000000000302e0                Topaz_msdRmuTCAMWriteIntf
                0x0000000000030450                Topaz_msdRmuTCAMReadIntf
                0x00000000000309a0                Topaz_gptpSetIntEnable
                0x0000000000030a80                Topaz_gptpGetIntEnable
                0x0000000000030b20                Topaz_gptpSetProtPTPEn
                0x0000000000030be0                Topaz_gptpGetProtPTPEn
                0x0000000000030c70                Topaz_gptpSetPortConfig
                0x0000000000030e50                Topaz_gptpGetPortConfig
                0x0000000000031010                Topaz_gptpGetTimeStamp
                0x0000000000031110                Topaz_gptpGetTSValidSt
                0x00000000000311d0                Topaz_gptpResetTimeStamp
                0x0000000000031290                Topaz_gptpSetGlobalConfig
                0x0000000000031350                Topaz_gptpGetGlobalConfig
                0x0000000000031410                Topaz_gptpGetIntStatus
                0x0000000000031490                Topaz_gptpSetIntEnableIntf
                0x00000000000314f0                Topaz_gptpGetIntEnableIntf
                0x0000000000031550                Topaz_gptpSetPortConfigIntf
                0x00000000000315d0                Topaz_gptpGetPortConfigIntf
                0x0000000000031650                Topaz_gptpGetTimeStampIntf
                0x00000000000316c0                Topaz_gptpSetGlobalConfigIntf
                0x0000000000031720                Topaz_gptpGetGlobalConfigIntf
                0x0000000000031790                Topaz_gptpGetIntStatusIntf
                0x0000000000031a70                Topaz_gledForceOn
                0x0000000000031b30                Topaz_gledForceOff
                0x0000000000031c00                Topaz_gledLinkAct
                0x0000000000031ce0                Topaz_gledModeSet
                0x0000000000031e10                Topaz_gledModeGet
                0x0000000000031ea0                Topaz_gledBlinkRateSet
                0x0000000000031f50                Topaz_gledBlinkRateGet
                0x0000000000032030                Topaz_gledPulseStretchSet
                0x00000000000320e0                Topaz_gledPulseStretchGet
                0x00000000000321b0                Topaz_gledSpecialModeSet
                0x0000000000032260                Topaz_gledSpecialModeGet
                0x00000000000322d0                Topaz_gledCtrlSet
                0x0000000000032310                Topaz_gledCtrlGet
                0x0000000000032340                Topaz_gledDump
                0x00000000000325f0                Topaz_gledForceOnIntf
                0x0000000000032600                Topaz_gledForceOffIntf
                0x0000000000032610                Topaz_gledLinkActIntf
                0x0000000000032620                Topaz_gledModeSetIntf
                0x0000000000032630                Topaz_gledModeGetIntf
                0x0000000000032640                Topaz_gledBlinkRateSetIntf
                0x0000000000032650                Topaz_gledBlinkRateGetIntf
                0x0000000000032660                Topaz_gledPulseStretchSetIntf
                0x0000000000032670                Topaz_gledPulseStretchGetIntf
                0x0000000000032680                Topaz_gledSpecialModeSetIntf
                0x0000000000032690                Topaz_gledSpecialModeGetIntf
                0x00000000000326a0                Topaz_gledCtrlSetIntf
                0x00000000000326b0                Topaz_gledCtrlGetIntf
 *fill*         0x00000000000326bc        0x4 
 .text          0x00000000000326c0    0x1957c /home/roscube/Desktop/UMSD_v7.0.0_comb/UMSD_v7.0.0/obj/dev/peridot/msdDrv_Peridot.o
                0x00000000000326c0                Peridot_msdSetSMIC45PhyReg
                0x0000000000032840                Peridot_msdGetSMIC45PhyReg
                0x00000000000329c0                Peridot_msdSetSMIPhyReg
                0x0000000000032ab0                Peridot_msdGetSMIPhyReg
                0x0000000000032be0                Peridot_msdSetSMIPhyRegField
                0x0000000000032cd0                Peridot_msdGetSMIPhyRegField
                0x0000000000032d70                Peridot_msdSetPagedPhyRegField
                0x0000000000032df0                Peridot_msdGetPagedPhyRegField
                0x0000000000032ec0                Peridot_msdWritePagedPhyReg
                0x0000000000032f20                Peridot_msdReadPagedPhyReg
                0x0000000000032f80                Peridot_msdSetSMIPhyXMDIOReg
                0x0000000000033090                Peridot_msdGetSMIPhyXMDIOReg
                0x00000000000331d0                Peridot_msdPhyReset
                0x0000000000033390                Peridot_msdSetSMIExtPhyReg
                0x0000000000033480                Peridot_msdGetSMIExtPhyReg
                0x00000000000335b0                Peridot_msdWritePagedExtPhyReg
                0x0000000000033610                Peridot_msdReadPagedExtPhyReg
                0x0000000000033670                Peridot_msdSetSMIExtPhyXMDIOReg
                0x0000000000033760                Peridot_msdGetSMIExtPhyXMDIOReg
                0x0000000000034ec0                Peridot_gtcamFlushAll
                0x0000000000034f10                Peridot_gtcamFlushEntry
                0x0000000000034f70                Peridot_gtcamLoadEntry
                0x0000000000035000                Peridot_gtcamReadTCAMData
                0x0000000000035090                Peridot_gtcamGetNextTCAMData
                0x0000000000035130                Peridot_gtcamFindEntry
                0x0000000000035210                Peridot_gtcamSetMode
                0x0000000000035270                Peridot_gtcamGetMode
                0x0000000000035300                Peridot_gtcamAddEntryPort
                0x00000000000353f0                Peridot_gtcamRemoveEntryPort
                0x00000000000354e0                Peridot_gtcamEgrFlushEntry
                0x0000000000035560                Peridot_gtcamEgrFlushEntryAllPorts
                0x00000000000355c0                Peridot_gtcamEgrLoadEntry
                0x0000000000035750                Peridot_gtcamEgrGetNextTCAMData
                0x0000000000035810                Peridot_gtcamEgrReadTCAMData
                0x00000000000358c0                Peridot_gtcamDump
                0x0000000000035cf0                Peridot_gtcamAdvConfig
                0x0000000000036ab0                Peridot_gvctGetAdvCableDiag
                0x0000000000036f20                Peridot_gvctGetAdvExtendedStatus
                0x0000000000037ab0                Peridot_gfdbGetAtuEntryNext
                0x0000000000037ad0                Peridot_gfdbFlush
                0x0000000000037b40                Peridot_gfdbFlushInDB
                0x0000000000037bd0                Peridot_gfdbMove
                0x0000000000037cc0                Peridot_gfdbMoveInDB
                0x0000000000037dc0                Peridot_gfdbAddMacEntry
                0x0000000000037e90                Peridot_gfdbDelAtuEntry
                0x0000000000037f20                Peridot_gfdbGetViolation
                0x0000000000038010                Peridot_gfdbFindAtuMacEntry
                0x0000000000038150                Peridot_gfdbSetAgingTimeout
                0x00000000000381b0                Peridot_gfdbGetAgingTimeout
                0x0000000000038220                Peridot_gfdbGetLearn2All
                0x00000000000382a0                Peridot_gfdbSetLearn2All
                0x00000000000382d0                Peridot_gfdbSetPortLearnLimit
                0x0000000000038440                Peridot_gfdbGetPortLearnLimit
                0x0000000000038550                Peridot_gfdbGetPortLearnCount
                0x0000000000038610                Peridot_gfdbGetEntryCount
                0x0000000000038660                Peridot_gfdbGetEntryCountPerFid
                0x00000000000386b0                Peridot_gfdbGetNonStaticEntryCount
                0x0000000000038700                Peridot_gfdbGetNonStaticEntryCountPerFid
                0x0000000000038e00                Peridot_gvtuGetEntryNext
                0x0000000000038f40                Peridot_gvtuFindVidEntry
                0x00000000000390f0                Peridot_gvtuFlush
                0x0000000000039110                Peridot_gvtuAddEntry
                0x0000000000039250                Peridot_gvtuDelEntry
                0x00000000000392c0                Peridot_gvtuSetMode
                0x00000000000393a0                Peridot_gvtuGetMode
                0x00000000000394c0                Peridot_gvtuGetViolation
                0x00000000000395e0                Peridot_gvtuDump
                0x0000000000039b80                Peridot_gstuGetEntryNext
                0x0000000000039c60                Peridot_gstuAddEntry
                0x0000000000039d30                Peridot_gstuDelEntry
                0x0000000000039d90                Peridot_gstuFindSidEntry
                0x0000000000039e90                Peridot_gstuDump
                0x000000000003a240                Peridot_gpirlInitialize
                0x000000000003a260                Peridot_gpirlInitResource
                0x000000000003a2e0                Peridot_gpirlCustomSetup_sr2c
                0x000000000003a4d0                Peridot_gpirlReadResource
                0x000000000003a6a0                Peridot_gpirlWriteResource
                0x000000000003a850                Peridot_gpirlGetResReg
                0x000000000003a8f0                Peridot_gpirlSetResReg
                0x000000000003ad50                Peridot_gstatsFlushAll
                0x000000000003ad70                Peridot_gstatsFlushPort
                0x000000000003adb0                Peridot_gstatsGetPortCounter
                0x000000000003ae10                Peridot_gstatsGetPortAllCounters
                0x000000000003ae60                Peridot_gstatsGetHistogramMode
                0x000000000003af10                Peridot_gstatsSetHistogramMode
                0x000000000003af50                Peridot_gmibDump
                0x000000000003b750                Peridot_gprtSetForceDefaultVid
                0x000000000003b7b0                Peridot_gprtGetForceDefaultVid
                0x000000000003b840                Peridot_gvlnSetPortVid
                0x000000000003b8a0                Peridot_gvlnGetPortVid
                0x000000000003b930                Peridot_gvlnSetPortVlanDot1qMode
                0x000000000003b990                Peridot_gvlnGetPortVlanDot1qMode
                0x000000000003ba20                Peridot_gprtSetDiscardTagged
                0x000000000003ba80                Peridot_gprtGetDiscardTagged
                0x000000000003bb10                Peridot_gprtSetDiscardUntagged
                0x000000000003bb70                Peridot_gprtGetDiscardUntagged
                0x000000000003bc00                Peridot_gprtSetUnicastFloodBlock
                0x000000000003bc60                Peridot_gprtGetUnicastFloodBlock
                0x000000000003bcf0                Peridot_gprtSetMulticastFloodBlock
                0x000000000003bd50                Peridot_gprtGetMulticastFloodBlock
                0x000000000003bde0                Peridot_gprtSetDiscardBCastMode
                0x000000000003be40                Peridot_gprtGetDiscardBCastMode
                0x000000000003bee0                Peridot_gprtSetIGMPSnoopEnable
                0x000000000003bf40                Peridot_gprtGetIGMPSnoopEnable
                0x000000000003bfe0                Peridot_gprtGetHeaderMode
                0x000000000003c080                Peridot_gprtSetHeaderMode
                0x000000000003c0e0                Peridot_gprtGetDropOnLock
                0x000000000003c180                Peridot_gprtSetDropOnLock
                0x000000000003c1e0                Peridot_gprtSetJumboMode
                0x000000000003c250                Peridot_gprtGetJumboMode
                0x000000000003c2e0                Peridot_gprtSetLearnEnable
                0x000000000003c350                Peridot_gprtGetLearnEnable
                0x000000000003c3e0                Peridot_gprtGetVTUPriorityOverride
                0x000000000003c470                Peridot_gprtSetVTUPriorityOverride
                0x000000000003c4d0                Peridot_gprtGetSAPriorityOverride
                0x000000000003c560                Peridot_gprtSetSAPriorityOverride
                0x000000000003c5c0                Peridot_gprtGetDAPriorityOverride
                0x000000000003c650                Peridot_gprtSetDAPriorityOverride
                0x000000000003c6b0                Peridot_gprtGetMessagePort
                0x000000000003c740                Peridot_gprtSetMessagePort
                0x000000000003c7a0                Peridot_gprtGetEtherType
                0x000000000003c7f0                Peridot_gprtSetEtherType
                0x000000000003c840                Peridot_gprtGetAllowVidZero
                0x000000000003c8d0                Peridot_gprtSetAllowVidZero
                0x000000000003c930                Peridot_gprtSetTrunkPort
                0x000000000003c9d0                Peridot_gprtGetTrunkPort
                0x000000000003cab0                Peridot_gprtSetFlowCtrl
                0x000000000003cb70                Peridot_gprtGetFlowCtrl
                0x000000000003cbe0                Peridot_gprtSetEgressMonitorSource
                0x000000000003cc40                Peridot_gprtGetEgressMonitorSource
                0x000000000003ccd0                Peridot_gprtSetIngressMonitorSource
                0x000000000003cd30                Peridot_gprtGetIngressMonitorSource
                0x000000000003cdc0                Peridot_grcSetELimitMode
                0x000000000003ce20                Peridot_grcSetEgressRate
                0x000000000003d000                Peridot_grcGetELimitMode
                0x000000000003d090                Peridot_grcGetEgressRate
                0x000000000003d1d0                Peridot_gprtSetDuplex
                0x000000000003d240                Peridot_gprtGetDuplex
                0x000000000003d310                Peridot_gprtGetDuplexStatus
                0x000000000003d3a0                Peridot_gprtGetForceLink
                0x000000000003d460                Peridot_gprtSetForceLink
                0x000000000003d4d0                Peridot_gprtGetLinkState
                0x000000000003d560                Peridot_gprtSetForceSpeed
                0x000000000003d800                Peridot_gprtGetForceSpeed
                0x000000000003d990                Peridot_gprtGetSpeed
                0x000000000003daa0                Peridot_gprtGetVlanPorts
                0x000000000003db60                Peridot_gprtSetVlanPorts
                0x000000000003dc10                Peridot_gprtGetFrameMode
                0x000000000003dca0                Peridot_gprtSetFrameMode
                0x000000000003dd00                Peridot_gprtSetEgressMode
                0x000000000003dd60                Peridot_gprtGetEgressMode
                0x000000000003ddf0                Peridot_gprtGetPortState
                0x000000000003de80                Peridot_gprtSetPortState
                0x000000000003dee0                Peridot_gprtSetCutThrouthEnable
                0x000000000003df50                Peridot_gprtGetCutThrouthEnable
                0x000000000003dfe0                Peridot_gprtSetIgnoreFcs
                0x000000000003e040                Peridot_gprtGetIgnoreFcs
                0x000000000003e0d0                Peridot_gprtSetAllowBadFcs
                0x000000000003e130                Peridot_gprtGetAllowBadFcs
                0x000000000003e1c0                Peridot_gprtSetPauseLimitOut
                0x000000000003e210                Peridot_gprtGetPauseLimitOut
                0x000000000003e260                Peridot_gprtSetPauseLimitIn
                0x000000000003e2a0                Peridot_gprtGetPauseLimitIn
                0x000000000003e2f0                Peridot_gprtSetQueueToPause
                0x000000000003e340                Peridot_gprtGetQueueToPause
                0x000000000003e390                Peridot_gprtSetRxPriorityFlowControlEnable
                0x000000000003e480                Peridot_gprtGetRxPriorityFlowControlEnable
                0x000000000003e520                Peridot_gprtSetRxPriorityFlowControlToQueue
                0x000000000003e610                Peridot_gprtGetRxPriorityFlowControlToQueue
                0x000000000003e6b0                Peridot_gprtSetTxPriorityFlowControlEnable
                0x000000000003e7a0                Peridot_gprtGetTxPriorityFlowControlEnable
                0x000000000003e840                Peridot_gprtGetOutQueueSize
                0x000000000003e8e0                Peridot_gprtSetMapDA
                0x000000000003e940                Peridot_gprtGetMapDA
                0x000000000003e9d0                Peridot_gprtSetPortLocked
                0x000000000003ea30                Peridot_gprtGetPortLocked
                0x000000000003eac0                Peridot_gprtSetHoldAt1
                0x000000000003eb20                Peridot_gprtGetHoldAt1
                0x000000000003ebb0                Peridot_gprtSetInt0nAgeOut
                0x000000000003ec10                Peridot_gprtGetInt0nAgeOut
                0x000000000003eca0                Peridot_gprtSetRefreshLocked
                0x000000000003ed00                Peridot_gprtGetRefreshLocked
                0x000000000003ed90                Peridot_gprtSetIgnoreWrongData
                0x000000000003edf0                Peridot_gprtGetIgnoreWrongData
                0x000000000003ee80                Peridot_gprtSetARPMirror
                0x000000000003eee0                Peridot_gprtGetARPMirror
                0x000000000003ef70                Peridot_gprtRegDump
                0x000000000003f070                Peridot_gqosSetPrioMapRule
                0x000000000003f0d0                Peridot_gqosGetPrioMapRule
                0x000000000003f160                Peridot_gprtSetInitialPri
                0x000000000003f1d0                Peridot_gprtGetInitialPri
                0x000000000003f290                Peridot_gprtSetDefQpri
                0x000000000003f2f0                Peridot_gprtGetDefQpri
                0x000000000003f390                Peridot_gprtSetIEEEPrioMap
                0x000000000003f5a0                Peridot_gprtGetIEEEPrioMap
                0x000000000003f7c0                Peridot_gprtRewriteDscp
                0x000000000003f820                Peridot_gprtSetCosToQueue
                0x000000000003f8a0                Peridot_gprtGetCosToQueue
                0x000000000003f900                Peridot_gprtSetCosToDscp
                0x000000000003f990                Peridot_gprtGetCosToDscp
                0x000000000003f9f0                Peridot_gprtSetDefFpri
                0x000000000003fa50                Peridot_gprtGetDefFpri
                0x000000000003fae0                Peridot_gprtSetQueueCtrl
                0x000000000003fbf0                Peridot_gprtGetQueueCtrl
                0x000000000003fd30                Peridot_gprtSetPortSched
                0x000000000003fd80                Peridot_gprtGetPortSched
                0x000000000003fe90                Peridot_gsysSetQoSWeight
                0x00000000000400c0                Peridot_gsysGetQoSWeight
                0x0000000000040540                Peridot_gsysSetTrunkMaskTable
                0x0000000000040670                Peridot_gsysGetTrunkMaskTable
                0x00000000000407d0                Peridot_gsysSetHashTrunk
                0x0000000000040800                Peridot_gsysGetHashTrunk
                0x0000000000040870                Peridot_gsysSetTrunkRouting
                0x00000000000409d0                Peridot_gsysGetTrunkRouting
                0x0000000000040b60                Peridot_gsysSetFloodBC
                0x0000000000040b90                Peridot_gsysGetFloodBC
                0x0000000000040c00                Peridot_gsysSetMonitorMgmtCtrl
                0x0000000000040c30                Peridot_gsysGetMonitorMgmtCtrl
                0x0000000000040c50                Peridot_gsysSetCPUDest
                0x0000000000040d10                Peridot_gsysGetCPUDest
                0x0000000000040da0                Peridot_gsysSetIngressMonitorDest
                0x0000000000040e00                Peridot_gsysGetIngressMonitorDest
                0x0000000000040e90                Peridot_gsysSetEgressMonitorDest
                0x0000000000040ef0                Peridot_gsysGetEgressMonitorDest
                0x0000000000040f80                Peridot_gsysSetRsvd2CpuEnables
                0x0000000000040fc0                Peridot_gsysGetRsvd2CpuEnables
                0x0000000000041040                Peridot_gsysSetMGMTPri
                0x00000000000410e0                Peridot_gsysGetMGMTPri
                0x0000000000041140                Peridot_gsysSetSMISetup
                0x0000000000041270                Peridot_gsysGetSMISetup
                0x0000000000041380                Peridot_gsysGlobal1RegDump
                0x0000000000041450                Peridot_gsysGlobal2RegDump
                0x0000000000041520                Peridot_gsysSetRMUMode
                0x00000000000415e0                Peridot_gsysGetRMUMode
                0x0000000000041670                Peridot_gsysQbvWrite
                0x0000000000041780                Peridot_gsysQbvRead
                0x0000000000041880                Peridot_gsysDevIntEnableSet
                0x00000000000418e0                Peridot_gsysDevIntEnableGet
                0x0000000000041970                Peridot_gsysDevIntStatusGet
                0x00000000000419f0                Peridot_gsysActiveIntEnableSet
                0x0000000000041ab0                Peridot_gsysActiveIntEnableGet
                0x0000000000041b40                Peridot_gsysActiveIntStatusGet
                0x0000000000041e80                Peridot_gphyReset
                0x0000000000041f50                Peridot_serdesReset
                0x0000000000042010                Peridot_gphySetPortLoopback
                0x0000000000042100                Peridot_gphySetPortSpeed
                0x0000000000042290                Peridot_gphyPortPowerDown
                0x0000000000042380                Peridot_gphySetPortDuplexMode
                0x00000000000424a0                Peridot_gphySetPortAutoMode
                0x0000000000042570                Peridot_gphySetEEE
                0x0000000000042660                Peridot_gphySetFlowControlEnable
                0x0000000000042780                Peridot_gphySetIntEnable
                0x00000000000427f0                Peridot_gphyGetIntEnable
                0x0000000000042890                Peridot_gphyGetIntStatus
                0x0000000000042aa0                Peridot_impRun
                0x0000000000042b80                Peridot_impReset
                0x0000000000042c80                Peridot_impWriteEEPROM
                0x0000000000042d80                Peridot_impLoadToEEPROM
                0x0000000000042ed0                Peridot_impLoadToRAM
                0x0000000000043030                Peridot_impStop
                0x0000000000043740                Peridot_msdRmuGetID
                0x0000000000043870                Peridot_msdRmuAtuDump
                0x0000000000043a80                Peridot_msdRmuMib2Dump
                0x0000000000043eb0                Peridot_msdRmuReadRegister
                0x0000000000043ee0                Peridot_msdRmuWriteRegister
                0x0000000000043f00                Peridot_msdRmuMultiRegAccess
                0x00000000000440f0                Peridot_msdRmuTCAMDump
                0x0000000000044260                Peridot_msdRmuTCAMWrite
                0x0000000000044410                Peridot_msdRmuTCAMRead
                0x00000000000445c0                Peridot_msdRmuRegDump
                0x0000000000044690                Peridot_gtcamLoadEntryIntf
                0x0000000000044840                Peridot_gtcamReadTCAMDataIntf
                0x0000000000044a10                Peridot_gtcamGetNextTCAMDataIntf
                0x0000000000044be0                Peridot_gtcamFindEntryIntf
                0x0000000000044df0                Peridot_gtcamSetModeIntf
                0x0000000000044e00                Peridot_gtcamGetModeIntf
                0x0000000000044e60                Peridot_gtcamEgrFlushEntryIntf
                0x0000000000044e70                Peridot_gtcamEgrFlushEntryAllPortsIntf
                0x0000000000044e80                Peridot_gtcamEgrLoadEntryIntf
                0x0000000000044f30                Peridot_gtcamEgrGetNextTCAMDataIntf
                0x0000000000044ff0                Peridot_gtcamEgrReadTCAMDataIntf
                0x00000000000450b0                Peridot_gtcamAdvConfigIntf
                0x0000000000045280                Peridot_gvctGetAdvCableDiagIntf
                0x0000000000045380                Peridot_gvctGetAdvExtendedStatusIntf
                0x0000000000045420                Peridot_gfdbAddMacEntryIntf
                0x00000000000454a0                Peridot_gfdbGetAtuEntryNextIntf
                0x0000000000045580                Peridot_gfdbFlushIntf
                0x0000000000045590                Peridot_gfdbFlushInDBIntf
                0x00000000000455a0                Peridot_gfdbMoveIntf
                0x00000000000455b0                Peridot_gfdbMoveInDBIntf
                0x00000000000455c0                Peridot_gfdbPortRemoveIntf
                0x00000000000455f0                Peridot_gfdbPortRemoveInDBIntf
                0x0000000000045620                Peridot_gfdbGetViolationIntf
                0x0000000000045700                Peridot_gfdbFindAtuMacEntryIntf
                0x00000000000457f0                Peridot_gfdbDump
                0x00000000000459a0                Peridot_gvtuFindVidEntryIntf
                0x0000000000045b00                Peridot_gvtuExistVidEntryIntf
                0x0000000000045b90                Peridot_gvtuFlushIntf
                0x0000000000045ba0                Peridot_gvtuAddEntryIntf
                0x0000000000045cb0                Peridot_gvtuDelEntryIntf
                0x0000000000045d30                Peridot_gvtuSetModeIntf
                0x0000000000045d40                Peridot_gvtuGetModeIntf
                0x0000000000045d50                Peridot_gvtuGetViolationIntf
                0x0000000000045e10                Peridot_gvtuGetEntryCountIntf
                0x0000000000045ec0                Peridot_gvtuSetMemberTagIntf
                0x0000000000045fa0                Peridot_gvtuGetMemberTagIntf
                0x0000000000046070                Peridot_gvtuGetEntryNextIntf
                0x0000000000046190                Peridot_gstuAddEntryIntf
                0x0000000000046260                Peridot_gstuGetEntryNextIntf
                0x0000000000046310                Peridot_gstuDelEntryIntf
                0x0000000000046370                Peridot_gstuFindSidEntryIntf
                0x0000000000046480                Peridot_gstuGetEntryCountIntf
                0x0000000000046520                Peridot_gpirlInitializeIntf
                0x0000000000046530                Peridot_gpirlInitResourceIntf
                0x0000000000046540                Peridot_gpirlCustomSetup_sr2cIntf
                0x0000000000046600                Peridot_gpirlReadResourceIntf
                0x00000000000466e0                Peridot_gpirlWriteResourceIntf
                0x00000000000467a0                Peridot_gpirlGetResRegIntf
                0x00000000000467b0                Peridot_gpirlSetResRegIntf
                0x00000000000467c0                Peridot_gpirlAdvConfigIntf
                0x00000000000468c0                Peridot_gpirlAdvConfigDisableIntf
                0x0000000000046930                Peridot_gqavSetPortQpriXRate
                0x0000000000046ac0                Peridot_gqavGetPortQpriXRate
                0x0000000000046cb0                Peridot_gqavSetPortQpriXHiLimit
                0x0000000000046e40                Peridot_gqavGetPortQpriXHiLimit
                0x0000000000047030                Peridot_gstatsGetPortCounterIntf
                0x0000000000047040                Peridot_gstatsGetPortAllCountersIntf
                0x0000000000047240                Peridot_gstatsGetHistogramModeIntf
                0x0000000000047250                Peridot_gstatsSetHistogramModeIntf
                0x0000000000047260                Peridot_gvlnSetPortVlanDot1qModeIntf
                0x0000000000047270                Peridot_gvlnGetPortVlanDot1qModeIntf
                0x0000000000047280                Peridot_gprtSetDiscardTaggedIntf
                0x0000000000047290                Peridot_gprtGetDiscardTaggedIntf
                0x00000000000472a0                Peridot_gprtSetDiscardUntaggedIntf
                0x00000000000472b0                Peridot_gprtGetDiscardUntaggedIntf
                0x00000000000472c0                Peridot_gprtSetUnicastFloodBlockIntf
                0x00000000000472d0                Peridot_gprtGetUnicastFloodBlockIntf
                0x00000000000472e0                Peridot_gprtSetMulticastFloodBlockIntf
                0x00000000000472f0                Peridot_gprtGetMulticastFloodBlockIntf
                0x0000000000047300                Peridot_gprtSetDiscardBCastModeIntf
                0x0000000000047310                Peridot_gprtGetDiscardBCastModeIntf
                0x0000000000047320                Peridot_gprtSetJumboModeIntf
                0x0000000000047330                Peridot_gprtGetJumboModeIntf
                0x0000000000047340                Peridot_gprtSetLearnEnableIntf
                0x0000000000047350                Peridot_gprtGetLearnEnableIntf
                0x0000000000047360                Peridot_gprtGetVTUPriorityOverrideIntf
                0x0000000000047370                Peridot_gprtSetVTUPriorityOverrideIntf
                0x0000000000047380                Peridot_gprtGetSAPriorityOverrideIntf
                0x0000000000047390                Peridot_gprtSetSAPriorityOverrideIntf
                0x00000000000473a0                Peridot_gprtGetDAPriorityOverrideIntf
                0x00000000000473b0                Peridot_gprtSetDAPriorityOverrideIntf
                0x00000000000473c0                Peridot_gprtSetFlowCtrlIntf
                0x00000000000473d0                Peridot_gprtGetFlowCtrlIntf
                0x00000000000473e0                Peridot_gprtSetForceSpeedIntf
                0x0000000000047420                Peridot_gprtGetForceSpeedIntf
                0x0000000000047430                Peridot_grcSetEgressRateIntf
                0x0000000000047440                Peridot_grcGetEgressRateIntf
                0x0000000000047450                Peridot_grcSetELimitModeIntf
                0x0000000000047460                Peridot_grcGetELimitModeIntf
                0x0000000000047470                Peridot_gprtSetDuplexIntf
                0x0000000000047480                Peridot_gprtGetDuplexIntf
                0x0000000000047490                Peridot_gprtGetDuplexStatusIntf
                0x00000000000474a0                Peridot_gprtGetForceLinkIntf
                0x00000000000474b0                Peridot_gprtSetForceLinkIntf
                0x00000000000474c0                Peridot_gprtGetSpeedIntf
                0x00000000000474d0                Peridot_gprtGetFrameModeIntf
                0x00000000000474e0                Peridot_gprtSetFrameModeIntf
                0x00000000000474f0                Peridot_gprtSetEgressModeIntf
                0x0000000000047510                Peridot_gprtGetEgressModeIntf
                0x0000000000047520                Peridot_gprtGetPortStateIntf
                0x0000000000047530                Peridot_gprtSetPortStateIntf
                0x0000000000047540                Peridot_gprtSetCutThrouthEnableIntf
                0x0000000000047550                Peridot_gprtGetCutThrouthEnableIntf
                0x0000000000047560                Peridot_gqosSetPrioMapRuleIntf
                0x0000000000047570                Peridot_gqosGetPrioMapRuleIntf
                0x0000000000047580                Peridot_gprtSetInitialPriIntf
                0x0000000000047590                Peridot_gprtGetInitialPriIntf
                0x00000000000475a0                Peridot_gprtSetDefQpriIntf
                0x00000000000475b0                Peridot_gprtGetDefQpriIntf
                0x00000000000475c0                Peridot_gprtSetIEEEPrioMapIntf
                0x0000000000047650                Peridot_gprtGetIEEEPrioMapIntf
                0x0000000000047710                Peridot_EEPROMWrite
                0x0000000000047850                Peridot_EEPROMRead
                0x00000000000479d0                Peridot_gprtSetQueueCtrlIntf
                0x00000000000479e0                Peridot_gprtGetQueueCtrlIntf
                0x00000000000479f0                Peridot_gprtSetPortSchedIntf
                0x0000000000047a00                Peridot_gprtGetPortSchedIntf
                0x0000000000047a10                Peridot_gsysSetQoSWeightIntf
                0x0000000000047b10                Peridot_gsysGetQoSWeightIntf
                0x0000000000047c10                Peridot_gphySetPortSpeedIntf
                0x0000000000047c20                Peridot_gphySetPortAutoModeIntf
                0x0000000000047c30                Peridot_EEPROMWriteIntf
                0x0000000000047c40                Peridot_EEPROMReadIntf
                0x0000000000047c50                Peridot_impRunIntf
                0x0000000000047c60                Peridot_impResetIntf
                0x0000000000047c70                Peridot_impWriteEEPROMIntf
                0x0000000000047c80                Peridot_impLoadToEEPROMIntf
                0x0000000000047c90                Peridot_impLoadToRAMIntf
                0x0000000000047ca0                Peridot_impStopIntf
                0x0000000000047cb0                Peridot_msdRmuGetIDIntf
                0x0000000000047cc0                Peridot_msdRmuAtuDumpIntf
                0x0000000000047e20                Peridot_msdRmuMib2DumpIntf
                0x0000000000048020                Peridot_msdRmuReadRegisterIntf
                0x0000000000048030                Peridot_msdRmuWriteRegisterIntf
                0x0000000000048050                Peridot_msdRmuMultiRegAccessIntf
                0x0000000000048060                Peridot_msdRmuTCAMDumpIntf
                0x0000000000048310                Peridot_msdRmuTCAMWriteIntf
                0x00000000000484c0                Peridot_msdRmuTCAMReadIntf
                0x0000000000048f20                Peridot_gptpSetIntEnable
                0x0000000000049010                Peridot_gptpGetIntEnable
                0x00000000000490c0                Peridot_gptpSetProtPTPEn
                0x0000000000049190                Peridot_gptpGetProtPTPEn
                0x0000000000049230                Peridot_gptpSetPortConfig
                0x0000000000049480                Peridot_gptpGetPortConfig
                0x00000000000496d0                Peridot_gptpGetTimeStamp
                0x00000000000497d0                Peridot_gptpGetTSValidSt
                0x0000000000049890                Peridot_gptpResetTimeStamp
                0x0000000000049950                Peridot_gptpSetGlobalConfig
                0x0000000000049a10                Peridot_gptpGetGlobalConfig
                0x0000000000049ad0                Peridot_gptpGetIntStatus
                0x0000000000049b50                Peridot_gptpSetMeanPathDelay
                0x0000000000049be0                Peridot_gptpGetMeanPathDelay
                0x0000000000049c80                Peridot_gptpSetIgrPathDelayAsym
                0x0000000000049d10                Peridot_gptpGetIgrPathDelayAsym
                0x0000000000049db0                Peridot_gptpSetEgrPathDelayAsym
                0x0000000000049e40                Peridot_gptpGetEgrPathDelayAsym
                0x0000000000049ee0                Peridot_gptpSetMode
                0x0000000000049f90                Peridot_gptpGetMode
                0x000000000004a000                Peridot_gptpSetMasterSlave
                0x000000000004a0b0                Peridot_gptpGetMasterSlave
                0x000000000004a110                Peridot_gptpGetTODBusyBitStatus
                0x000000000004a190                Peridot_gptpTODStoreCompensation
                0x000000000004a250                Peridot_gptpTODStoreAll
                0x000000000004a310                Peridot_gptpTODCaptureAll
                0x000000000004a5e0                Peridot_gptpSetPulse
                0x000000000004a670                Peridot_gptpGetPulse
                0x000000000004a700                Peridot_gtaiGetPTPGlobalTime
                0x000000000004a780                Peridot_gptpSetIntEnableIntf
                0x000000000004a7e0                Peridot_gptpGetIntEnableIntf
                0x000000000004a840                Peridot_gptpSetPortConfigIntf
                0x000000000004a8c0                Peridot_gptpGetPortConfigIntf
                0x000000000004a950                Peridot_gptpGetTimeStampIntf
                0x000000000004a9c0                Peridot_gptpSetGlobalConfigIntf
                0x000000000004aa20                Peridot_gptpGetGlobalConfigIntf
                0x000000000004aa90                Peridot_gptpGetIntStatusIntf
                0x000000000004ab00                Peridot_gptpSetModeIntf
                0x000000000004ab60                Peridot_gptpGetModeIntf
                0x000000000004abc0                Peridot_gptpSetMasterSlaveIntf
                0x000000000004abd0                Peridot_gptpGetMasterSlaveIntf
                0x000000000004abe0                Peridot_gptpTODStoreCompensationIntf
                0x000000000004ac60                Peridot_gptpTODStoreAllIntf
                0x000000000004ace0                Peridot_gptpTODCaptureAllIntf
                0x000000000004ad70                Peridot_gptpSetPulseIntf
                0x000000000004ade0                Peridot_gptpGetPulseIntf
                0x000000000004b0c0                Peridot_gledForceOn
                0x000000000004b170                Peridot_gledForceOff
                0x000000000004b230                Peridot_gledLinkAct
                0x000000000004b320                Peridot_gledModeSet
                0x000000000004b3f0                Peridot_gledModeGet
                0x000000000004b490                Peridot_gledBlinkRateSet
                0x000000000004b540                Peridot_gledBlinkRateGet
                0x000000000004b620                Peridot_gledPulseStretchSet
                0x000000000004b6d0                Peridot_gledPulseStretchGet
                0x000000000004b7a0                Peridot_gledSpecialModeSet
                0x000000000004b850                Peridot_gledSpecialModeGet
                0x000000000004b8c0                Peridot_gledCtrlSet
                0x000000000004b900                Peridot_gledCtrlGet
                0x000000000004b930                Peridot_gledDump
                0x000000000004bb70                Peridot_gledForceOnIntf
                0x000000000004bb80                Peridot_gledForceOffIntf
                0x000000000004bb90                Peridot_gledLinkActIntf
                0x000000000004bba0                Peridot_gledModeSetIntf
                0x000000000004bbb0                Peridot_gledModeGetIntf
                0x000000000004bbc0                Peridot_gledBlinkRateSetIntf
                0x000000000004bbd0                Peridot_gledBlinkRateGetIntf
                0x000000000004bbe0                Peridot_gledPulseStretchSetIntf
                0x000000000004bbf0                Peridot_gledPulseStretchGetIntf
                0x000000000004bc00                Peridot_gledSpecialModeSetIntf
                0x000000000004bc10                Peridot_gledSpecialModeGetIntf
                0x000000000004bc20                Peridot_gledCtrlSetIntf
                0x000000000004bc30                Peridot_gledCtrlGetIntf
 *fill*         0x000000000004bc3c        0x4 
 .text          0x000000000004bc40    0x134dc /home/roscube/Desktop/UMSD_v7.0.0_comb/UMSD_v7.0.0/obj/dev/agate/msdDrv_Agate.o
                0x000000000004bc40                Agate_msdSetSMIC45PhyReg
                0x000000000004bdc0                Agate_msdGetSMIC45PhyReg
                0x000000000004bf40                Agate_msdSetSMIPhyReg
                0x000000000004c030                Agate_msdGetSMIPhyReg
                0x000000000004c160                Agate_msdSetSMIPhyRegField
                0x000000000004c250                Agate_msdGetSMIPhyRegField
                0x000000000004c2f0                Agate_msdSetPagedPhyRegField
                0x000000000004c370                Agate_msdGetPagedPhyRegField
                0x000000000004c440                Agate_msdWritePagedPhyReg
                0x000000000004c4a0                Agate_msdReadPagedPhyReg
                0x000000000004c500                Agate_msdSetSMIPhyXMDIOReg
                0x000000000004c5f0                Agate_msdGetSMIPhyXMDIOReg
                0x000000000004c730                Agate_msdPhyReset
                0x000000000004d760                Agate_gtcamFlushAll
                0x000000000004d7b0                Agate_gtcamFlushEntry
                0x000000000004d810                Agate_gtcamLoadEntry
                0x000000000004d8a0                Agate_gtcamReadTCAMData
                0x000000000004d930                Agate_gtcamGetNextTCAMData
                0x000000000004d9d0                Agate_gtcamFindEntry
                0x000000000004dab0                Agate_gtcamSetMode
                0x000000000004db10                Agate_gtcamGetMode
                0x000000000004dba0                Agate_gtcamAddEntryPort
                0x000000000004dc90                Agate_gtcamRemoveEntryPort
                0x000000000004dd80                Agate_gtcamDump
                0x000000000004e0f0                Agate_gtcamAdvConfig
                0x000000000004edc0                Agate_gvctGetAdvCableDiag
                0x000000000004f230                Agate_gvctGetAdvExtendedStatus
                0x000000000004fda0                Agate_gfdbGetAtuEntryNext
                0x000000000004fdc0                Agate_gfdbFlush
                0x000000000004fe30                Agate_gfdbFlushInDB
                0x000000000004fec0                Agate_gfdbMove
                0x000000000004ffb0                Agate_gfdbMoveInDB
                0x00000000000500b0                Agate_gfdbAddMacEntry
                0x0000000000050170                Agate_gfdbDelAtuEntry
                0x0000000000050200                Agate_gfdbGetViolation
                0x00000000000502f0                Agate_gfdbFindAtuMacEntry
                0x0000000000050420                Agate_gfdbSetAgingTimeout
                0x0000000000050480                Agate_gfdbGetAgingTimeout
                0x00000000000504f0                Agate_gfdbGetLearn2All
                0x0000000000050570                Agate_gfdbSetLearn2All
                0x00000000000505a0                Agate_gfdbSetPortLearnLimit
                0x00000000000506d0                Agate_gfdbGetPortLearnLimit
                0x00000000000507e0                Agate_gfdbGetPortLearnCount
                0x00000000000508a0                Agate_gfdbGetEntryCount
                0x00000000000508f0                Agate_gfdbGetEntryCountPerFid
                0x0000000000050940                Agate_gfdbGetNonStaticEntryCount
                0x0000000000050990                Agate_gfdbGetNonStaticEntryCountPerFid
                0x0000000000051000                Agate_gvtuGetEntryNext
                0x0000000000051100                Agate_gvtuFlush
                0x0000000000051120                Agate_gvtuAddEntry
                0x0000000000051230                Agate_gvtuDelEntry
                0x0000000000051290                Agate_gvtuGetViolation
                0x00000000000513a0                Agate_gvtuFindVidEntry
                0x0000000000051500                Agate_gvtuDump
                0x0000000000051bf0                Agate_gstuGetEntryNext
                0x0000000000051cd0                Agate_gstuAddEntry
                0x0000000000051da0                Agate_gstuDelEntry
                0x0000000000051e00                Agate_gstuFindSidEntry
                0x0000000000051f00                Agate_gstuDump
                0x0000000000052290                Agate_gpirlInitialize
                0x00000000000522b0                Agate_gpirlInitResource
                0x0000000000052330                Agate_gpirlCustomSetup
                0x00000000000526b0                Agate_gpirlReadResource
                0x00000000000528e0                Agate_gpirlWriteResource
                0x0000000000052b40                Agate_gpirlGetResReg
                0x0000000000052bf0                Agate_gpirlSetResReg
                0x0000000000053010                Agate_gstatsFlushAll
                0x0000000000053030                Agate_gstatsFlushPort
                0x0000000000053070                Agate_gstatsGetPortCounter
                0x00000000000530c0                Agate_gstatsGetPortAllCounters
                0x0000000000053110                Agate_gstatsGetHistogramMode
                0x00000000000531c0                Agate_gstatsSetHistogramMode
                0x0000000000053200                Agate_gmibDump
                0x00000000000534f0                Agate_gvlnSetPortVid
                0x0000000000053550                Agate_gvlnGetPortVid
                0x00000000000535e0                Agate_gprtSetForceDefaultVid
                0x0000000000053640                Agate_gprtGetForceDefaultVid
                0x00000000000536d0                Agate_gvlnSetPortVlanDot1qMode
                0x0000000000053730                Agate_gvlnGetPortVlanDot1qMode
                0x00000000000537c0                Agate_gprtSetDiscardTagged
                0x0000000000053820                Agate_gprtGetDiscardTagged
                0x00000000000538b0                Agate_gprtSetDiscardUntagged
                0x0000000000053910                Agate_gprtGetDiscardUntagged
                0x00000000000539a0                Agate_gprtSetUnicastFloodBlock
                0x0000000000053a00                Agate_gprtGetUnicastFloodBlock
                0x0000000000053a90                Agate_gprtSetMulticastFloodBlock
                0x0000000000053af0                Agate_gprtGetMulticastFloodBlock
                0x0000000000053b80                Agate_gprtSetDiscardBCastMode
                0x0000000000053be0                Agate_gprtGetDiscardBCastMode
                0x0000000000053c80                Agate_gprtSetIGMPSnoopEnable
                0x0000000000053ce0                Agate_gprtGetIGMPSnoopEnable
                0x0000000000053d80                Agate_gprtGetHeaderMode
                0x0000000000053e20                Agate_gprtSetHeaderMode
                0x0000000000053e80                Agate_gprtGetDropOnLock
                0x0000000000053f20                Agate_gprtSetDropOnLock
                0x0000000000053f80                Agate_gprtSetJumboMode
                0x0000000000053ff0                Agate_gprtGetJumboMode
                0x0000000000054080                Agate_gprtSetLearnEnable
                0x00000000000540f0                Agate_gprtGetLearnEnable
                0x0000000000054180                Agate_gprtGetVTUPriorityOverride
                0x0000000000054210                Agate_gprtSetVTUPriorityOverride
                0x0000000000054270                Agate_gprtGetSAPriorityOverride
                0x0000000000054300                Agate_gprtSetSAPriorityOverride
                0x0000000000054360                Agate_gprtGetDAPriorityOverride
                0x00000000000543f0                Agate_gprtSetDAPriorityOverride
                0x0000000000054450                Agate_gprtGetMessagePort
                0x00000000000544e0                Agate_gprtSetMessagePort
                0x0000000000054540                Agate_gprtGetEtherType
                0x0000000000054590                Agate_gprtSetEtherType
                0x00000000000545e0                Agate_gprtSetTrunkPort
                0x0000000000054680                Agate_gprtGetTrunkPort
                0x0000000000054760                Agate_gprtSetFlowCtrl
                0x00000000000547d0                Agate_gprtGetFlowCtrl
                0x0000000000054880                Agate_gprtSetEgressMonitorSource
                0x00000000000548e0                Agate_gprtGetEgressMonitorSource
                0x0000000000054970                Agate_gprtSetIngressMonitorSource
                0x00000000000549d0                Agate_gprtGetIngressMonitorSource
                0x0000000000054a60                Agate_grcSetELimitMode
                0x0000000000054ac0                Agate_grcSetEgressRate
                0x0000000000054c70                Agate_grcGetELimitMode
                0x0000000000054d00                Agate_grcGetEgressRate
                0x0000000000054e40                Agate_gprtSetDuplex
                0x0000000000054eb0                Agate_gprtGetDuplex
                0x0000000000054f80                Agate_gprtGetDuplexStatus
                0x0000000000055010                Agate_gprtGetForceLink
                0x00000000000550d0                Agate_gprtSetForceLink
                0x0000000000055140                Agate_gprtGetLinkState
                0x00000000000551d0                Agate_gprtSetForceSpeed
                0x0000000000055370                Agate_gprtGetForceSpeed
                0x00000000000554b0                Agate_gprtGetSpeed
                0x00000000000555c0                Agate_gprtGetVlanPorts
                0x0000000000055680                Agate_gprtSetVlanPorts
                0x0000000000055730                Agate_gprtGetFrameMode
                0x00000000000557c0                Agate_gprtSetFrameMode
                0x0000000000055820                Agate_gprtSetEgressMode
                0x0000000000055880                Agate_gprtGetEgressMode
                0x0000000000055910                Agate_gprtGetPortState
                0x00000000000559a0                Agate_gprtSetPortState
                0x0000000000055a00                Agate_gprtSetIgnoreFcs
                0x0000000000055a60                Agate_gprtGetIgnoreFcs
                0x0000000000055af0                Agate_gprtSetAllowBadFcs
                0x0000000000055b50                Agate_gprtGetAllowBadFcs
                0x0000000000055be0                Agate_gprtSetPauseLimitOut
                0x0000000000055c40                Agate_gprtGetPauseLimitOut
                0x0000000000055ca0                Agate_gprtSetPauseLimitIn
                0x0000000000055d00                Agate_gprtGetPauseLimitIn
                0x0000000000055d60                Agate_gprtGetOutQueueSize
                0x0000000000055e00                Agate_gprtSetMapDA
                0x0000000000055e60                Agate_gprtGetMapDA
                0x0000000000055ef0                Agate_gprtSetPortLocked
                0x0000000000055f50                Agate_gprtGetPortLocked
                0x0000000000055fe0                Agate_gprtSetHoldAt1
                0x0000000000056040                Agate_gprtGetHoldAt1
                0x00000000000560d0                Agate_gprtSetInt0nAgeOut
                0x0000000000056130                Agate_gprtGetInt0nAgeOut
                0x00000000000561c0                Agate_gprtSetRefreshLocked
                0x0000000000056220                Agate_gprtGetRefreshLocked
                0x00000000000562b0                Agate_gprtSetIgnoreWrongData
                0x0000000000056310                Agate_gprtGetIgnoreWrongData
                0x00000000000563a0                Agate_gprtSetARPMirror
                0x0000000000056400                Agate_gprtGetARPMirror
                0x0000000000056490                Agate_gprtRegDump
                0x0000000000056590                Agate_gqosSetPrioMapRule
                0x00000000000565f0                Agate_gqosGetPrioMapRule
                0x0000000000056680                Agate_gprtSetInitialPri
                0x00000000000566f0                Agate_gprtGetInitialPri
                0x00000000000567b0                Agate_gprtSetDefQpri
                0x0000000000056810                Agate_gprtGetDefQpri
                0x00000000000568b0                Agate_gprtSetDefFpri
                0x0000000000056910                Agate_gprtGetDefFpri
                0x00000000000569a0                Agate_gsysSetTrunkMaskTable
                0x0000000000056ad0                Agate_gsysGetTrunkMaskTable
                0x0000000000056c30                Agate_gsysSetHashTrunk
                0x0000000000056c60                Agate_gsysGetHashTrunk
                0x0000000000056cd0                Agate_gsysSetTrunkRouting
                0x0000000000056e20                Agate_gsysGetTrunkRouting
                0x0000000000056fa0                Agate_gsysSetFloodBC
                0x0000000000056fd0                Agate_gsysGetFloodBC
                0x0000000000057040                Agate_gsysSetCPUDest
                0x00000000000570f0                Agate_gsysGetCPUDest
                0x0000000000057150                Agate_gsysSetIngressMonitorDest
                0x0000000000057220                Agate_gsysGetIngressMonitorDest
                0x0000000000057290                Agate_gsysSetEgressMonitorDest
                0x0000000000057360                Agate_gsysGetEgressMonitorDest
                0x0000000000057400                Agate_gsysSetRsvd2CpuEnables
                0x00000000000574a0                Agate_gsysGetRsvd2CpuEnables
                0x0000000000057500                Agate_gsysSetMGMTPri
                0x0000000000057590                Agate_gsysGetMGMTPri
                0x00000000000575f0                Agate_gsysGlobal1RegDump
                0x00000000000576c0                Agate_gsysGlobal2RegDump
                0x0000000000057790                Agate_gsysSetRMUMode
                0x0000000000057850                Agate_gsysGetRMUMode
                0x00000000000578e0                Agate_gsysDevIntEnableSet
                0x0000000000057940                Agate_gsysDevIntEnableGet
                0x00000000000579d0                Agate_gsysDevIntStatusGet
                0x0000000000057a50                Agate_gsysActiveIntEnableSet
                0x0000000000057b10                Agate_gsysActiveIntEnableGet
                0x0000000000057ba0                Agate_gsysActiveIntStatusGet
                0x0000000000057ee0                Agate_gphyReset
                0x0000000000057fb0                Agate_serdesReset
                0x0000000000058070                Agate_gphySetPortLoopback
                0x0000000000058160                Agate_gphySetPortSpeed
                0x00000000000582f0                Agate_gphyPortPowerDown
                0x00000000000583e0                Agate_gphySetPortDuplexMode
                0x0000000000058500                Agate_gphySetPortAutoMode
                0x00000000000585d0                Agate_gphySetEEE
                0x00000000000586c0                Agate_gphySetFlowControlEnable
                0x00000000000587e0                Agate_gphySetIntEnable
                0x0000000000058850                Agate_gphyGetIntEnable
                0x00000000000588f0                Agate_gphyGetIntStatus
                0x0000000000058990                Agate_gprtSetPortSched
                0x00000000000589f0                Agate_gprtGetPortSched
                0x0000000000058ac0                Agate_gsysSetQoSWeight
                0x0000000000058d70                Agate_gsysGetQoSWeight
                0x0000000000059030                Agate_msdRmuGetID
                0x0000000000059160                Agate_msdRmuAtuDump
                0x0000000000059370                Agate_msdRmuMibDump
                0x00000000000595e0                Agate_msdRmuMib2Dump
                0x0000000000059920                Agate_msdRmuReadRegister
                0x0000000000059950                Agate_msdRmuWriteRegister
                0x0000000000059970                Agate_msdRmuMultiRegAccess
                0x0000000000059b60                Agate_msdRmuRegDump
                0x0000000000059c30                Agate_EEPROMWrite
                0x0000000000059da0                Agate_EEPROMRead
                0x0000000000059f20                Agate_gtcamLoadEntryIntf
                0x000000000005a0c0                Agate_gtcamReadTCAMDataIntf
                0x000000000005a270                Agate_gtcamGetNextTCAMDataIntf
                0x000000000005a420                Agate_gtcamFindEntryIntf
                0x000000000005a610                Agate_gtcamSetModeIntf
                0x000000000005a620                Agate_gtcamGetModeIntf
                0x000000000005a680                Agate_gtcamAdvConfigIntf
                0x000000000005a840                Agate_gvctGetAdvCableDiagIntf
                0x000000000005a940                Agate_gvctGetAdvExtendedStatusIntf
                0x000000000005a9e0                Agate_gfdbAddMacEntryIntf
                0x000000000005aa60                Agate_gfdbGetAtuEntryNextIntf
                0x000000000005ab30                Agate_gfdbFlushIntf
                0x000000000005ab40                Agate_gfdbFlushInDBIntf
                0x000000000005ab50                Agate_gfdbMoveIntf
                0x000000000005ab60                Agate_gfdbMoveInDBIntf
                0x000000000005ab70                Agate_gfdbPortRemoveIntf
                0x000000000005aba0                Agate_gfdbPortRemoveInDBIntf
                0x000000000005abd0                Agate_gfdbGetViolationIntf
                0x000000000005acb0                Agate_gfdbFindAtuMacEntryIntf
                0x000000000005ada0                Agate_gfdbDump
                0x000000000005af30                Agate_gvtuFindVidEntryIntf
                0x000000000005b090                Agate_gvtuGetEntryNextIntf
                0x000000000005b170                Agate_gvtuExistVidEntryIntf
                0x000000000005b200                Agate_gvtuFlushIntf
                0x000000000005b210                Agate_gvtuAddEntryIntf
                0x000000000005b300                Agate_gvtuDelEntryIntf
                0x000000000005b370                Agate_gvtuGetViolationIntf
                0x000000000005b430                Agate_gvtuGetEntryCountIntf
                0x000000000005b4d0                Agate_gvtuSetMemberTagIntf
                0x000000000005b5a0                Agate_gvtuGetMemberTagIntf
                0x000000000005b660                Agate_gstuAddEntryIntf
                0x000000000005b730                Agate_gstuGetEntryNextIntf
                0x000000000005b7e0                Agate_gstuDelEntryIntf
                0x000000000005b840                Agate_gstuFindSidEntryIntf
                0x000000000005b950                Agate_gstuGetEntryCountIntf
                0x000000000005b9f0                Agate_gpirlInitializeIntf
                0x000000000005ba00                Agate_gpirlInitResourceIntf
                0x000000000005ba10                Agate_gpirlCustomSetupIntf
                0x000000000005bad0                Agate_gpirlReadResourceIntf
                0x000000000005bbb0                Agate_gpirlWriteResourceIntf
                0x000000000005bc90                Agate_gpirlGetResRegIntf
                0x000000000005bca0                Agate_gpirlSetResRegIntf
                0x000000000005bcb0                Agate_gpirlAdvConfigIntf
                0x000000000005bdd0                Agate_gpirlAdvConfigDisableIntf
                0x000000000005be50                Agate_gqavSetPortQpriXRate
                0x000000000005bfe0                Agate_gqavGetPortQpriXRate
                0x000000000005c1d0                Agate_gqavSetPortQpriXHiLimit
                0x000000000005c360                Agate_gqavGetPortQpriXHiLimit
                0x000000000005c550                Agate_gstatsGetPortCounterIntf
                0x000000000005c560                Agate_gstatsGetPortAllCountersIntf
                0x000000000005c720                Agate_gstatsGetHistogramModeIntf
                0x000000000005c730                Agate_gstatsSetHistogramModeIntf
                0x000000000005c740                Agate_gvlnSetPortVlanDot1qModeIntf
                0x000000000005c750                Agate_gvlnGetPortVlanDot1qModeIntf
                0x000000000005c760                Agate_gprtSetDiscardTaggedIntf
                0x000000000005c770                Agate_gprtGetDiscardTaggedIntf
                0x000000000005c780                Agate_gprtSetDiscardUntaggedIntf
                0x000000000005c790                Agate_gprtGetDiscardUntaggedIntf
                0x000000000005c7a0                Agate_gprtSetUnicastFloodBlockIntf
                0x000000000005c7b0                Agate_gprtGetUnicastFloodBlockIntf
                0x000000000005c7c0                Agate_gprtSetMulticastFloodBlockIntf
                0x000000000005c7d0                Agate_gprtGetMulticastFloodBlockIntf
                0x000000000005c7e0                Agate_gprtSetDiscardBCastModeIntf
                0x000000000005c7f0                Agate_gprtGetDiscardBCastModeIntf
                0x000000000005c800                Agate_gprtSetJumboModeIntf
                0x000000000005c810                Agate_gprtGetJumboModeIntf
                0x000000000005c820                Agate_gprtSetLearnEnableIntf
                0x000000000005c830                Agate_gprtGetLearnEnableIntf
                0x000000000005c840                Agate_gprtGetVTUPriorityOverrideIntf
                0x000000000005c850                Agate_gprtSetVTUPriorityOverrideIntf
                0x000000000005c860                Agate_gprtGetSAPriorityOverrideIntf
                0x000000000005c870                Agate_gprtSetSAPriorityOverrideIntf
                0x000000000005c880                Agate_gprtGetDAPriorityOverrideIntf
                0x000000000005c890                Agate_gprtSetDAPriorityOverrideIntf
                0x000000000005c8a0                Agate_gprtSetFlowCtrlIntf
                0x000000000005c8d0                Agate_gprtGetFlowCtrlIntf
                0x000000000005c8e0                Agate_gprtSetForceSpeedIntf
                0x000000000005c920                Agate_gprtGetForceSpeedIntf
                0x000000000005c930                Agate_grcSetEgressRateIntf
                0x000000000005c940                Agate_grcGetEgressRateIntf
                0x000000000005c950                Agate_grcSetELimitModeIntf
                0x000000000005c960                Agate_grcGetELimitModeIntf
                0x000000000005c970                Agate_gprtSetDuplexIntf
                0x000000000005c980                Agate_gprtGetDuplexIntf
                0x000000000005c990                Agate_gprtGetDuplexStatusIntf
                0x000000000005c9a0                Agate_gprtGetForceLinkIntf
                0x000000000005c9b0                Agate_gprtSetForceLinkIntf
                0x000000000005c9c0                Agate_gprtGetSpeedIntf
                0x000000000005c9d0                Agate_gprtGetFrameModeIntf
                0x000000000005c9e0                Agate_gprtSetFrameModeIntf
                0x000000000005c9f0                Agate_gprtSetEgressModeIntf
                0x000000000005ca10                Agate_gprtGetEgressModeIntf
                0x000000000005ca20                Agate_gprtGetPortStateIntf
                0x000000000005ca30                Agate_gprtSetPortStateIntf
                0x000000000005ca40                Agate_gqosSetPrioMapRuleIntf
                0x000000000005ca50                Agate_gqosGetPrioMapRuleIntf
                0x000000000005ca60                Agate_gprtSetInitialPriIntf
                0x000000000005ca70                Agate_gprtGetInitialPriIntf
                0x000000000005ca80                Agate_gprtSetDefQpriIntf
                0x000000000005ca90                Agate_gprtGetDefQpriIntf
                0x000000000005caa0                Agate_gprtSetPortSchedIntf
                0x000000000005cae0                Agate_gprtGetPortSchedIntf
                0x000000000005caf0                Agate_gsysSetQoSWeightIntf
                0x000000000005cbf0                Agate_gsysGetQoSWeightIntf
                0x000000000005ccf0                Agate_gphySetPortSpeedIntf
                0x000000000005cd00                Agate_gphySetPortAutoModeIntf
                0x000000000005cd10                Agate_EEPROMWriteIntf
                0x000000000005cd20                Agate_EEPROMReadIntf
                0x000000000005cd30                Agate_msdRmuGetIDIntf
                0x000000000005cd40                Agate_msdRmuAtuDumpIntf
                0x000000000005ce90                Agate_msdRmuMibDumpIntf
                0x000000000005cfa0                Agate_msdRmuMib2DumpIntf
                0x000000000005d1a0                Agate_msdRmuReadRegisterIntf
                0x000000000005d1b0                Agate_msdRmuWriteRegisterIntf
                0x000000000005d1d0                Agate_msdRmuMultiRegAccessIntf
                0x000000000005d580                Agate_gptpSetIntEnable
                0x000000000005d660                Agate_gptpGetIntEnable
                0x000000000005d700                Agate_gptpSetProtPTPEn
                0x000000000005d7c0                Agate_gptpGetProtPTPEn
                0x000000000005d850                Agate_gptpSetPortConfig
                0x000000000005da20                Agate_gptpGetPortConfig
                0x000000000005dbd0                Agate_gptpGetTimeStamp
                0x000000000005dcd0                Agate_gptpGetTSValidSt
                0x000000000005dd90                Agate_gptpResetTimeStamp
                0x000000000005de50                Agate_gptpSetGlobalConfig
                0x000000000005df10                Agate_gptpGetGlobalConfig
                0x000000000005dfd0                Agate_gptpGetIntStatus
                0x000000000005e050                Agate_gptpSetIntEnableIntf
                0x000000000005e0b0                Agate_gptpGetIntEnableIntf
                0x000000000005e110                Agate_gptpSetPortConfigIntf
                0x000000000005e190                Agate_gptpGetPortConfigIntf
                0x000000000005e210                Agate_gptpGetTimeStampIntf
                0x000000000005e280                Agate_gptpSetGlobalConfigIntf
                0x000000000005e2e0                Agate_gptpGetGlobalConfigIntf
                0x000000000005e350                Agate_gptpGetIntStatusIntf
                0x000000000005e630                Agate_gledForceOn
                0x000000000005e6e0                Agate_gledForceOff
                0x000000000005e790                Agate_gledLinkAct
                0x000000000005e880                Agate_gledModeSet
                0x000000000005e950                Agate_gledModeGet
                0x000000000005e9f0                Agate_gledBlinkRateSet
                0x000000000005eaa0                Agate_gledBlinkRateGet
                0x000000000005eb80                Agate_gledPulseStretchSet
                0x000000000005ec30                Agate_gledPulseStretchGet
                0x000000000005ed00                Agate_gledSpecialModeSet
                0x000000000005edb0                Agate_gledSpecialModeGet
                0x000000000005ee10                Agate_gledCtrlSet
                0x000000000005ee50                Agate_gledCtrlGet
                0x000000000005ee80                Agate_gledDump
                0x000000000005efd0                Agate_gledForceOnIntf
                0x000000000005efe0                Agate_gledForceOffIntf
                0x000000000005eff0                Agate_gledLinkActIntf
                0x000000000005f000                Agate_gledModeSetIntf
                0x000000000005f010                Agate_gledModeGetIntf
                0x000000000005f020                Agate_gledBlinkRateSetIntf
                0x000000000005f030                Agate_gledBlinkRateGetIntf
                0x000000000005f040                Agate_gledPulseStretchSetIntf
                0x000000000005f050                Agate_gledPulseStretchGetIntf
                0x000000000005f060                Agate_gledSpecialModeSetIntf
                0x000000000005f0b0                Agate_gledSpecialModeGetIntf
                0x000000000005f100                Agate_gledCtrlSetIntf
                0x000000000005f110                Agate_gledCtrlGetIntf
 *fill*         0x000000000005f11c        0x4 
 .text          0x000000000005f120    0x1376c /home/roscube/Desktop/UMSD_v7.0.0_comb/UMSD_v7.0.0/obj/dev/pearl/msdDrv_Pearl.o
                0x000000000005f120                Pearl_msdSetSMIC45PhyReg
                0x000000000005f2a0                Pearl_msdGetSMIC45PhyReg
                0x000000000005f420                Pearl_msdSetSMIPhyReg
                0x000000000005f510                Pearl_msdGetSMIPhyReg
                0x000000000005f660                Pearl_msdSetSMIPhyRegField
                0x000000000005f750                Pearl_msdGetSMIPhyRegField
                0x000000000005f7f0                Pearl_msdSetPagedPhyRegField
                0x000000000005f870                Pearl_msdGetPagedPhyRegField
                0x000000000005f940                Pearl_msdWritePagedPhyReg
                0x000000000005f9a0                Pearl_msdReadPagedPhyReg
                0x000000000005fa00                Pearl_msdSetSMIPhyXMDIOReg
                0x000000000005faf0                Pearl_msdGetSMIPhyXMDIOReg
                0x000000000005fc30                Pearl_msdPhyReset
                0x0000000000060c60                Pearl_gtcamFlushAll
                0x0000000000060cb0                Pearl_gtcamFlushEntry
                0x0000000000060d10                Pearl_gtcamLoadEntry
                0x0000000000060da0                Pearl_gtcamReadTCAMData
                0x0000000000060e30                Pearl_gtcamGetNextTCAMData
                0x0000000000060ed0                Pearl_gtcamFindEntry
                0x0000000000060fb0                Pearl_gtcamSetMode
                0x0000000000061010                Pearl_gtcamGetMode
                0x00000000000610a0                Pearl_gtcamAddEntryPort
                0x0000000000061190                Pearl_gtcamRemoveEntryPort
                0x0000000000061280                Pearl_gtcamDump
                0x00000000000615f0                Pearl_gtcamAdvConfig
                0x00000000000622c0                Pearl_gvctGetAdvCableDiag
                0x0000000000062730                Pearl_gvctGetAdvExtendedStatus
                0x0000000000063290                Pearl_gfdbGetAtuEntryNext
                0x00000000000632b0                Pearl_gfdbFlush
                0x0000000000063320                Pearl_gfdbFlushInDB
                0x00000000000633b0                Pearl_gfdbMove
                0x00000000000634a0                Pearl_gfdbMoveInDB
                0x00000000000635a0                Pearl_gfdbAddMacEntry
                0x0000000000063660                Pearl_gfdbDelAtuEntry
                0x00000000000636f0                Pearl_gfdbGetViolation
                0x00000000000637f0                Pearl_gfdbFindAtuMacEntry
                0x0000000000063920                Pearl_gfdbSetAgingTimeout
                0x0000000000063980                Pearl_gfdbGetAgingTimeout
                0x00000000000639f0                Pearl_gfdbGetLearn2All
                0x0000000000063a70                Pearl_gfdbSetLearn2All
                0x0000000000063aa0                Pearl_gfdbSetPortLearnLimit
                0x0000000000063bd0                Pearl_gfdbGetPortLearnLimit
                0x0000000000063ce0                Pearl_gfdbGetPortLearnCount
                0x0000000000063da0                Pearl_gfdbGetEntryCount
                0x0000000000063df0                Pearl_gfdbGetEntryCountPerFid
                0x0000000000063e40                Pearl_gfdbGetNonStaticEntryCount
                0x0000000000063e90                Pearl_gfdbGetNonStaticEntryCountPerFid
                0x0000000000064500                Pearl_gvtuGetEntryNext
                0x0000000000064600                Pearl_gvtuFlush
                0x0000000000064620                Pearl_gvtuAddEntry
                0x0000000000064730                Pearl_gvtuDelEntry
                0x0000000000064790                Pearl_gvtuGetViolation
                0x00000000000648a0                Pearl_gvtuFindVidEntry
                0x0000000000064a00                Pearl_gvtuDump
                0x00000000000650f0                Pearl_gstuGetEntryNext
                0x00000000000651d0                Pearl_gstuAddEntry
                0x00000000000652a0                Pearl_gstuDelEntry
                0x0000000000065300                Pearl_gstuFindSidEntry
                0x0000000000065400                Pearl_gstuDump
                0x0000000000065790                Pearl_gpirlInitialize
                0x00000000000657b0                Pearl_gpirlInitResource
                0x0000000000065830                Pearl_gpirlCustomSetup
                0x0000000000065bb0                Pearl_gpirlReadResource
                0x0000000000065de0                Pearl_gpirlWriteResource
                0x0000000000066040                Pearl_gpirlGetResReg
                0x00000000000660f0                Pearl_gpirlSetResReg
                0x00000000000665b0                Pearl_gstatsFlushAll
                0x00000000000665d0                Pearl_gstatsFlushPort
                0x0000000000066610                Pearl_gstatsGetPortCounter
                0x0000000000066670                Pearl_gstatsGetPortAllCounters
                0x00000000000666c0                Pearl_gstatsGetHistogramMode
                0x0000000000066770                Pearl_gstatsSetHistogramMode
                0x00000000000667b0                Pearl_gmibDump
                0x0000000000066d40                Pearl_gprtSetForceDefaultVid
                0x0000000000066da0                Pearl_gprtGetForceDefaultVid
                0x0000000000066e30                Pearl_gvlnSetPortVid
                0x0000000000066e90                Pearl_gvlnGetPortVid
                0x0000000000066f20                Pearl_gvlnSetPortVlanDot1qMode
                0x0000000000066f80                Pearl_gvlnGetPortVlanDot1qMode
                0x0000000000067010                Pearl_gprtSetDiscardTagged
                0x0000000000067070                Pearl_gprtGetDiscardTagged
                0x0000000000067100                Pearl_gprtSetDiscardUntagged
                0x0000000000067160                Pearl_gprtGetDiscardUntagged
                0x00000000000671f0                Pearl_gprtSetUnicastFloodBlock
                0x0000000000067250                Pearl_gprtGetUnicastFloodBlock
                0x00000000000672e0                Pearl_gprtSetMulticastFloodBlock
                0x0000000000067340                Pearl_gprtGetMulticastFloodBlock
                0x00000000000673d0                Pearl_gprtSetDiscardBCastMode
                0x0000000000067430                Pearl_gprtGetDiscardBCastMode
                0x00000000000674d0                Pearl_gprtSetIGMPSnoopEnable
                0x0000000000067530                Pearl_gprtGetIGMPSnoopEnable
                0x00000000000675d0                Pearl_gprtGetHeaderMode
                0x0000000000067670                Pearl_gprtSetHeaderMode
                0x00000000000676d0                Pearl_gprtGetDropOnLock
                0x0000000000067770                Pearl_gprtSetDropOnLock
                0x00000000000677d0                Pearl_gprtSetJumboMode
                0x0000000000067840                Pearl_gprtGetJumboMode
                0x00000000000678d0                Pearl_gprtSetLearnEnable
                0x0000000000067940                Pearl_gprtGetLearnEnable
                0x00000000000679d0                Pearl_gprtGetVTUPriorityOverride
                0x0000000000067a60                Pearl_gprtSetVTUPriorityOverride
                0x0000000000067ac0                Pearl_gprtGetSAPriorityOverride
                0x0000000000067b50                Pearl_gprtSetSAPriorityOverride
                0x0000000000067bb0                Pearl_gprtGetDAPriorityOverride
                0x0000000000067c40                Pearl_gprtSetDAPriorityOverride
                0x0000000000067ca0                Pearl_gprtGetMessagePort
                0x0000000000067d30                Pearl_gprtSetMessagePort
                0x0000000000067d90                Pearl_gprtGetEtherType
                0x0000000000067de0                Pearl_gprtSetEtherType
                0x0000000000067e30                Pearl_gprtSetTrunkPort
                0x0000000000067ed0                Pearl_gprtGetTrunkPort
                0x0000000000067fb0                Pearl_gprtSetFlowCtrl
                0x0000000000068020                Pearl_gprtGetFlowCtrl
                0x00000000000680d0                Pearl_gprtSetEgressMonitorSource
                0x0000000000068130                Pearl_gprtGetEgressMonitorSource
                0x00000000000681c0                Pearl_gprtSetIngressMonitorSource
                0x0000000000068220                Pearl_gprtGetIngressMonitorSource
                0x00000000000682b0                Pearl_grcSetELimitMode
                0x0000000000068310                Pearl_grcSetEgressRate
                0x00000000000684c0                Pearl_grcGetELimitMode
                0x0000000000068550                Pearl_grcGetEgressRate
                0x0000000000068690                Pearl_gprtSetDuplex
                0x0000000000068700                Pearl_gprtGetDuplex
                0x00000000000687d0                Pearl_gprtGetDuplexStatus
                0x0000000000068860                Pearl_gprtGetForceLink
                0x0000000000068920                Pearl_gprtSetForceLink
                0x0000000000068990                Pearl_gprtGetLinkState
                0x0000000000068a20                Pearl_gprtSetForceSpeed
                0x0000000000068bc0                Pearl_gprtGetForceSpeed
                0x0000000000068d00                Pearl_gprtGetSpeed
                0x0000000000068e10                Pearl_gprtGetVlanPorts
                0x0000000000068ed0                Pearl_gprtSetVlanPorts
                0x0000000000068f80                Pearl_gprtGetFrameMode
                0x0000000000069010                Pearl_gprtSetFrameMode
                0x0000000000069070                Pearl_gprtGetEgressMode
                0x0000000000069100                Pearl_gprtSetEgressMode
                0x0000000000069160                Pearl_gprtGetPortState
                0x00000000000691f0                Pearl_gprtSetPortState
                0x0000000000069250                Pearl_gprtSetCutThrouthEnable
                0x00000000000692c0                Pearl_gprtGetCutThrouthEnable
                0x0000000000069350                Pearl_gprtSetIgnoreFcs
                0x00000000000693b0                Pearl_gprtGetIgnoreFcs
                0x0000000000069440                Pearl_gprtSetAllowBadFcs
                0x00000000000694a0                Pearl_gprtGetAllowBadFcs
                0x0000000000069530                Pearl_gprtSetPauseLimitOut
                0x0000000000069590                Pearl_gprtGetPauseLimitOut
                0x00000000000695f0                Pearl_gprtSetPauseLimitIn
                0x0000000000069650                Pearl_gprtGetPauseLimitIn
                0x00000000000696b0                Pearl_gprtGetOutQueueSize
                0x0000000000069750                Pearl_gprtSetMapDA
                0x00000000000697b0                Pearl_gprtGetMapDA
                0x0000000000069840                Pearl_gprtSetPortLocked
                0x00000000000698a0                Pearl_gprtGetPortLocked
                0x0000000000069930                Pearl_gprtSetHoldAt1
                0x0000000000069990                Pearl_gprtGetHoldAt1
                0x0000000000069a20                Pearl_gprtSetInt0nAgeOut
                0x0000000000069a80                Pearl_gprtGetInt0nAgeOut
                0x0000000000069b10                Pearl_gprtSetRefreshLocked
                0x0000000000069b70                Pearl_gprtGetRefreshLocked
                0x0000000000069c00                Pearl_gprtSetIgnoreWrongData
                0x0000000000069c60                Pearl_gprtGetIgnoreWrongData
                0x0000000000069cf0                Pearl_gprtSetARPMirror
                0x0000000000069d50                Pearl_gprtGetARPMirror
                0x0000000000069de0                Pearl_gprtRegDump
                0x0000000000069ee0                Pearl_gqosSetPrioMapRule
                0x0000000000069f40                Pearl_gqosGetPrioMapRule
                0x0000000000069fd0                Pearl_gprtSetInitialPri
                0x000000000006a040                Pearl_gprtGetInitialPri
                0x000000000006a100                Pearl_gprtSetDefQpri
                0x000000000006a160                Pearl_gprtGetDefQpri
                0x000000000006a200                Pearl_gprtSetDefFpri
                0x000000000006a260                Pearl_gprtGetDefFpri
                0x000000000006a2f0                Pearl_gsysSetTrunkMaskTable
                0x000000000006a420                Pearl_gsysGetTrunkMaskTable
                0x000000000006a580                Pearl_gsysSetHashTrunk
                0x000000000006a5b0                Pearl_gsysGetHashTrunk
                0x000000000006a620                Pearl_gsysSetTrunkRouting
                0x000000000006a770                Pearl_gsysGetTrunkRouting
                0x000000000006a8f0                Pearl_gsysSetFloodBC
                0x000000000006a920                Pearl_gsysGetFloodBC
                0x000000000006a990                Pearl_gsysSetCPUDest
                0x000000000006aa40                Pearl_gsysGetCPUDest
                0x000000000006aaa0                Pearl_gsysSetIngressMonitorDest
                0x000000000006ab70                Pearl_gsysGetIngressMonitorDest
                0x000000000006abe0                Pearl_gsysSetEgressMonitorDest
                0x000000000006acb0                Pearl_gsysGetEgressMonitorDest
                0x000000000006ad50                Pearl_gsysSetRsvd2CpuEnables
                0x000000000006adf0                Pearl_gsysGetRsvd2CpuEnables
                0x000000000006ae50                Pearl_gsysSetMGMTPri
                0x000000000006aee0                Pearl_gsysGetMGMTPri
                0x000000000006af40                Pearl_gsysGlobal1RegDump
                0x000000000006b010                Pearl_gsysGlobal2RegDump
                0x000000000006b0e0                Pearl_gsysSetRMUMode
                0x000000000006b1a0                Pearl_gsysGetRMUMode
                0x000000000006b230                Pearl_gsysDevIntEnableSet
                0x000000000006b290                Pearl_gsysDevIntEnableGet
                0x000000000006b320                Pearl_gsysDevIntStatusGet
                0x000000000006b3a0                Pearl_gsysActiveIntEnableSet
                0x000000000006b460                Pearl_gsysActiveIntEnableGet
                0x000000000006b4f0                Pearl_gsysActiveIntStatusGet
                0x000000000006b830                Pearl_gphyReset
                0x000000000006b900                Pearl_serdesReset
                0x000000000006b9c0                Pearl_gphySetPortLoopback
                0x000000000006bab0                Pearl_gphySetPortSpeed
                0x000000000006bc40                Pearl_gphyPortPowerDown
                0x000000000006bd30                Pearl_gphySetPortDuplexMode
                0x000000000006be50                Pearl_gphySetPortAutoMode
                0x000000000006bf20                Pearl_gphySetEEE
                0x000000000006c010                Pearl_gphySetFlowControlEnable
                0x000000000006c130                Pearl_gphySetIntEnable
                0x000000000006c1a0                Pearl_gphyGetIntEnable
                0x000000000006c240                Pearl_gphyGetIntStatus
                0x000000000006c2e0                Pearl_gprtSetPortSched
                0x000000000006c340                Pearl_gprtGetPortSched
                0x000000000006c410                Pearl_gsysSetQoSWeight
                0x000000000006c6c0                Pearl_gsysGetQoSWeight
                0x000000000006c980                Pearl_msdRmuGetID
                0x000000000006cab0                Pearl_msdRmuAtuDump
                0x000000000006ccc0                Pearl_msdRmuMib2Dump
                0x000000000006d0f0                Pearl_msdRmuReadRegister
                0x000000000006d120                Pearl_msdRmuWriteRegister
                0x000000000006d140                Pearl_msdRmuMultiRegAccess
                0x000000000006d330                Pearl_msdRmuRegDump
                0x000000000006d400                Pearl_EEPROMWrite
                0x000000000006d570                Pearl_EEPROMRead
                0x000000000006d6f0                Pearl_gtcamLoadEntryIntf
                0x000000000006d890                Pearl_gtcamReadTCAMDataIntf
                0x000000000006da40                Pearl_gtcamGetNextTCAMDataIntf
                0x000000000006dbf0                Pearl_gtcamFindEntryIntf
                0x000000000006dde0                Pearl_gtcamSetModeIntf
                0x000000000006ddf0                Pearl_gtcamGetModeIntf
                0x000000000006de50                Pearl_gtcamAdvConfigIntf
                0x000000000006e010                Pearl_gvctGetAdvCableDiagIntf
                0x000000000006e110                Pearl_gvctGetAdvExtendedStatusIntf
                0x000000000006e1b0                Pearl_gfdbAddMacEntryIntf
                0x000000000006e230                Pearl_gfdbFlushIntf
                0x000000000006e240                Pearl_gfdbFlushInDBIntf
                0x000000000006e250                Pearl_gfdbMoveIntf
                0x000000000006e260                Pearl_gfdbMoveInDBIntf
                0x000000000006e270                Pearl_gfdbPortRemoveIntf
                0x000000000006e2a0                Pearl_gfdbPortRemoveInDBIntf
                0x000000000006e2d0                Pearl_gfdbGetAtuEntryNextIntf
                0x000000000006e3a0                Pearl_gfdbGetViolationIntf
                0x000000000006e480                Pearl_gfdbFindAtuMacEntryIntf
                0x000000000006e570                Pearl_gfdbDump
                0x000000000006e6e0                Pearl_gvtuFindVidEntryIntf
                0x000000000006e840                Pearl_gvtuGetEntryNextIntf
                0x000000000006e920                Pearl_gvtuExistVidEntryIntf
                0x000000000006e9b0                Pearl_gvtuFlushIntf
                0x000000000006e9c0                Pearl_gvtuAddEntryIntf
                0x000000000006eab0                Pearl_gvtuDelEntryIntf
                0x000000000006eb20                Pearl_gvtuGetViolationIntf
                0x000000000006ebe0                Pearl_gvtuGetEntryCountIntf
                0x000000000006ec80                Pearl_gvtuSetMemberTagIntf
                0x000000000006ed50                Pearl_gvtuGetMemberTagIntf
                0x000000000006ee10                Pearl_gstuAddEntryIntf
                0x000000000006eee0                Pearl_gstuGetEntryNextIntf
                0x000000000006ef90                Pearl_gstuDelEntryIntf
                0x000000000006eff0                Pearl_gstuFindSidEntryIntf
                0x000000000006f120                Pearl_gstuGetEntryCountIntf
                0x000000000006f1c0                Pearl_gpirlInitializeIntf
                0x000000000006f1d0                Pearl_gpirlInitResourceIntf
                0x000000000006f1e0                Pearl_gpirlCustomSetupIntf
                0x000000000006f2a0                Pearl_gpirlReadResourceIntf
                0x000000000006f380                Pearl_gpirlWriteResourceIntf
                0x000000000006f460                Pearl_gpirlGetResRegIntf
                0x000000000006f470                Pearl_gpirlSetResRegIntf
                0x000000000006f480                Pearl_gpirlAdvConfigIntf
                0x000000000006f5a0                Pearl_gpirlAdvConfigDisableIntf
                0x000000000006f620                Pearl_gqavSetPortQpriXRate
                0x000000000006f7b0                Pearl_gqavGetPortQpriXRate
                0x000000000006f9a0                Pearl_gqavSetPortQpriXHiLimit
                0x000000000006fb30                Pearl_gqavGetPortQpriXHiLimit
                0x000000000006fd20                Pearl_gstatsGetPortCounterIntf
                0x000000000006fd40                Pearl_gstatsGetPortAllCountersIntf
                0x000000000006ff40                Pearl_gstatsGetHistogramModeIntf
                0x000000000006ff50                Pearl_gstatsSetHistogramModeIntf
                0x000000000006ff60                Pearl_gvlnSetPortVlanDot1qModeIntf
                0x000000000006ff70                Pearl_gvlnGetPortVlanDot1qModeIntf
                0x000000000006ff80                Pearl_gprtSetDiscardTaggedIntf
                0x000000000006ff90                Pearl_gprtGetDiscardTaggedIntf
                0x000000000006ffa0                Pearl_gprtSetDiscardUntaggedIntf
                0x000000000006ffb0                Pearl_gprtGetDiscardUntaggedIntf
                0x000000000006ffc0                Pearl_gprtSetUnicastFloodBlockIntf
                0x000000000006ffd0                Pearl_gprtGetUnicastFloodBlockIntf
                0x000000000006ffe0                Pearl_gprtSetMulticastFloodBlockIntf
                0x000000000006fff0                Pearl_gprtGetMulticastFloodBlockIntf
                0x0000000000070000                Pearl_gprtSetDiscardBCastModeIntf
                0x0000000000070010                Pearl_gprtGetDiscardBCastModeIntf
                0x0000000000070020                Pearl_gprtSetJumboModeIntf
                0x0000000000070030                Pearl_gprtGetJumboModeIntf
                0x0000000000070040                Pearl_gprtSetLearnEnableIntf
                0x0000000000070050                Pearl_gprtGetLearnEnableIntf
                0x0000000000070060                Pearl_gprtGetVTUPriorityOverrideIntf
                0x0000000000070070                Pearl_gprtSetVTUPriorityOverrideIntf
                0x0000000000070080                Pearl_gprtGetSAPriorityOverrideIntf
                0x0000000000070090                Pearl_gprtSetSAPriorityOverrideIntf
                0x00000000000700a0                Pearl_gprtGetDAPriorityOverrideIntf
                0x00000000000700b0                Pearl_gprtSetDAPriorityOverrideIntf
                0x00000000000700c0                Pearl_gprtSetFlowCtrlIntf
                0x00000000000700f0                Pearl_gprtGetFlowCtrlIntf
                0x0000000000070100                Pearl_gprtSetForceSpeedIntf
                0x0000000000070140                Pearl_gprtGetForceSpeedIntf
                0x0000000000070150                Pearl_grcSetEgressRateIntf
                0x0000000000070160                Pearl_grcGetEgressRateIntf
                0x0000000000070170                Pearl_grcSetELimitModeIntf
                0x0000000000070180                Pearl_grcGetELimitModeIntf
                0x0000000000070190                Pearl_gprtSetDuplexIntf
                0x00000000000701a0                Pearl_gprtGetDuplexIntf
                0x00000000000701b0                Pearl_gprtGetDuplexStatusIntf
                0x00000000000701c0                Pearl_gprtGetForceLinkIntf
                0x00000000000701d0                Pearl_gprtSetForceLinkIntf
                0x00000000000701e0                Pearl_gprtGetSpeedIntf
                0x00000000000701f0                Pearl_gprtGetFrameModeIntf
                0x0000000000070200                Pearl_gprtSetFrameModeIntf
                0x0000000000070210                Pearl_gprtGetEgressModeIntf
                0x0000000000070220                Pearl_gprtSetEgressModeIntf
                0x0000000000070240                Pearl_gprtGetPortStateIntf
                0x0000000000070250                Pearl_gprtSetPortStateIntf
                0x0000000000070260                Pearl_gprtSetCutThrouthEnableIntf
                0x0000000000070270                Pearl_gprtGetCutThrouthEnableIntf
                0x0000000000070280                Pearl_gqosSetPrioMapRuleIntf
                0x0000000000070290                Pearl_gqosGetPrioMapRuleIntf
                0x00000000000702a0                Pearl_gprtSetInitialPriIntf
                0x00000000000702b0                Pearl_gprtGetInitialPriIntf
                0x00000000000702c0                Pearl_gprtSetDefQpriIntf
                0x00000000000702d0                Pearl_gprtGetDefQpriIntf
                0x00000000000702e0                Pearl_gprtSetPortSchedIntf
                0x0000000000070320                Pearl_gprtGetPortSchedIntf
                0x0000000000070330                Pearl_gsysSetQoSWeightIntf
                0x0000000000070430                Pearl_gsysGetQoSWeightIntf
                0x0000000000070530                Pearl_gphySetPortSpeedIntf
                0x0000000000070540                Pearl_gphySetPortAutoModeIntf
                0x0000000000070550                Pearl_EEPROMWriteIntf
                0x0000000000070560                Pearl_EEPROMReadIntf
                0x0000000000070570                Pearl_msdRmuGetIDIntf
                0x0000000000070580                Pearl_msdRmuAtuDumpIntf
                0x00000000000706d0                Pearl_msdRmuMib2DumpIntf
                0x00000000000708d0                Pearl_msdRmuReadRegisterIntf
                0x00000000000708e0                Pearl_msdRmuWriteRegisterIntf
                0x0000000000070900                Pearl_msdRmuMultiRegAccessIntf
                0x0000000000070cb0                Pearl_gptpSetIntEnable
                0x0000000000070d90                Pearl_gptpGetIntEnable
                0x0000000000070e30                Pearl_gptpSetProtPTPEn
                0x0000000000070ef0                Pearl_gptpGetProtPTPEn
                0x0000000000070f80                Pearl_gptpSetPortConfig
                0x0000000000071160                Pearl_gptpGetPortConfig
                0x0000000000071320                Pearl_gptpGetTimeStamp
                0x0000000000071420                Pearl_gptpGetTSValidSt
                0x00000000000714e0                Pearl_gptpResetTimeStamp
                0x00000000000715a0                Pearl_gptpSetGlobalConfig
                0x0000000000071660                Pearl_gptpGetGlobalConfig
                0x0000000000071720                Pearl_gptpGetIntStatus
                0x00000000000717a0                Pearl_gptpSetIntEnableIntf
                0x0000000000071800                Pearl_gptpGetIntEnableIntf
                0x0000000000071860                Pearl_gptpSetPortConfigIntf
                0x00000000000718e0                Pearl_gptpGetPortConfigIntf
                0x0000000000071960                Pearl_gptpGetTimeStampIntf
                0x00000000000719d0                Pearl_gptpSetGlobalConfigIntf
                0x0000000000071a30                Pearl_gptpGetGlobalConfigIntf
                0x0000000000071aa0                Pearl_gptpGetIntStatusIntf
                0x0000000000071d80                Pearl_gledForceOn
                0x0000000000071e30                Pearl_gledForceOff
                0x0000000000071ef0                Pearl_gledLinkAct
                0x0000000000071ff0                Pearl_gledModeSet
                0x00000000000720c0                Pearl_gledModeGet
                0x0000000000072160                Pearl_gledBlinkRateSet
                0x0000000000072210                Pearl_gledBlinkRateGet
                0x00000000000722f0                Pearl_gledPulseStretchSet
                0x00000000000723a0                Pearl_gledPulseStretchGet
                0x0000000000072470                Pearl_gledSpecialModeSet
                0x0000000000072520                Pearl_gledSpecialModeGet
                0x0000000000072580                Pearl_gledCtrlSet
                0x00000000000725c0                Pearl_gledCtrlGet
                0x00000000000725f0                Pearl_gledDump
                0x0000000000072740                Pearl_gledForceOnIntf
                0x0000000000072750                Pearl_gledForceOffIntf
                0x0000000000072760                Pearl_gledLinkActIntf
                0x0000000000072770                Pearl_gledModeSetIntf
                0x0000000000072780                Pearl_gledModeGetIntf
                0x0000000000072790                Pearl_gledBlinkRateSetIntf
                0x00000000000727a0                Pearl_gledBlinkRateGetIntf
                0x00000000000727b0                Pearl_gledPulseStretchSetIntf
                0x00000000000727c0                Pearl_gledPulseStretchGetIntf
                0x00000000000727d0                Pearl_gledSpecialModeSetIntf
                0x0000000000072820                Pearl_gledSpecialModeGetIntf
                0x0000000000072870                Pearl_gledCtrlSetIntf
                0x0000000000072880                Pearl_gledCtrlGetIntf
 *fill*         0x000000000007288c        0x4 
 .text          0x0000000000072890    0x26c39 /home/roscube/Desktop/UMSD_v7.0.0_comb/UMSD_v7.0.0/obj/dev/amethyst/msdDrv_Amethyst.o
                0x0000000000072890                Amethyst_msdSetSMIC45PhyReg
                0x0000000000072b30                Amethyst_msdGetSMIC45PhyReg
                0x0000000000072de0                Amethyst_msdSetSMIPhyReg
                0x0000000000072f70                Amethyst_msdGetSMIPhyReg
                0x0000000000073180                Amethyst_msdSetSMIPhyRegField
                0x0000000000073270                Amethyst_msdGetSMIPhyRegField
                0x0000000000073310                Amethyst_msdSetPagedPhyRegField
                0x0000000000073390                Amethyst_msdGetPagedPhyRegField
                0x0000000000073460                Amethyst_msdWritePagedPhyReg
                0x00000000000734c0                Amethyst_msdReadPagedPhyReg
                0x0000000000073520                Amethyst_msdSetSMIPhyXMDIOReg
                0x0000000000073630                Amethyst_msdGetSMIPhyXMDIOReg
                0x0000000000073770                Amethyst_msdPhyReset
                0x0000000000073930                Amethyst_msdDirectSetMultiChipReg
                0x0000000000073950                Amethyst_msdDirectGetMultiChipReg
                0x0000000000073970                Amethyst_msdDirectSetMultiChipRegField
                0x0000000000073a40                Amethyst_msdDirectGetMultiChipRegField
                0x0000000000073ae0                Amethyst_msdSetSMIExtPhyReg
                0x0000000000073c70                Amethyst_msdGetSMIExtPhyReg
                0x0000000000073e80                Amethyst_msdWritePagedExtPhyReg
                0x0000000000073ee0                Amethyst_msdReadPagedExtPhyReg
                0x0000000000073f40                Amethyst_msdSetSMIExtPhyXMDIOReg
                0x0000000000074030                Amethyst_msdGetSMIExtPhyXMDIOReg
                0x0000000000075930                Amethyst_gtcamFlushAll
                0x0000000000075980                Amethyst_gtcamFlushEntry
                0x00000000000759e0                Amethyst_gtcamLoadEntry
                0x0000000000075a70                Amethyst_gtcamReadTCAMData
                0x0000000000075b00                Amethyst_gtcamGetNextTCAMData
                0x0000000000075ba0                Amethyst_gtcamFindEntry
                0x0000000000075c80                Amethyst_gtcamSetMode
                0x0000000000075ce0                Amethyst_gtcamGetMode
                0x0000000000075d70                Amethyst_gtcamAddEntryPort
                0x0000000000075e60                Amethyst_gtcamRemoveEntryPort
                0x0000000000075f50                Amethyst_gtcamEgrFlushEntry
                0x0000000000075fd0                Amethyst_gtcamEgrFlushEntryAllPorts
                0x0000000000076030                Amethyst_gtcamEgrLoadEntry
                0x00000000000761f0                Amethyst_gtcamEgrGetNextTCAMData
                0x00000000000762b0                Amethyst_gtcamEgrReadTCAMData
                0x0000000000076360                Amethyst_gtcamDump
                0x0000000000076820                Amethyst_gtcamAdvConfig
                0x0000000000077a90                Amethyst_gtcamRCFlushAllEntry
                0x0000000000077b50                Amethyst_gtcamRCFlushEntry
                0x0000000000077c20                Amethyst_gtcamRCLoadEntry
                0x0000000000077f30                Amethyst_gtcamRCReadEntry
                0x0000000000078030                Amethyst_gtcamRCGetNextEntry
                0x0000000000078150                Amethyst_gtcamRCFindEntry
                0x00000000000782a0                Amethyst_gtcamRCEntryDump
                0x0000000000078a90                Amethyst_gtcamRCCompFlushAll
                0x0000000000078b50                Amethyst_gtcamRCCompFlushPort
                0x0000000000078c30                Amethyst_gtcamRCCompLoad
                0x0000000000078ea0                Amethyst_gtcamRCCompRead
                0x00000000000795b0                Amethyst_gvctGetAdvCableDiag
                0x0000000000079a20                Amethyst_gvctGetAdvExtendedStatus
                0x000000000007af40                Amethyst_gfdbGetAtuEntryNext
                0x000000000007af60                Amethyst_gfdbFlush
                0x000000000007afd0                Amethyst_gfdbFlushInDB
                0x000000000007b060                Amethyst_gfdbMove
                0x000000000007b150                Amethyst_gfdbMoveInDB
                0x000000000007b250                Amethyst_gfdbAddMacEntry
                0x000000000007b320                Amethyst_gfdbDelAtuEntry
                0x000000000007b3b0                Amethyst_gfdbGetViolation
                0x000000000007b4e0                Amethyst_gfdbFindAtuMacEntry
                0x000000000007b620                Amethyst_gfdbSetAgingTimeout
                0x000000000007b6a0                Amethyst_gfdbGetAgingTimeout
                0x000000000007b730                Amethyst_gfdbGetLearn2All
                0x000000000007b7d0                Amethyst_gfdbSetLearn2All
                0x000000000007b820                Amethyst_gfdbSetPortLearnLimit
                0x000000000007b990                Amethyst_gfdbGetPortLearnLimit
                0x000000000007baa0                Amethyst_gfdbGetPortLearnCount
                0x000000000007bb60                Amethyst_gfdbGetEntryCount
                0x000000000007bbb0                Amethyst_gfdbGetEntryCountPerFid
                0x000000000007bc00                Amethyst_gfdbGetNonStaticEntryCount
                0x000000000007bc50                Amethyst_gfdbGetNonStaticEntryCountPerFid
                0x000000000007bf10                Amethyst_gpolicySetMgmtCtrl
                0x000000000007bf30                Amethyst_gpolicyGetMgmtCtrl
                0x000000000007bf50                Amethyst_gpolicySetCpuDest
                0x000000000007c030                Amethyst_gpolicyGetCpuDest
                0x000000000007c0c0                Amethyst_gpolicySetIngressMonitorDest
                0x000000000007c1a0                Amethyst_gpolicyGetIngressMonitorDest
                0x000000000007c230                Amethyst_gpolicySetRsvd2CpuEnables
                0x000000000007c280                Amethyst_gpolicyGetRsvd2CpuEnables
                0x000000000007c320                Amethyst_gpolicySetMGMTPri
                0x000000000007c3c0                Amethyst_gpolicyGetMGMTPri
                0x000000000007c420                Amethyst_gpolicySetRouteDest
                0x000000000007c500                Amethyst_gpolicyGetRouteDest
                0x000000000007c590                Amethyst_gpolicySetMirrorDest
                0x000000000007c670                Amethyst_gpolicyGetMirrorDest
                0x000000000007c700                Amethyst_gpolicySetIllegalIPAddr
                0x000000000007c7a0                Amethyst_gpolicyGetIllegalIPAddr
                0x000000000007c800                Amethyst_gpolicySetDipDaMismatch
                0x000000000007c8a0                Amethyst_gpolicyGetDipDaMismatch
                0x000000000007c900                Amethyst_gpolicySetZeroSIP
                0x000000000007c9a0                Amethyst_gpolicyGetZeroSIP
                0x000000000007ca00                Amethyst_gpolicySetMcTtlExceeded
                0x000000000007cae0                Amethyst_gpolicyGetMcTtlExceeded
                0x000000000007cbb0                Amethyst_gpolicySetUcTtlExceeded
                0x000000000007cc70                Amethyst_gpolicyGetUcTtlExceeded
                0x000000000007ccd0                Amethyst_gprtSetPortTtlThreshold
                0x000000000007cd60                Amethyst_gprtGetPortTtlThreshold
                0x000000000007cdc0                Amethyst_gpolicySetIpHdrErr
                0x000000000007ce60                Amethyst_gpolicyGetIpHdrErr
                0x000000000007cec0                Amethyst_gpolicySetTCPFinUrgPsh
                0x000000000007cf60                Amethyst_gpolicyGetTCPFinUrgPsh
                0x000000000007cfc0                Amethyst_gpolicySetTCPFlagsSeqNum
                0x000000000007d060                Amethyst_gpolicyGetTCPFlagsSeqNum
                0x000000000007d0c0                Amethyst_gpolicySetTCPSYN
                0x000000000007d160                Amethyst_gpolicyGetTCPSYN
                0x000000000007d1c0                Amethyst_gpolicySetTCPHSize
                0x000000000007d260                Amethyst_gpolicyGetTCPHSize
                0x000000000007d2c0                Amethyst_gprtSetPortTCPMinHdrSize
                0x000000000007d350                Amethyst_gprtGetPortTCPMinHdrSize
                0x000000000007d3b0                Amethyst_gpolicySetICMPSize
                0x000000000007d450                Amethyst_gpolicyGetICMPSize
                0x000000000007d4b0                Amethyst_gprtSetPortICMPMaxSize
                0x000000000007d500                Amethyst_gprtGetPortICMPMaxSize
                0x000000000007d590                Amethyst_gpolicySetUDPPort
                0x000000000007d630                Amethyst_gpolicyGetUDPPort
                0x000000000007d690                Amethyst_gpolicySetTCPPort
                0x000000000007d730                Amethyst_gpolicyGetTCPPort
                0x000000000007d790                Amethyst_gpolicySetTCPSynFin
                0x000000000007d830                Amethyst_gpolicyGetTCPSynFin
                0x000000000007d890                Amethyst_gpolicySetTCPFrag
                0x000000000007d930                Amethyst_gpolicyGetTCPFrag
                0x000000000007d990                Amethyst_gpolicySetNearNonTPMR
                0x000000000007da30                Amethyst_gpolicyGetNearNonTPMR
                0x000000000007da90                Amethyst_gpolicySetETag
                0x000000000007db30                Amethyst_gpolicyGetETag
                0x000000000007db90                Amethyst_gpolicySetNonETag
                0x000000000007dc30                Amethyst_gpolicyGetNonETag
                0x000000000007dc90                Amethyst_gpolicyDump
                0x00000000000823d0                Amethyst_gvtuGetEntryNext
                0x0000000000082520                Amethyst_gvtuFindVidEntry
                0x00000000000826e0                Amethyst_gvtuFlush
                0x0000000000082700                Amethyst_gvtuAddEntry
                0x0000000000082850                Amethyst_gvtuDelEntry
                0x00000000000828d0                Amethyst_gvtuSetMode
                0x0000000000082a50                Amethyst_gvtuGetMode
                0x0000000000082bf0                Amethyst_gvtuGetViolation_MultiChip
                0x0000000000082d00                Amethyst_gvtuGetViolation
                0x0000000000082e70                Amethyst_gvtuDump
                0x00000000000835f0                Amethyst_garpLoadMcEntry
                0x0000000000083790                Amethyst_garpLoadUcEntry
                0x00000000000838d0                Amethyst_garpFlushEntry
                0x00000000000839a0                Amethyst_garpFlushAll
                0x0000000000083a60                Amethyst_garpReadEntry
                0x0000000000083b60                Amethyst_garpGetNextEntry
                0x0000000000084090                Amethyst_gstuGetEntryNext
                0x0000000000084170                Amethyst_gstuAddEntry
                0x0000000000084240                Amethyst_gstuDelEntry
                0x00000000000842a0                Amethyst_gstuFindSidEntry
                0x00000000000843a0                Amethyst_gstuDump
                0x0000000000084920                Amethyst_gpirlInitialize
                0x0000000000084940                Amethyst_gpirlInitResource
                0x00000000000849c0                Amethyst_gpirlCustomSetup_sr2c
                0x0000000000084bb0                Amethyst_gpirlReadResource
                0x0000000000084d80                Amethyst_gpirlWriteResource
                0x0000000000084f30                Amethyst_gpirlGetResReg
                0x0000000000084fd0                Amethyst_gpirlSetResReg
                0x0000000000085670                Amethyst_gstatsFlushAll
                0x0000000000085690                Amethyst_gstatsFlushPort
                0x00000000000856d0                Amethyst_gstatsGetPortCounter
                0x0000000000085730                Amethyst_gstatsGetPortAllCounters
                0x0000000000085780                Amethyst_gstatsGetHistogramMode
                0x0000000000085830                Amethyst_gstatsSetHistogramMode
                0x0000000000085870                Amethyst_gmibDump
                0x00000000000863b0                Amethyst_gvlnSetPortVid
                0x0000000000086410                Amethyst_gvlnGetPortVid
                0x00000000000864a0                Amethyst_gprtSetForceDefaultVid
                0x0000000000086500                Amethyst_gprtGetForceDefaultVid
                0x0000000000086590                Amethyst_gvlnSetPortVlanDot1qMode
                0x00000000000865f0                Amethyst_gvlnGetPortVlanDot1qMode
                0x0000000000086680                Amethyst_gprtSetDiscardTagged
                0x00000000000866e0                Amethyst_gprtGetDiscardTagged
                0x0000000000086770                Amethyst_gprtSetDiscardUntagged
                0x00000000000867d0                Amethyst_gprtGetDiscardUntagged
                0x0000000000086860                Amethyst_gprtSetUnicastFloodBlock
                0x00000000000868c0                Amethyst_gprtGetUnicastFloodBlock
                0x0000000000086950                Amethyst_gprtSetMulticastFloodBlock
                0x00000000000869b0                Amethyst_gprtGetMulticastFloodBlock
                0x0000000000086a40                Amethyst_gprtSetDiscardBCastMode
                0x0000000000086aa0                Amethyst_gprtGetDiscardBCastMode
                0x0000000000086b40                Amethyst_gprtSetIGMPSnoopEnable
                0x0000000000086ba0                Amethyst_gprtGetIGMPSnoopEnable
                0x0000000000086c40                Amethyst_gprtGetHeaderMode
                0x0000000000086ce0                Amethyst_gprtSetHeaderMode
                0x0000000000086d40                Amethyst_gprtGetDropOnLock
                0x0000000000086de0                Amethyst_gprtSetDropOnLock
                0x0000000000086e40                Amethyst_gprtSetJumboMode
                0x0000000000086eb0                Amethyst_gprtGetJumboMode
                0x0000000000086f40                Amethyst_gprtSetLearnEnable
                0x0000000000086fb0                Amethyst_gprtGetLearnEnable
                0x0000000000087040                Amethyst_gprtGetVTUPriorityOverride
                0x00000000000870d0                Amethyst_gprtSetVTUPriorityOverride
                0x0000000000087130                Amethyst_gprtGetSAPriorityOverride
                0x00000000000871c0                Amethyst_gprtSetSAPriorityOverride
                0x0000000000087220                Amethyst_gprtGetDAPriorityOverride
                0x00000000000872b0                Amethyst_gprtSetDAPriorityOverride
                0x0000000000087310                Amethyst_gprtGetMessagePort
                0x00000000000873a0                Amethyst_gprtSetMessagePort
                0x0000000000087400                Amethyst_gprtGetEtherType
                0x0000000000087420                Amethyst_gprtSetEtherType
                0x0000000000087440                Amethyst_gprtGetAllowVidZero
                0x00000000000874d0                Amethyst_gprtSetAllowVidZero
                0x0000000000087530                Amethyst_gprtSetTrunkPort
                0x00000000000875d0                Amethyst_gprtGetTrunkPort
                0x00000000000876b0                Amethyst_gprtSetFlowCtrl
                0x0000000000087770                Amethyst_gprtGetFlowCtrl
                0x00000000000877e0                Amethyst_gprtSetEgressMonitorSource
                0x0000000000087840                Amethyst_gprtGetEgressMonitorSource
                0x00000000000878d0                Amethyst_gprtSetIngressMonitorSource
                0x0000000000087930                Amethyst_gprtGetIngressMonitorSource
                0x00000000000879c0                Amethyst_grcSetELimitMode
                0x0000000000087a20                Amethyst_grcSetEgressRate
                0x0000000000087c00                Amethyst_grcGetELimitMode
                0x0000000000087c90                Amethyst_grcGetEgressRate
                0x0000000000087dd0                Amethyst_gprtSetDuplex
                0x0000000000087e40                Amethyst_gprtGetDuplex
                0x0000000000087f10                Amethyst_gprtGetDuplexStatus
                0x0000000000087fa0                Amethyst_gprtGetForceLink
                0x0000000000088060                Amethyst_gprtSetForceLink
                0x00000000000880d0                Amethyst_gprtGetLinkState
                0x0000000000088160                Amethyst_gprtSetForceSpeed
                0x0000000000088430                Amethyst_gprtGetForceSpeed
                0x00000000000885d0                Amethyst_gprtGetSpeed
                0x0000000000088700                Amethyst_gprtGetVlanPorts
                0x00000000000887c0                Amethyst_gprtSetVlanPorts
                0x0000000000088870                Amethyst_gprtGetFrameMode
                0x0000000000088900                Amethyst_gprtSetFrameMode
                0x0000000000088960                Amethyst_gprtSetPortECID
                0x0000000000088a00                Amethyst_gprtGetPortECID
                0x0000000000088a60                Amethyst_gprtSetIgnoreETag
                0x0000000000088af0                Amethyst_gprtGetIgnoreETag
                0x0000000000088b50                Amethyst_gprtSetEgressMode
                0x0000000000088bb0                Amethyst_gprtGetEgressMode
                0x0000000000088c40                Amethyst_gprtSetExtendedPortCtrlReg
                0x0000000000088d20                Amethyst_gprtGetExtendedPortCtrlReg
                0x0000000000088dc0                Amethyst_gprtGetPortState
                0x0000000000088e50                Amethyst_gprtSetPortState
                0x0000000000088eb0                Amethyst_gprtSetCutThrouthEnable
                0x0000000000088f20                Amethyst_gprtGetCutThrouthEnable
                0x0000000000088fb0                Amethyst_gprtSetIgnoreFcs
                0x0000000000089010                Amethyst_gprtGetIgnoreFcs
                0x00000000000890a0                Amethyst_gprtSetAllowBadFcs
                0x0000000000089100                Amethyst_gprtGetAllowBadFcs
                0x0000000000089190                Amethyst_gprtSetPauseLimitOut
                0x00000000000891e0                Amethyst_gprtGetPauseLimitOut
                0x0000000000089230                Amethyst_gprtSetPauseLimitIn
                0x0000000000089270                Amethyst_gprtGetPauseLimitIn
                0x00000000000892c0                Amethyst_gprtSetQueueToPause
                0x0000000000089310                Amethyst_gprtGetQueueToPause
                0x0000000000089360                Amethyst_gprtSetRxPriorityFlowControlEnable
                0x0000000000089450                Amethyst_gprtGetRxPriorityFlowControlEnable
                0x00000000000894f0                Amethyst_gprtSetRxPriorityFlowControlToQueue
                0x00000000000895e0                Amethyst_gprtGetRxPriorityFlowControlToQueue
                0x0000000000089680                Amethyst_gprtSetTxPriorityFlowControlEnable
                0x0000000000089770                Amethyst_gprtGetTxPriorityFlowControlEnable
                0x0000000000089810                Amethyst_gprtGetOutQueueSize
                0x00000000000898b0                Amethyst_gprtSetMapDA
                0x0000000000089910                Amethyst_gprtGetMapDA
                0x00000000000899a0                Amethyst_gprtSetPortLocked
                0x0000000000089a00                Amethyst_gprtGetPortLocked
                0x0000000000089a90                Amethyst_gprtSetHoldAt1
                0x0000000000089af0                Amethyst_gprtGetHoldAt1
                0x0000000000089b80                Amethyst_gprtSetInt0nAgeOut
                0x0000000000089be0                Amethyst_gprtGetInt0nAgeOut
                0x0000000000089c70                Amethyst_gprtSetRefreshLocked
                0x0000000000089cd0                Amethyst_gprtGetRefreshLocked
                0x0000000000089d60                Amethyst_gprtSetIgnoreWrongData
                0x0000000000089dc0                Amethyst_gprtGetIgnoreWrongData
                0x0000000000089e50                Amethyst_gprtSetARPMirror
                0x0000000000089eb0                Amethyst_gprtGetARPMirror
                0x0000000000089f40                Amethyst_gprtRegDump
                0x000000000008aa10                Amethyst_gBpeEnableSet
                0x000000000008ab60                Amethyst_gBpeEnableGet
                0x000000000008ac00                Amethyst_gecidAddEntry
                0x000000000008ac40                Amethyst_gecidFlushAll
                0x000000000008acb0                Amethyst_gecidMove
                0x000000000008ad70                Amethyst_gecidFlushEntry
                0x000000000008ae00                Amethyst_gecidGetEcidEntryNext
                0x000000000008ae80                Amethyst_gecidFindEcidEntry
                0x000000000008afa0                Amethyst_gecidGetEntryCount
                0x000000000008b280                Amethyst_gecidDump
                0x000000000008b3e0                Amethyst_gqosSetPrioMapRule
                0x000000000008b440                Amethyst_gqosGetPrioMapRule
                0x000000000008b4d0                Amethyst_gprtSetInitialPri
                0x000000000008b540                Amethyst_gprtGetInitialPri
                0x000000000008b600                Amethyst_gprtSetDefQpri
                0x000000000008b660                Amethyst_gprtGetDefQpri
                0x000000000008b700                Amethyst_gprtSetIEEEPrioMap
                0x000000000008b910                Amethyst_gprtGetIEEEPrioMap
                0x000000000008bb30                Amethyst_gprtRewriteDscp
                0x000000000008bb90                Amethyst_gprtSetCosToQueue
                0x000000000008bc10                Amethyst_gprtGetCosToQueue
                0x000000000008bc70                Amethyst_gprtSetCosToDscp
                0x000000000008bd00                Amethyst_gprtGetCosToDscp
                0x000000000008bd60                Amethyst_gprtSetDefFpri
                0x000000000008bdc0                Amethyst_gprtGetDefFpri
                0x000000000008be50                Amethyst_gprtSetQueueCtrl
                0x000000000008bf60                Amethyst_gprtGetQueueCtrl
                0x000000000008c0a0                Amethyst_gprtSetPortSched
                0x000000000008c0f0                Amethyst_gprtGetPortSched
                0x000000000008c200                Amethyst_gsysSetQoSWeight
                0x000000000008c440                Amethyst_gsysGetQoSWeight
                0x000000000008c8c0                Amethyst_gsysSetTrunkMaskTable
                0x000000000008c9f0                Amethyst_gsysGetTrunkMaskTable
                0x000000000008cb50                Amethyst_gsysSetHashTrunk
                0x000000000008cb80                Amethyst_gsysGetHashTrunk
                0x000000000008cbf0                Amethyst_gsysSetTrunkRouting
                0x000000000008cd50                Amethyst_gsysGetTrunkRouting
                0x000000000008cee0                Amethyst_gsysSetFloodBC
                0x000000000008cf10                Amethyst_gsysGetFloodBC
                0x000000000008cf80                Amethyst_gsysSetMonitorMgmtCtrl
                0x000000000008cfb0                Amethyst_gsysGetMonitorMgmtCtrl
                0x000000000008cfd0                Amethyst_gsysSetCPUDest
                0x000000000008d090                Amethyst_gsysGetCPUDest
                0x000000000008d120                Amethyst_gsysSetIngressMonitorDest
                0x000000000008d180                Amethyst_gsysGetIngressMonitorDest
                0x000000000008d210                Amethyst_gsysSetEgressMonitorDest
                0x000000000008d280                Amethyst_gsysGetEgressMonitorDest
                0x000000000008d320                Amethyst_gsysSetRsvd2CpuEnables
                0x000000000008d360                Amethyst_gsysGetRsvd2CpuEnables
                0x000000000008d3e0                Amethyst_gsysSetMGMTPri
                0x000000000008d480                Amethyst_gsysGetMGMTPri
                0x000000000008d4e0                Amethyst_gsysSetSMISetup
                0x000000000008d6d0                Amethyst_gsysGetSMISetup
                0x000000000008d8a0                Amethyst_gsysGlobal1RegDump
                0x000000000008d970                Amethyst_gsysGlobal2RegDump
                0x000000000008da40                Amethyst_gsysSetRMUMode
                0x000000000008db00                Amethyst_gsysGetRMUMode
                0x000000000008db90                Amethyst_gsysQbvWrite
                0x000000000008dca0                Amethyst_gsysQbvRead
                0x000000000008dda0                Amethyst_gsysDevIntEnableSet
                0x000000000008de00                Amethyst_gsysDevIntEnableGet
                0x000000000008de90                Amethyst_gsysDevIntStatusGet
                0x000000000008df10                Amethyst_gsysActiveIntEnableSet
                0x000000000008dfd0                Amethyst_gsysActiveIntEnableGet
                0x000000000008e060                Amethyst_gsysActiveIntStatusGet
                0x000000000008e3a0                Amethyst_gphyReset
                0x000000000008e470                Amethyst_serdesReset
                0x000000000008e530                Amethyst_gphySetPortLoopback
                0x000000000008e620                Amethyst_gphySetPortSpeed
                0x000000000008e7b0                Amethyst_gphyPortPowerDown
                0x000000000008e8a0                Amethyst_gphySetPortDuplexMode
                0x000000000008e9c0                Amethyst_gphySetPortAutoMode
                0x000000000008ea90                Amethyst_gphySetEEE
                0x000000000008eb80                Amethyst_gphySetFlowControlEnable
                0x000000000008eca0                Amethyst_gphySetIntEnable
                0x000000000008ed10                Amethyst_gphyGetIntEnable
                0x000000000008edb0                Amethyst_gphyGetIntStatus
                0x000000000008ef00                Amethyst_impRun
                0x000000000008f0b0                Amethyst_impReset
                0x000000000008f100                Amethyst_impLoadToRAM
                0x000000000008f300                Amethyst_impStop
                0x000000000008fb20                Amethyst_msdRmuGetID
                0x000000000008fc50                Amethyst_msdRmuAtuDump
                0x000000000008fe70                Amethyst_msdRmuEcidDump
                0x00000000000900c0                Amethyst_msdRmuMib2Dump
                0x00000000000904f0                Amethyst_msdRmuReadRegister
                0x0000000000090520                Amethyst_msdRmuWriteRegister
                0x0000000000090540                Amethyst_msdRmuMultiRegAccess
                0x0000000000090730                Amethyst_msdRmuTCAMDump
                0x00000000000908a0                Amethyst_msdRmuTCAMWrite
                0x0000000000090a50                Amethyst_msdRmuTCAMRead
                0x0000000000090c00                Amethyst_msdRmuRegDump
                0x0000000000090cd0                Amethyst_gtcamLoadEntryIntf
                0x0000000000090ea0                Amethyst_gtcamReadTCAMDataIntf
                0x0000000000091090                Amethyst_gtcamGetNextTCAMDataIntf
                0x0000000000091280                Amethyst_gtcamFindEntryIntf
                0x00000000000914b0                Amethyst_gtcamSetModeIntf
                0x00000000000914c0                Amethyst_gtcamGetModeIntf
                0x0000000000091520                Amethyst_gtcamEgrFlushEntryIntf
                0x0000000000091530                Amethyst_gtcamEgrFlushEntryAllPortsIntf
                0x0000000000091540                Amethyst_gtcamEgrLoadEntryIntf
                0x0000000000091600                Amethyst_gtcamEgrGetNextTCAMDataIntf
                0x00000000000916e0                Amethyst_gtcamEgrReadTCAMDataIntf
                0x00000000000917c0                Amethyst_gtcamAdvConfigIntf
                0x0000000000091990                Amethyst_gvctGetAdvCableDiagIntf
                0x0000000000091a90                Amethyst_gvctGetAdvExtendedStatusIntf
                0x0000000000091b30                Amethyst_gfdbAddMacEntryIntf
                0x0000000000091bb0                Amethyst_gfdbGetAtuEntryNextIntf
                0x0000000000091c90                Amethyst_gfdbFlushIntf
                0x0000000000091ca0                Amethyst_gfdbFlushInDBIntf
                0x0000000000091cb0                Amethyst_gfdbMoveIntf
                0x0000000000091cc0                Amethyst_gfdbMoveInDBIntf
                0x0000000000091cd0                Amethyst_gfdbPortRemoveIntf
                0x0000000000091d00                Amethyst_gfdbPortRemoveInDBIntf
                0x0000000000091d30                Amethyst_gfdbGetViolationIntf
                0x0000000000091e10                Amethyst_gfdbFindAtuMacEntryIntf
                0x0000000000091f00                Amethyst_gfdbDump
                0x00000000000920b0                Amethyst_gvtuFindVidEntryIntf
                0x0000000000092220                Amethyst_gvtuExistVidEntryIntf
                0x00000000000922c0                Amethyst_gvtuFlushIntf
                0x00000000000922d0                Amethyst_gvtuAddEntryIntf
                0x00000000000923f0                Amethyst_gvtuDelEntryIntf
                0x0000000000092470                Amethyst_gvtuSetModeIntf
                0x0000000000092480                Amethyst_gvtuGetModeIntf
                0x0000000000092490                Amethyst_gvtuGetViolationIntf
                0x0000000000092550                Amethyst_gvtuGetEntryCountIntf
                0x0000000000092600                Amethyst_gvtuSetMemberTagIntf
                0x00000000000926f0                Amethyst_gvtuGetMemberTagIntf
                0x00000000000927d0                Amethyst_gvtuGetEntryNextIntf
                0x0000000000092900                Amethyst_gstuAddEntryIntf
                0x00000000000929d0                Amethyst_gstuGetEntryNextIntf
                0x0000000000092a80                Amethyst_gstuDelEntryIntf
                0x0000000000092ae0                Amethyst_gstuFindSidEntryIntf
                0x0000000000092bf0                Amethyst_gstuGetEntryCountIntf
                0x0000000000092c90                Amethyst_gpirlInitializeIntf
                0x0000000000092ca0                Amethyst_gpirlInitResourceIntf
                0x0000000000092cb0                Amethyst_gpirlCustomSetup_sr2cIntf
                0x0000000000092d70                Amethyst_gpirlReadResourceIntf
                0x0000000000092e50                Amethyst_gpirlWriteResourceIntf
                0x0000000000092f10                Amethyst_gpirlGetResRegIntf
                0x0000000000092f20                Amethyst_gpirlSetResRegIntf
                0x0000000000092f30                Amethyst_gpirlAdvConfigIntf
                0x0000000000093030                Amethyst_gpirlAdvConfigDisableIntf
                0x0000000000093460                Amethyst_gqavSetPortQpriXRate
                0x0000000000093510                Amethyst_gqavGetPortQpriXRate
                0x00000000000935c0                Amethyst_gqavSetPortQpriXHiLimit
                0x0000000000093670                Amethyst_gqavGetPortQpriXHiLimit
                0x0000000000093720                Amethyst_garpLoadMcEntryIntf
                0x0000000000093780                Amethyst_garpLoadUcEntryIntf
                0x00000000000937e0                Amethyst_garpReadEntryIntf
                0x0000000000093860                Amethyst_garpGetNextEntryIntf
                0x00000000000938e0                Amethyst_gstatsGetPortCounterIntf
                0x00000000000938f0                Amethyst_gstatsGetPortAllCountersIntf
                0x0000000000093af0                Amethyst_gstatsGetHistogramModeIntf
                0x0000000000093b00                Amethyst_gstatsSetHistogramModeIntf
                0x0000000000093b10                Amethyst_gvlnSetPortVlanDot1qModeIntf
                0x0000000000093b20                Amethyst_gvlnGetPortVlanDot1qModeIntf
                0x0000000000093b30                Amethyst_gprtSetDiscardTaggedIntf
                0x0000000000093b40                Amethyst_gprtGetDiscardTaggedIntf
                0x0000000000093b50                Amethyst_gprtSetDiscardUntaggedIntf
                0x0000000000093b60                Amethyst_gprtGetDiscardUntaggedIntf
                0x0000000000093b70                Amethyst_gprtSetUnicastFloodBlockIntf
                0x0000000000093b80                Amethyst_gprtGetUnicastFloodBlockIntf
                0x0000000000093b90                Amethyst_gprtSetMulticastFloodBlockIntf
                0x0000000000093ba0                Amethyst_gprtGetMulticastFloodBlockIntf
                0x0000000000093bb0                Amethyst_gprtSetDiscardBCastModeIntf
                0x0000000000093bc0                Amethyst_gprtGetDiscardBCastModeIntf
                0x0000000000093bd0                Amethyst_gprtSetJumboModeIntf
                0x0000000000093be0                Amethyst_gprtGetJumboModeIntf
                0x0000000000093bf0                Amethyst_gprtSetLearnEnableIntf
                0x0000000000093c00                Amethyst_gprtGetLearnEnableIntf
                0x0000000000093c10                Amethyst_gprtGetVTUPriorityOverrideIntf
                0x0000000000093c20                Amethyst_gprtSetVTUPriorityOverrideIntf
                0x0000000000093c30                Amethyst_gprtGetSAPriorityOverrideIntf
                0x0000000000093c40                Amethyst_gprtSetSAPriorityOverrideIntf
                0x0000000000093c50                Amethyst_gprtGetDAPriorityOverrideIntf
                0x0000000000093c60                Amethyst_gprtSetDAPriorityOverrideIntf
                0x0000000000093c70                Amethyst_gprtSetFlowCtrlIntf
                0x0000000000093c80                Amethyst_gprtGetFlowCtrlIntf
                0x0000000000093c90                Amethyst_gprtSetForceSpeedIntf
                0x0000000000093cb0                Amethyst_gprtGetForceSpeedIntf
                0x0000000000093cc0                Amethyst_grcSetEgressRateIntf
                0x0000000000093cd0                Amethyst_grcGetEgressRateIntf
                0x0000000000093ce0                Amethyst_grcSetELimitModeIntf
                0x0000000000093cf0                Amethyst_grcGetELimitModeIntf
                0x0000000000093d00                Amethyst_gprtSetDuplexIntf
                0x0000000000093d10                Amethyst_gprtGetDuplexIntf
                0x0000000000093d20                Amethyst_gprtGetDuplexStatusIntf
                0x0000000000093d30                Amethyst_gprtGetForceLinkIntf
                0x0000000000093d40                Amethyst_gprtSetForceLinkIntf
                0x0000000000093d50                Amethyst_gprtGetSpeedIntf
                0x0000000000093d60                Amethyst_gprtGetFrameModeIntf
                0x0000000000093d70                Amethyst_gprtSetFrameModeIntf
                0x0000000000093d80                Amethyst_gprtSetEgressModeIntf
                0x0000000000093da0                Amethyst_gprtGetEgressModeIntf
                0x0000000000093db0                Amethyst_gprtGetPortStateIntf
                0x0000000000093dc0                Amethyst_gprtSetPortStateIntf
                0x0000000000093dd0                Amethyst_gprtSetCutThrouthEnableIntf
                0x0000000000093de0                Amethyst_gprtGetCutThrouthEnableIntf
                0x0000000000093df0                Amethyst_gqosSetPrioMapRuleIntf
                0x0000000000093e00                Amethyst_gqosGetPrioMapRuleIntf
                0x0000000000093e10                Amethyst_gprtSetInitialPriIntf
                0x0000000000093e20                Amethyst_gprtGetInitialPriIntf
                0x0000000000093e30                Amethyst_gprtSetDefQpriIntf
                0x0000000000093e40                Amethyst_gprtGetDefQpriIntf
                0x0000000000093e50                Amethyst_gprtSetIEEEPrioMapIntf
                0x0000000000093eb0                Amethyst_gprtGetIEEEPrioMapIntf
                0x0000000000093f70                Amethyst_gecidAddEntryIntf
                0x0000000000094000                Amethyst_gecidGetEcidEntryNextIntf
                0x00000000000940c0                Amethyst_gecidFindEcidEntryIntf
                0x0000000000094190                Amethyst_gprtSetQueueCtrlIntf
                0x00000000000941a0                Amethyst_gprtGetQueueCtrlIntf
                0x00000000000941b0                Amethyst_gprtSetPortSchedIntf
                0x00000000000941c0                Amethyst_gprtGetPortSchedIntf
                0x00000000000941d0                Amethyst_gsysSetQoSWeightIntf
                0x00000000000942d0                Amethyst_gsysGetQoSWeightIntf
                0x00000000000943d0                Amethyst_gphySetPortSpeedIntf
                0x00000000000943e0                Amethyst_gphySetPortAutoModeIntf
                0x00000000000943f0                Amethyst_gtcamRCLoadEntryIntf
                0x0000000000094510                Amethyst_gtcamRCReadEntryIntf
                0x0000000000094660                Amethyst_gtcamRCGetNextEntryIntf
                0x00000000000947b0                Amethyst_gtcamRCFindEntryIntf
                0x0000000000094930                Amethyst_impRunIntf
                0x0000000000094940                Amethyst_impResetIntf
                0x0000000000094950                Amethyst_impLoadToRAMIntf
                0x0000000000094960                Amethyst_impStopIntf
                0x0000000000094970                Amethyst_msdRmuGetIDIntf
                0x0000000000094980                Amethyst_msdRmuAtuDumpIntf
                0x0000000000094ae0                Amethyst_msdRmuEcidDumpIntf
                0x0000000000094c30                Amethyst_msdRmuMib2DumpIntf
                0x0000000000094e30                Amethyst_msdRmuReadRegisterIntf
                0x0000000000094e40                Amethyst_msdRmuWriteRegisterIntf
                0x0000000000094e60                Amethyst_msdRmuMultiRegAccessIntf
                0x0000000000094e70                Amethyst_msdRmuTCAMDumpIntf
                0x0000000000095170                Amethyst_msdRmuTCAMWriteIntf
                0x0000000000095340                Amethyst_msdRmuTCAMReadIntf
                0x0000000000096060                Amethyst_gptpSetIntEnable
                0x0000000000096150                Amethyst_gptpGetIntEnable
                0x0000000000096200                Amethyst_gptpSetProtPTPEn
                0x00000000000962d0                Amethyst_gptpGetProtPTPEn
                0x0000000000096370                Amethyst_gptpSetPortConfig
                0x00000000000965c0                Amethyst_gptpGetPortConfig
                0x0000000000096810                Amethyst_gptpGetTimeStamp
                0x0000000000096910                Amethyst_gptpGetTSValidSt
                0x00000000000969d0                Amethyst_gptpResetTimeStamp
                0x0000000000096a90                Amethyst_gptpSetGlobalConfig
                0x0000000000096b50                Amethyst_gptpGetGlobalConfig
                0x0000000000096c10                Amethyst_gptpGetIntStatus
                0x0000000000096c90                Amethyst_gptpSetMeanPathDelay
                0x0000000000096d20                Amethyst_gptpGetMeanPathDelay
                0x0000000000096dc0                Amethyst_gptpSetIgrPathDelayAsym
                0x0000000000096e50                Amethyst_gptpGetIgrPathDelayAsym
                0x0000000000096ef0                Amethyst_gptpSetEgrPathDelayAsym
                0x0000000000096f80                Amethyst_gptpGetEgrPathDelayAsym
                0x0000000000097020                Amethyst_gptpSetMode
                0x00000000000970d0                Amethyst_gptpGetMode
                0x0000000000097140                Amethyst_gptpSetMasterSlave
                0x00000000000971f0                Amethyst_gptpGetMasterSlave
                0x0000000000097250                Amethyst_gptpGetTODBusyBitStatus
                0x00000000000972d0                Amethyst_gptpTODStoreCompensation
                0x0000000000097390                Amethyst_gptpTODStoreAll
                0x0000000000097450                Amethyst_gptpTODCaptureAll
                0x0000000000097720                Amethyst_gptpSetPulse
                0x00000000000977d0                Amethyst_gptpGetPulse
                0x0000000000097870                Amethyst_gtaiGetPTPGlobalTime
                0x00000000000978f0                Amethyst_gptpSetIntEnableIntf
                0x0000000000097950                Amethyst_gptpGetIntEnableIntf
                0x00000000000979b0                Amethyst_gptpSetPortConfigIntf
                0x0000000000097a30                Amethyst_gptpGetPortConfigIntf
                0x0000000000097ac0                Amethyst_gptpGetTimeStampIntf
                0x0000000000097b30                Amethyst_gptpSetGlobalConfigIntf
                0x0000000000097b90                Amethyst_gptpGetGlobalConfigIntf
                0x0000000000097c00                Amethyst_gptpGetIntStatusIntf
                0x0000000000097c70                Amethyst_gptpSetModeIntf
                0x0000000000097cd0                Amethyst_gptpGetModeIntf
                0x0000000000097d30                Amethyst_gptpSetMasterSlaveIntf
                0x0000000000097d40                Amethyst_gptpGetMasterSlaveIntf
                0x0000000000097d50                Amethyst_gptpTODStoreCompensationIntf
                0x0000000000097dd0                Amethyst_gptpTODStoreAllIntf
                0x0000000000097e50                Amethyst_gptpTODCaptureAllIntf
                0x0000000000097ee0                Amethyst_gptpSetPulseIntf
                0x0000000000097f40                Amethyst_gptpGetPulseIntf
                0x0000000000098210                Amethyst_gledForceOn
                0x00000000000982c0                Amethyst_gledForceOff
                0x0000000000098380                Amethyst_gledLinkAct
                0x0000000000098470                Amethyst_gledModeSet
                0x0000000000098540                Amethyst_gledModeGet
                0x00000000000985e0                Amethyst_gledBlinkRateSet
                0x0000000000098690                Amethyst_gledBlinkRateGet
                0x0000000000098770                Amethyst_gledPulseStretchSet
                0x0000000000098820                Amethyst_gledPulseStretchGet
                0x00000000000988f0                Amethyst_gledSpecialModeSet
                0x00000000000989a0                Amethyst_gledSpecialModeGet
                0x0000000000098a10                Amethyst_gledCtrlSet
                0x0000000000098a50                Amethyst_gledCtrlGet
                0x0000000000098a80                Amethyst_gledDump
                0x0000000000098d10                Amethyst_gledForceOnIntf
                0x0000000000098d20                Amethyst_gledForceOffIntf
                0x0000000000098d30                Amethyst_gledLinkActIntf
                0x0000000000098d40                Amethyst_gledModeSetIntf
                0x0000000000098d50                Amethyst_gledModeGetIntf
                0x0000000000098d60                Amethyst_gledBlinkRateSetIntf
                0x0000000000098d70                Amethyst_gledBlinkRateGetIntf
                0x0000000000098d80                Amethyst_gledPulseStretchSetIntf
                0x0000000000098d90                Amethyst_gledPulseStretchGetIntf
                0x0000000000098da0                Amethyst_gledSpecialModeSetIntf
                0x0000000000098db0                Amethyst_gledSpecialModeGetIntf
                0x0000000000098dc0                Amethyst_gledCtrlSetIntf
                0x0000000000098dd0                Amethyst_gledCtrlGetIntf
                0x0000000000098de0                Amethyst_gtcamRCCompLoadIntf
                0x0000000000098ec0                Amethyst_gtcamRCCompReadIntf
                0x0000000000098fb0                Amethyst_EEPROMWrite
                0x00000000000990f0                Amethyst_EEPROMRead
                0x0000000000099270                Amethyst_EEPROMChipSelSet
                0x0000000000099350                Amethyst_EEPROMChipSelGet
                0x0000000000099490                Amethyst_EEPROMWriteIntf
                0x00000000000994a0                Amethyst_EEPROMReadIntf
                0x00000000000994b0                Amethyst_EEPROMChipSelSetIntf
                0x00000000000994c0                Amethyst_EEPROMChipSelGetIntf
 *fill*         0x00000000000994c9        0x7 
 .text          0x00000000000994d0    0x25799 /home/roscube/Desktop/UMSD_v7.0.0_comb/UMSD_v7.0.0/obj/dev/oak/msdDrv_Oak.o
                0x00000000000994d0                Oak_msdSetSMIC45PhyReg
                0x0000000000099770                Oak_msdGetSMIC45PhyReg
                0x0000000000099a30                Oak_msdSetSMIPhyReg
                0x0000000000099bb0                Oak_msdGetSMIPhyReg
                0x0000000000099dc0                Oak_msdSetSMIPhyRegField
                0x0000000000099eb0                Oak_msdGetSMIPhyRegField
                0x0000000000099f50                Oak_msdSetPagedPhyRegField
                0x0000000000099fd0                Oak_msdGetPagedPhyRegField
                0x000000000009a0a0                Oak_msdWritePagedPhyReg
                0x000000000009a100                Oak_msdReadPagedPhyReg
                0x000000000009a160                Oak_msdSetSMIPhyXMDIOReg
                0x000000000009a270                Oak_msdGetSMIPhyXMDIOReg
                0x000000000009a3b0                Oak_msdPhyReset
                0x000000000009a570                Oak_msdDirectSetMultiChipReg
                0x000000000009a590                Oak_msdDirectGetMultiChipReg
                0x000000000009a5b0                Oak_msdDirectSetMultiChipRegField
                0x000000000009a680                Oak_msdDirectGetMultiChipRegField
                0x000000000009a720                Oak_msdDirectSetMultiChipExtendedReg
                0x000000000009a770                Oak_msdDirectGetMultiChipExtendedReg
                0x000000000009a7f0                Oak_msdDirectSetMultiChipExtendedRegField
                0x000000000009a8c0                Oak_msdDirectGetMultiChipExtendedRegField
                0x000000000009a950                Oak_msdSetSMIExtPhyReg
                0x000000000009aad0                Oak_msdGetSMIExtPhyReg
                0x000000000009ace0                Oak_msdWritePagedExtPhyReg
                0x000000000009ad40                Oak_msdReadPagedExtPhyReg
                0x000000000009ada0                Oak_msdSetSMIExtPhyXMDIOReg
                0x000000000009ae90                Oak_msdGetSMIExtPhyXMDIOReg
                0x000000000009c7d0                Oak_gtcamFlushAll
                0x000000000009c820                Oak_gtcamFlushEntry
                0x000000000009c880                Oak_gtcamLoadEntry
                0x000000000009c910                Oak_gtcamReadTCAMData
                0x000000000009c990                Oak_gtcamGetNextTCAMData
                0x000000000009ca30                Oak_gtcamFindEntry
                0x000000000009cb00                Oak_gtcamSetMode
                0x000000000009cb60                Oak_gtcamGetMode
                0x000000000009cbf0                Oak_gtcamAddEntryPort
                0x000000000009cce0                Oak_gtcamRemoveEntryPort
                0x000000000009cde0                Oak_gtcamEgrFlushEntry
                0x000000000009ce60                Oak_gtcamEgrFlushEntryAllPorts
                0x000000000009cec0                Oak_gtcamEgrLoadEntry
                0x000000000009d090                Oak_gtcamEgrGetNextTCAMData
                0x000000000009d160                Oak_gtcamEgrReadTCAMData
                0x000000000009d220                Oak_gtcamDump
                0x000000000009d8a0                Oak_gtcamAdvConfig
                0x000000000009eb40                Oak_gtcamRCFlushAllEntry
                0x000000000009ec00                Oak_gtcamRCFlushEntry
                0x000000000009ece0                Oak_gtcamRCLoadEntry
                0x000000000009efc0                Oak_gtcamRCReadEntry
                0x000000000009f0c0                Oak_gtcamRCGetNextEntry
                0x000000000009f200                Oak_gtcamRCFindEntry
                0x000000000009f350                Oak_gtcamRCEntryDump
                0x000000000009fd00                Oak_gtcamRCCompFlushAll
                0x000000000009fdc0                Oak_gtcamRCCompFlushPort
                0x000000000009fea0                Oak_gtcamRCCompLoad
                0x00000000000a0100                Oak_gtcamRCCompRead
                0x00000000000a1530                Oak_gfdbGetAtuEntryNext
                0x00000000000a1550                Oak_gfdbFlush
                0x00000000000a15c0                Oak_gfdbFlushInDB
                0x00000000000a1640                Oak_gfdbMove
                0x00000000000a1730                Oak_gfdbMoveInDB
                0x00000000000a1820                Oak_gfdbAddMacEntry
                0x00000000000a18f0                Oak_gfdbDelAtuEntry
                0x00000000000a1980                Oak_gfdbGetViolation
                0x00000000000a1ab0                Oak_gfdbFindAtuMacEntry
                0x00000000000a1be0                Oak_gfdbSetAgingTimeout
                0x00000000000a1c60                Oak_gfdbGetAgingTimeout
                0x00000000000a1cf0                Oak_gfdbGetLearn2All
                0x00000000000a1d90                Oak_gfdbSetLearn2All
                0x00000000000a1de0                Oak_gfdbSetPortLearnLimit
                0x00000000000a1f50                Oak_gfdbGetPortLearnLimit
                0x00000000000a2060                Oak_gfdbGetPortLearnCount
                0x00000000000a2120                Oak_gfdbGetEntryCount
                0x00000000000a2170                Oak_gfdbGetEntryCountPerFid
                0x00000000000a21c0                Oak_gfdbGetNonStaticEntryCount
                0x00000000000a2210                Oak_gfdbGetNStaticEntryCountFid
                0x00000000000a24c0                Oak_gpolicySetMgmtCtrl
                0x00000000000a24e0                Oak_gpolicyGetMgmtCtrl
                0x00000000000a2500                Oak_gpolicySetCpuDest
                0x00000000000a25c0                Oak_gpolicyGetCpuDest
                0x00000000000a2650                Oak_gpolicySetIgrMonitorDest
                0x00000000000a2710                Oak_gpolicyGetIgrMonitorDest
                0x00000000000a27a0                Oak_gpolicySetRsvd2CpuEnables
                0x00000000000a27f0                Oak_gpolicyGetRsvd2CpuEnables
                0x00000000000a2890                Oak_gpolicySetMGMTPri
                0x00000000000a2930                Oak_gpolicyGetMGMTPri
                0x00000000000a2990                Oak_gpolicySetRouteDest
                0x00000000000a2a50                Oak_gpolicyGetRouteDest
                0x00000000000a2ae0                Oak_gpolicySetMirrorDest
                0x00000000000a2ba0                Oak_gpolicyGetMirrorDest
                0x00000000000a2c30                Oak_gpolicySetIllegalIPAddr
                0x00000000000a2cd0                Oak_gpolicyGetIllegalIPAddr
                0x00000000000a2d30                Oak_gpolicySetDipDaMismatch
                0x00000000000a2dd0                Oak_gpolicyGetDipDaMismatch
                0x00000000000a2e30                Oak_gpolicySetZeroSIP
                0x00000000000a2ed0                Oak_gpolicyGetZeroSIP
                0x00000000000a2f30                Oak_gpolicySetMcTtlExceeded
                0x00000000000a3000                Oak_gpolicyGetMcTtlExceeded
                0x00000000000a30d0                Oak_gpolicySetUcTtlExceeded
                0x00000000000a3190                Oak_gpolicyGetUcTtlExceeded
                0x00000000000a31f0                Oak_gprtSetPortTtlThreshold
                0x00000000000a3280                Oak_gprtGetPortTtlThreshold
                0x00000000000a32e0                Oak_gpolicySetIpHdrErr
                0x00000000000a3380                Oak_gpolicyGetIpHdrErr
                0x00000000000a33e0                Oak_gpolicySetTCPFinUrgPsh
                0x00000000000a3480                Oak_gpolicyGetTCPFinUrgPsh
                0x00000000000a34e0                Oak_gpolicySetTCPFlagsSeqNum
                0x00000000000a3580                Oak_gpolicyGetTCPFlagsSeqNum
                0x00000000000a35e0                Oak_gpolicySetTCPSYN
                0x00000000000a3680                Oak_gpolicyGetTCPSYN
                0x00000000000a36e0                Oak_gpolicySetTCPHSize
                0x00000000000a3780                Oak_gpolicyGetTCPHSize
                0x00000000000a37e0                Oak_gprtSetPortTCPMinHdrSize
                0x00000000000a3870                Oak_gprtGetPortTCPMinHdrSize
                0x00000000000a38d0                Oak_gpolicySetICMPSize
                0x00000000000a3970                Oak_gpolicyGetICMPSize
                0x00000000000a39d0                Oak_gprtSetPortICMPMaxSize
                0x00000000000a3a20                Oak_gprtGetPortICMPMaxSize
                0x00000000000a3ab0                Oak_gpolicySetUDPPort
                0x00000000000a3b50                Oak_gpolicyGetUDPPort
                0x00000000000a3bb0                Oak_gpolicySetTCPPort
                0x00000000000a3c50                Oak_gpolicyGetTCPPort
                0x00000000000a3cb0                Oak_gpolicySetTCPSynFin
                0x00000000000a3d50                Oak_gpolicyGetTCPSynFin
                0x00000000000a3db0                Oak_gpolicySetTCPFrag
                0x00000000000a3e50                Oak_gpolicyGetTCPFrag
                0x00000000000a3eb0                Oak_gpolicySetNearNonTPMR
                0x00000000000a3f50                Oak_gpolicyGetNearNonTPMR
                0x00000000000a3fb0                Oak_gpolicySetETag
                0x00000000000a4050                Oak_gpolicyGetETag
                0x00000000000a40b0                Oak_gpolicySetNonETag
                0x00000000000a4150                Oak_gpolicyGetNonETag
                0x00000000000a41b0                Oak_gpolicyDump
                0x00000000000a8ef0                Oak_gvtuGetEntryNext
                0x00000000000a9060                Oak_gvtuFindVidEntry
                0x00000000000a9220                Oak_gvtuFlush
                0x00000000000a9240                Oak_gvtuAddEntry
                0x00000000000a9390                Oak_gvtuDelEntry
                0x00000000000a9410                Oak_gvtuSetMode
                0x00000000000a9590                Oak_gvtuGetMode
                0x00000000000a9730                Oak_gvtuGetViolation_MultiChip
                0x00000000000a9840                Oak_gvtuGetViolation
                0x00000000000a99b0                Oak_gvtuDump
                0x00000000000aa150                Oak_garpLoadMcEntry
                0x00000000000aa270                Oak_garpLoadUcEntry
                0x00000000000aa330                Oak_garpFlushEntry
                0x00000000000aa390                Oak_garpFlushAll
                0x00000000000aa3e0                Oak_garpReadEntry
                0x00000000000aa460                Oak_garpGetNextEntry
                0x00000000000aa920                Oak_gstuGetEntryNext
                0x00000000000aaa20                Oak_gstuAddEntry
                0x00000000000aaaf0                Oak_gstuDelEntry
                0x00000000000aab50                Oak_gstuFindSidEntry
                0x00000000000aac60                Oak_gstuDump
                0x00000000000ab1e0                Oak_gpirlInitialize
                0x00000000000ab200                Oak_gpirlInitResource
                0x00000000000ab280                Oak_gpirlCustomSetup_sr2c
                0x00000000000ab470                Oak_gpirlReadResource
                0x00000000000ab640                Oak_gpirlWriteResource
                0x00000000000ab7e0                Oak_gpirlGetResReg
                0x00000000000ab880                Oak_gpirlSetResReg
                0x00000000000abf60                Oak_gstatsFlushAll
                0x00000000000abf80                Oak_gstatsFlushPort
                0x00000000000abfc0                Oak_gstatsGetPortCounter
                0x00000000000ac020                Oak_gstatsGetPortAllCounters
                0x00000000000ac070                Oak_gstatsGetHistogramMode
                0x00000000000ac130                Oak_gstatsSetHistogramMode
                0x00000000000ac170                Oak_gmibDump
                0x00000000000acc90                Oak_gvlnSetPortVid
                0x00000000000accf0                Oak_gvlnGetPortVid
                0x00000000000acd80                Oak_gprtSetForceDefaultVid
                0x00000000000acde0                Oak_gprtGetForceDefaultVid
                0x00000000000ace80                Oak_gvlnSetPortVlanDot1qMode
                0x00000000000acee0                Oak_gvlnGetPortVlanDot1qMode
                0x00000000000acf70                Oak_gprtSetDiscardTagged
                0x00000000000acfd0                Oak_gprtGetDiscardTagged
                0x00000000000ad070                Oak_gprtSetDiscardUntagged
                0x00000000000ad0d0                Oak_gprtGetDiscardUntagged
                0x00000000000ad170                Oak_gprtSetUnicastFloodBlock
                0x00000000000ad1d0                Oak_gprtGetUnicastFloodBlock
                0x00000000000ad270                Oak_gprtSetMulticastFloodBlock
                0x00000000000ad2d0                Oak_gprtGetMulticastFloodBlock
                0x00000000000ad370                Oak_gprtSetDiscardBCastMode
                0x00000000000ad3d0                Oak_gprtGetDiscardBCastMode
                0x00000000000ad470                Oak_gprtSetIGMPSnoopEnable
                0x00000000000ad4d0                Oak_gprtGetIGMPSnoopEnable
                0x00000000000ad570                Oak_gprtGetHeaderMode
                0x00000000000ad610                Oak_gprtSetHeaderMode
                0x00000000000ad670                Oak_gprtGetDropOnLock
                0x00000000000ad710                Oak_gprtSetDropOnLock
                0x00000000000ad770                Oak_gprtSetJumboMode
                0x00000000000ad7e0                Oak_gprtGetJumboMode
                0x00000000000ad870                Oak_gprtSetSpecifiedMTU
                0x00000000000ad8f0                Oak_gprtGetSpecifiedMTU
                0x00000000000ad980                Oak_gprtSetLearnEnable
                0x00000000000ada80                Oak_gprtGetLearnEnable
                0x00000000000adb10                Oak_gprtGetVTUPriorityOverride
                0x00000000000adba0                Oak_gprtSetVTUPriorityOverride
                0x00000000000adc00                Oak_gprtGetSAPriorityOverride
                0x00000000000adc90                Oak_gprtSetSAPriorityOverride
                0x00000000000adcf0                Oak_gprtGetDAPriorityOverride
                0x00000000000add80                Oak_gprtSetDAPriorityOverride
                0x00000000000adde0                Oak_gprtGetMessagePort
                0x00000000000ade80                Oak_gprtSetMessagePort
                0x00000000000adee0                Oak_gprtGetEtherType
                0x00000000000adf00                Oak_gprtSetEtherType
                0x00000000000adf20                Oak_gprtGetAllowVidZero
                0x00000000000adfc0                Oak_gprtSetAllowVidZero
                0x00000000000ae020                Oak_gprtSetTrunkPort
                0x00000000000ae0e0                Oak_gprtGetTrunkPort
                0x00000000000ae1c0                Oak_gprtSetFlowCtrl
                0x00000000000ae270                Oak_gprtGetFlowCtrl
                0x00000000000ae2e0                Oak_gprtSetEgressMonitorSource
                0x00000000000ae340                Oak_gprtGetEgressMonitorSource
                0x00000000000ae3e0                Oak_gprtSetIngressMonitorSource
                0x00000000000ae440                Oak_gprtGetIngressMonitorSource
                0x00000000000ae4e0                Oak_grcSetEgressRate
                0x00000000000ae710                Oak_grcSetELimitMode
                0x00000000000ae770                Oak_grcGetELimitMode
                0x00000000000ae800                Oak_grcGetEgressRate
                0x00000000000ae940                Oak_gprtSetDuplex
                0x00000000000ae9b0                Oak_gprtGetDuplex
                0x00000000000aea80                Oak_gprtGetDuplexStatus
                0x00000000000aeb10                Oak_gprtGetForceLink
                0x00000000000aebe0                Oak_gprtSetForceLink
                0x00000000000aec50                Oak_gprtGetLinkState
                0x00000000000aece0                Oak_gprtSetForceSpeed
                0x00000000000aef80                Oak_gprtGetForceSpeed
                0x00000000000af120                Oak_gprtGetSpeed
                0x00000000000af250                Oak_gprtGetVlanPorts
                0x00000000000af330                Oak_gprtSetVlanPorts
                0x00000000000af470                Oak_gprtGetFrameMode
                0x00000000000af500                Oak_gprtSetFrameMode
                0x00000000000af560                Oak_gprtSetPortECID
                0x00000000000af600                Oak_gprtGetPortECID
                0x00000000000af660                Oak_gprtSetIgnoreETag
                0x00000000000af6f0                Oak_gprtGetIgnoreETag
                0x00000000000af750                Oak_gprtSetEgressMode
                0x00000000000af7b0                Oak_gprtGetEgressMode
                0x00000000000af840                Oak_gprtSetExtendedPortCtrlReg
                0x00000000000af920                Oak_gprtGetExtendedPortCtrlReg
                0x00000000000af9c0                Oak_gprtGetPortState
                0x00000000000afa50                Oak_gprtSetPortState
                0x00000000000afab0                Oak_gprtSetIgnoreFcs
                0x00000000000afb10                Oak_gprtGetIgnoreFcs
                0x00000000000afbb0                Oak_gprtSetAllowBadFcs
                0x00000000000afc10                Oak_gprtGetAllowBadFcs
                0x00000000000afcb0                Oak_gprtSetPauseLimitOut
                0x00000000000afd00                Oak_gprtGetPauseLimitOut
                0x00000000000afd50                Oak_gprtSetPauseLimitIn
                0x00000000000afd90                Oak_gprtGetPauseLimitIn
                0x00000000000afde0                Oak_gprtSetQueueToPause
                0x00000000000afe30                Oak_gprtGetQueueToPause
                0x00000000000afe80                Oak_gprtSetRxPriFlowCtrlEnable
                0x00000000000aff70                Oak_gprtGetRxPriFlowCtrlEnable
                0x00000000000b0020                Oak_gprtSetRxPriFlowCtrlToQueue
                0x00000000000b0110                Oak_gprtGetRxPriFlowCtrlToQueue
                0x00000000000b01b0                Oak_gprtSetTxPriFlowCtrlEnable
                0x00000000000b02a0                Oak_gprtGetTxPriFlowCtrlEnable
                0x00000000000b0350                Oak_gprtGetOutQueueSize
                0x00000000000b03e0                Oak_gprtSetMapDA
                0x00000000000b0440                Oak_gprtGetMapDA
                0x00000000000b04e0                Oak_gprtSetPortLocked
                0x00000000000b0540                Oak_gprtGetPortLocked
                0x00000000000b05e0                Oak_gprtSetHoldAt1
                0x00000000000b0640                Oak_gprtGetHoldAt1
                0x00000000000b06e0                Oak_gprtSetInt0nAgeOut
                0x00000000000b0740                Oak_gprtGetInt0nAgeOut
                0x00000000000b07e0                Oak_gprtSetRefreshLocked
                0x00000000000b0840                Oak_gprtGetRefreshLocked
                0x00000000000b08e0                Oak_gprtSetIgnoreWrongData
                0x00000000000b0940                Oak_gprtGetIgnoreWrongData
                0x00000000000b09e0                Oak_gprtSetARPMirror
                0x00000000000b0a40                Oak_gprtGetARPMirror
                0x00000000000b0ae0                Oak_gprtSetPreemptSize
                0x00000000000b0b40                Oak_gprtGetPreemptSize
                0x00000000000b0be0                Oak_gprtSetPreemptEnable
                0x00000000000b0c40                Oak_gprtGetPreemptEnable
                0x00000000000b0ce0                Oak_gprtSetPreemptQueue
                0x00000000000b0d40                Oak_gprtGetPreemptQueue
                0x00000000000b0de0                Oak_gprtRegDump
                0x00000000000b1950                Oak_gBpeEnableSet
                0x00000000000b1aa0                Oak_gBpeEnableGet
                0x00000000000b1b40                Oak_gecidAddEntry
                0x00000000000b1b80                Oak_gecidFlushAll
                0x00000000000b1bf0                Oak_gecidMove
                0x00000000000b1cb0                Oak_gecidFlushEntry
                0x00000000000b1d40                Oak_gecidGetEcidEntryNext
                0x00000000000b1dc0                Oak_gecidFindEcidEntry
                0x00000000000b1ec0                Oak_gecidGetEntryCount
                0x00000000000b21b0                Oak_gecidDump
                0x00000000000b2320                Oak_gqosSetPrioMapRule
                0x00000000000b2380                Oak_gqosGetPrioMapRule
                0x00000000000b2420                Oak_gprtSetInitialPri
                0x00000000000b2490                Oak_gprtGetInitialPri
                0x00000000000b2560                Oak_gprtSetDefQpri
                0x00000000000b25c0                Oak_gprtGetDefQpri
                0x00000000000b2660                Oak_gprtSetIEEEPrioMap
                0x00000000000b2870                Oak_gprtGetIEEEPrioMap
                0x00000000000b2a90                Oak_gprtRewriteDscp
                0x00000000000b2af0                Oak_gprtSetCosToQueue
                0x00000000000b2b80                Oak_gprtGetCosToQueue
                0x00000000000b2be0                Oak_gprtSetCosToDscp
                0x00000000000b2c70                Oak_gprtGetCosToDscp
                0x00000000000b2cd0                Oak_gprtSetDefFpri
                0x00000000000b2d30                Oak_gprtGetDefFpri
                0x00000000000b2dd0                Oak_gprtSetQueueCtrl
                0x00000000000b2ee0                Oak_gprtGetQueueCtrl
                0x00000000000b3020                Oak_gprtSetPortSched
                0x00000000000b3070                Oak_gprtGetPortSched
                0x00000000000b3180                Oak_gsysSetQoSWeight
                0x00000000000b33c0                Oak_gsysGetQoSWeight
                0x00000000000b3610                Oak_gsysSetTrunkMaskTable
                0x00000000000b3750                Oak_gsysGetTrunkMaskTable
                0x00000000000b38e0                Oak_gsysSetHashTrunk
                0x00000000000b3910                Oak_gsysGetHashTrunk
                0x00000000000b3980                Oak_gsysSetTrunkRouting
                0x00000000000b3ae0                Oak_gsysGetTrunkRouting
                0x00000000000b3ca0                Oak_gsysSetFloodBC
                0x00000000000b3cd0                Oak_gsysGetFloodBC
                0x00000000000b3d40                Oak_gsysSetEgressMonitorDest
                0x00000000000b3d90                Oak_gsysGetEgressMonitorDest
                0x00000000000b3e30                Oak_gsysSetSMISetup
                0x00000000000b4010                Oak_gsysGetSMISetup
                0x00000000000b41f0                Oak_gsysGlobal1RegDump
                0x00000000000b42c0                Oak_gsysGlobal2RegDump
                0x00000000000b4390                Oak_gsysSetRMUMode
                0x00000000000b4420                Oak_gsysGetRMUMode
                0x00000000000b4480                Oak_gsysQbvWrite
                0x00000000000b4550                Oak_gsysQbvRead
                0x00000000000b4630                Oak_gsysDevIntEnableSet
                0x00000000000b4660                Oak_gsysDevIntEnableGet
                0x00000000000b46e0                Oak_gsysDevIntStatusGet
                0x00000000000b4750                Oak_gsysActiveIntEnableSet
                0x00000000000b47e0                Oak_gsysActiveIntEnableGet
                0x00000000000b4840                Oak_gsysActiveIntStatusGet
                0x00000000000b48a0                Oak_serdesReset
                0x00000000000b5140                Oak_msdRmuGetID
                0x00000000000b5270                Oak_msdRmuAtuDump
                0x00000000000b5490                Oak_msdRmuEcidDump
                0x00000000000b56e0                Oak_msdRmuMib2Dump
                0x00000000000b5b10                Oak_msdRmuReadRegister
                0x00000000000b5b40                Oak_msdRmuWriteRegister
                0x00000000000b5b60                Oak_msdRmuMultiRegAccess
                0x00000000000b5d50                Oak_msdRmuTCAMDump
                0x00000000000b5ec0                Oak_msdRmuTCAMWrite
                0x00000000000b6070                Oak_msdRmuTCAMRead
                0x00000000000b6220                Oak_msdRmuRegDump
                0x00000000000b62f0                Oak_gtcamLoadEntryIntf
                0x00000000000b64c0                Oak_gtcamReadTCAMDataIntf
                0x00000000000b66b0                Oak_gtcamGetNextTCAMDataIntf
                0x00000000000b68a0                Oak_gtcamFindEntryIntf
                0x00000000000b6ad0                Oak_gtcamSetModeIntf
                0x00000000000b6ae0                Oak_gtcamGetModeIntf
                0x00000000000b6b40                Oak_gtcamEgrFlushEntryIntf
                0x00000000000b6b50                Oak_gtcamEgrFlushAllPortsIntf
                0x00000000000b6b60                Oak_gtcamEgrLoadEntryIntf
                0x00000000000b6c20                Oak_gtcamEgrGetNextTCAMDataIntf
                0x00000000000b6d00                Oak_gtcamEgrReadTCAMDataIntf
                0x00000000000b6de0                Oak_gtcamAdvConfigIntf
                0x00000000000b6fa0                Oak_gfdbAddMacEntryIntf
                0x00000000000b7020                Oak_gfdbGetAtuEntryNextIntf
                0x00000000000b7100                Oak_gfdbFlushIntf
                0x00000000000b7110                Oak_gfdbFlushInDBIntf
                0x00000000000b7120                Oak_gfdbMoveIntf
                0x00000000000b7130                Oak_gfdbMoveInDBIntf
                0x00000000000b7140                Oak_gfdbPortRemoveIntf
                0x00000000000b7170                Oak_gfdbPortRemoveInDBIntf
                0x00000000000b71a0                Oak_gfdbGetViolationIntf
                0x00000000000b7280                Oak_gfdbFindAtuMacEntryIntf
                0x00000000000b7370                Oak_gfdbDump
                0x00000000000b7520                Oak_gvtuFindVidEntryIntf
                0x00000000000b7690                Oak_gvtuExistVidEntryIntf
                0x00000000000b7730                Oak_gvtuFlushIntf
                0x00000000000b7740                Oak_gvtuAddEntryIntf
                0x00000000000b7860                Oak_gvtuDelEntryIntf
                0x00000000000b78e0                Oak_gvtuSetModeIntf
                0x00000000000b78f0                Oak_gvtuGetModeIntf
                0x00000000000b7900                Oak_gvtuGetViolationIntf
                0x00000000000b79c0                Oak_gvtuGetEntryCountIntf
                0x00000000000b7a70                Oak_gvtuSetMemberTagIntf
                0x00000000000b7b60                Oak_gvtuGetMemberTagIntf
                0x00000000000b7c40                Oak_gvtuGetEntryNextIntf
                0x00000000000b7d70                Oak_gstuAddEntryIntf
                0x00000000000b7e40                Oak_gstuGetEntryNextIntf
                0x00000000000b7ef0                Oak_gstuDelEntryIntf
                0x00000000000b7f50                Oak_gstuFindSidEntryIntf
                0x00000000000b8060                Oak_gstuGetEntryCountIntf
                0x00000000000b8100                Oak_gpirlInitializeIntf
                0x00000000000b8110                Oak_gpirlInitResourceIntf
                0x00000000000b8120                Oak_gpirlCustomSetup_sr2cIntf
                0x00000000000b81e0                Oak_gpirlReadResourceIntf
                0x00000000000b82c0                Oak_gpirlWriteResourceIntf
                0x00000000000b8380                Oak_gpirlGetResRegIntf
                0x00000000000b8390                Oak_gpirlSetResRegIntf
                0x00000000000b83a0                Oak_gpirlAdvConfigIntf
                0x00000000000b84a0                Oak_gpirlAdvConfigDisableIntf
                0x00000000000b88d0                Oak_gqavSetPortQpriXRate
                0x00000000000b8a00                Oak_gqavGetPortQpriXRate
                0x00000000000b8ae0                Oak_gqavSetPortQpriXHiLimit
                0x00000000000b8bb0                Oak_gqavGetPortQpriXHiLimit
                0x00000000000b8c60                Oak_garpLoadMcEntryIntf
                0x00000000000b8cc0                Oak_garpLoadUcEntryIntf
                0x00000000000b8d20                Oak_garpReadEntryIntf
                0x00000000000b8db0                Oak_garpGetNextEntryIntf
                0x00000000000b8e40                Oak_gstatsGetPortCounterIntf
                0x00000000000b8e50                Oak_gstatsGetPortAllCntersIntf
                0x00000000000b9060                Oak_gstatsGetHistogramModeIntf
                0x00000000000b9070                Oak_gstatsSetHistogramModeIntf
                0x00000000000b9080                Oak_gvlnSetPortVlanQModeIntf
                0x00000000000b9090                Oak_gvlnGetPortVlanQModeIntf
                0x00000000000b90a0                Oak_gprtSetDiscardTaggedIntf
                0x00000000000b90b0                Oak_gprtGetDiscardTaggedIntf
                0x00000000000b90c0                Oak_gprtSetDiscardUntaggedIntf
                0x00000000000b90d0                Oak_gprtGetDiscardUntaggedIntf
                0x00000000000b90e0                Oak_gprtSetUnicFloodBlockIntf
                0x00000000000b90f0                Oak_gprtGetUnicFloodBlockIntf
                0x00000000000b9100                Oak_gprtSetMultiFloodBlockIntf
                0x00000000000b9110                Oak_gprtGetMultiFloodBlockIntf
                0x00000000000b9120                Oak_gprtSetDiscardBCastModeIntf
                0x00000000000b9130                Oak_gprtGetDiscardBCastModeIntf
                0x00000000000b9140                Oak_gprtSetJumboModeIntf
                0x00000000000b9150                Oak_gprtGetJumboModeIntf
                0x00000000000b9160                Oak_gprtSetSpecifiedMTUIntf
                0x00000000000b9170                Oak_gprtGetSpecifiedMTUIntf
                0x00000000000b9180                Oak_gprtSetLearnEnableIntf
                0x00000000000b9190                Oak_gprtGetLearnEnableIntf
                0x00000000000b91a0                Oak_gprtGetVTUPriOverrideIntf
                0x00000000000b91b0                Oak_gprtSetVTUPriOverrideIntf
                0x00000000000b91c0                Oak_gprtGetSAPriOverrideIntf
                0x00000000000b91d0                Oak_gprtSetSAPriOverrideIntf
                0x00000000000b91e0                Oak_gprtGetDAPriOverrideIntf
                0x00000000000b91f0                Oak_gprtSetDAPriOverrideIntf
                0x00000000000b9200                Oak_gprtSetFlowCtrlIntf
                0x00000000000b9210                Oak_gprtGetFlowCtrlIntf
                0x00000000000b9220                Oak_gprtSetForceSpeedIntf
                0x00000000000b9240                Oak_gprtGetForceSpeedIntf
                0x00000000000b9250                Oak_grcSetEgressRateIntf
                0x00000000000b9260                Oak_grcGetEgressRateIntf
                0x00000000000b9270                Oak_grcSetELimitModeIntf
                0x00000000000b9280                Oak_grcGetELimitModeIntf
                0x00000000000b9290                Oak_gprtSetDuplexIntf
                0x00000000000b92a0                Oak_gprtGetDuplexIntf
                0x00000000000b92b0                Oak_gprtGetDuplexStatusIntf
                0x00000000000b92c0                Oak_gprtGetForceLinkIntf
                0x00000000000b92d0                Oak_gprtSetForceLinkIntf
                0x00000000000b92e0                Oak_gprtGetSpeedIntf
                0x00000000000b92f0                Oak_gprtGetFrameModeIntf
                0x00000000000b9300                Oak_gprtSetFrameModeIntf
                0x00000000000b9310                Oak_gprtSetEgressModeIntf
                0x00000000000b9330                Oak_gprtGetEgressModeIntf
                0x00000000000b9340                Oak_gprtGetPortStateIntf
                0x00000000000b9350                Oak_gprtSetPortStateIntf
                0x00000000000b9360                Oak_gqosSetPrioMapRuleIntf
                0x00000000000b9370                Oak_gqosGetPrioMapRuleIntf
                0x00000000000b9380                Oak_gprtSetInitialPriIntf
                0x00000000000b9390                Oak_gprtGetInitialPriIntf
                0x00000000000b93a0                Oak_gprtSetDefQpriIntf
                0x00000000000b93b0                Oak_gprtGetDefQpriIntf
                0x00000000000b93c0                Oak_gprtSetIEEEPrioMapIntf
                0x00000000000b9420                Oak_gprtGetIEEEPrioMapIntf
                0x00000000000b94e0                Oak_gecidAddEntryIntf
                0x00000000000b9570                Oak_gecidGetEcidEntryNextIntf
                0x00000000000b9630                Oak_gecidFindEcidEntryIntf
                0x00000000000b9700                Oak_gprtSetQueueCtrlIntf
                0x00000000000b9710                Oak_gprtGetQueueCtrlIntf
                0x00000000000b9720                Oak_gprtSetPortSchedIntf
                0x00000000000b9730                Oak_gprtGetPortSchedIntf
                0x00000000000b9740                Oak_gsysSetQoSWeightIntf
                0x00000000000b9840                Oak_gsysGetQoSWeightIntf
                0x00000000000b9940                Oak_gtcamRCLoadEntryIntf
                0x00000000000b9a60                Oak_gtcamRCReadEntryIntf
                0x00000000000b9bb0                Oak_gtcamRCGetNextEntryIntf
                0x00000000000b9d00                Oak_gtcamRCFindEntryIntf
                0x00000000000b9e80                Oak_msdRmuGetIDIntf
                0x00000000000b9e90                Oak_msdRmuAtuDumpIntf
                0x00000000000b9ff0                Oak_msdRmuEcidDumpIntf
                0x00000000000ba150                Oak_msdRmuMib2DumpIntf
                0x00000000000ba360                Oak_msdRmuReadRegisterIntf
                0x00000000000ba370                Oak_msdRmuWriteRegisterIntf
                0x00000000000ba390                Oak_msdRmuMultiRegAccessIntf
                0x00000000000ba3a0                Oak_msdRmuTCAMDumpIntf
                0x00000000000ba690                Oak_msdRmuTCAMWriteIntf
                0x00000000000ba860                Oak_msdRmuTCAMReadIntf
                0x00000000000bb760                Oak_gptpSetIntEnable
                0x00000000000bb850                Oak_gptpGetIntEnable
                0x00000000000bb900                Oak_gptpSetPortPTPEn
                0x00000000000bb9e0                Oak_gptpGetPortPTPEn
                0x00000000000bba80                Oak_gptpGetTimeStamp
                0x00000000000bbbb0                Oak_gptpGetTSValidSt
                0x00000000000bbc80                Oak_gptpResetTimeStamp
                0x00000000000bbd50                Oak_gptpGetIntStatus
                0x00000000000bbe10                Oak_gptpSetMeanPathDelay
                0x00000000000bbeb0                Oak_gptpGetMeanPathDelay
                0x00000000000bbf50                Oak_gptpSetIgrPathDelayAsym
                0x00000000000bbff0                Oak_gptpGetIgrPathDelayAsym
                0x00000000000bc090                Oak_gptpSetEgrPathDelayAsym
                0x00000000000bc130                Oak_gptpGetEgrPathDelayAsym
                0x00000000000bc1d0                Oak_gptpGetTODBusyBitStatus
                0x00000000000bc250                Oak_gptpTODStoreCompensation
                0x00000000000bc310                Oak_gptpTODStoreAll
                0x00000000000bc3d0                Oak_gptpTODCaptureAll
                0x00000000000bc6a0                Oak_gptpSetPulse
                0x00000000000bc750                Oak_gptpGetPulse
                0x00000000000bc7f0                Oak_gtaiGetPTPGlobalTime
                0x00000000000bc870                Oak_gptpPortRegGet
                0x00000000000bc920                Oak_gptpPortRegSet
                0x00000000000bc9c0                Oak_gptpGlobalRegGet
                0x00000000000bca30                Oak_gptpGlobalRegSet
                0x00000000000bcaa0                Oak_gptp1588v2ConfigSet
                0x00000000000bcc70                Oak_gptp8021asConfigSet
                0x00000000000bce30                Oak_gptp8021asRevConfigSet
                0x00000000000bcff0                Oak_gptpPreemptTimestampSelSet
                0x00000000000bd0d0                Oak_gptpPreemptTimestampSelGet
                0x00000000000bd170                Oak_gptpPreemptCtrlSet
                0x00000000000bd250                Oak_gptpPreemptCtrlGet
                0x00000000000bd2f0                Oak_gptpSetIntEnableIntf
                0x00000000000bd350                Oak_gptpGetIntEnableIntf
                0x00000000000bd3b0                Oak_gptpGetTimeStampIntf
                0x00000000000bd420                Oak_gptpGetIntStatusIntf
                0x00000000000bd490                Oak_gptpTODStoreCompenIntf
                0x00000000000bd510                Oak_gptpTODStoreAllIntf
                0x00000000000bd590                Oak_gptpTODCaptureAllIntf
                0x00000000000bd620                Oak_gptpSetPulseIntf
                0x00000000000bd680                Oak_gptpGetPulseIntf
                0x00000000000bd6e0                Oak_gptp1588v2ConfigSetIntf
                0x00000000000bd6f0                Oak_gptp8021asConfigSetIntf
                0x00000000000bd700                Oak_gptp8021asRevConfigSetIntf
                0x00000000000bd970                Oak_gledForceOn
                0x00000000000bda30                Oak_gledForceOff
                0x00000000000bdaf0                Oak_gledLinkAct
                0x00000000000bdbe0                Oak_gledModeSet
                0x00000000000bdcb0                Oak_gledModeGet
                0x00000000000bdd40                Oak_gledBlinkRateSet
                0x00000000000bddf0                Oak_gledBlinkRateGet
                0x00000000000bded0                Oak_gledPulseStretchSet
                0x00000000000bdf80                Oak_gledPulseStretchGet
                0x00000000000be050                Oak_gledSpecialModeSet
                0x00000000000be100                Oak_gledSpecialModeGet
                0x00000000000be170                Oak_gledCtrlSet
                0x00000000000be1b0                Oak_gledCtrlGet
                0x00000000000be220                Oak_gledDump
                0x00000000000be4f0                Oak_gledForceOnIntf
                0x00000000000be500                Oak_gledForceOffIntf
                0x00000000000be510                Oak_gledLinkActIntf
                0x00000000000be520                Oak_gledModeSetIntf
                0x00000000000be530                Oak_gledModeGetIntf
                0x00000000000be540                Oak_gledBlinkRateSetIntf
                0x00000000000be550                Oak_gledBlinkRateGetIntf
                0x00000000000be560                Oak_gledPulseStretchSetIntf
                0x00000000000be570                Oak_gledPulseStretchGetIntf
                0x00000000000be580                Oak_gledSpecialModeSetIntf
                0x00000000000be590                Oak_gledSpecialModeGetIntf
                0x00000000000be5a0                Oak_gledCtrlSetIntf
                0x00000000000be5b0                Oak_gledCtrlGetIntf
                0x00000000000be5c0                Oak_gtcamRCCompLoadIntf
                0x00000000000be6a0                Oak_gtcamRCCompReadIntf
                0x00000000000be790                Oak_EEPROMWrite
                0x00000000000be8c0                Oak_EEPROMRead
                0x00000000000bea20                Oak_EEPROMChipSelSet
                0x00000000000beaf0                Oak_EEPROMChipSelGet
                0x00000000000bec30                Oak_EEPROMWriteIntf
                0x00000000000bec40                Oak_EEPROMReadIntf
                0x00000000000bec50                Oak_EEPROMChipSelSetIntf
                0x00000000000bec60                Oak_EEPROMChipSelGetIntf
 *fill*         0x00000000000bec69        0x7 
 .text          0x00000000000bec70    0x25799 /home/roscube/Desktop/UMSD_v7.0.0_comb/UMSD_v7.0.0/obj/dev/spruce/msdDrv_Spruce.o
                0x00000000000bec70                Spruce_msdSetSMIC45PhyReg
                0x00000000000bef10                Spruce_msdGetSMIC45PhyReg
                0x00000000000bf1d0                Spruce_msdSetSMIPhyReg
                0x00000000000bf350                Spruce_msdGetSMIPhyReg
                0x00000000000bf560                Spruce_msdSetSMIPhyRegField
                0x00000000000bf650                Spruce_msdGetSMIPhyRegField
                0x00000000000bf6f0                Spruce_msdSetPagedPhyRegField
                0x00000000000bf770                Spruce_msdGetPagedPhyRegField
                0x00000000000bf840                Spruce_msdWritePagedPhyReg
                0x00000000000bf8a0                Spruce_msdReadPagedPhyReg
                0x00000000000bf900                Spruce_msdSetSMIPhyXMDIOReg
                0x00000000000bfa10                Spruce_msdGetSMIPhyXMDIOReg
                0x00000000000bfb50                Spruce_msdPhyReset
                0x00000000000bfd10                Spruce_msdDirectSetMultiChipReg
                0x00000000000bfd30                Spruce_msdDirectGetMultiChipReg
                0x00000000000bfd50                Spruce_msdDirectSetMultiChipRegField
                0x00000000000bfe20                Spruce_msdDirectGetMultiChipRegField
                0x00000000000bfec0                Spruce_msdDirectSetMultiChipExtendedReg
                0x00000000000bff10                Spruce_msdDirectGetMultiChipExtendedReg
                0x00000000000bff90                Spruce_msdDirectSetMultiChipExtendedRegField
                0x00000000000c0060                Spruce_msdDirectGetMultiChipExtendedRegField
                0x00000000000c00f0                Spruce_msdSetSMIExtPhyReg
                0x00000000000c0270                Spruce_msdGetSMIExtPhyReg
                0x00000000000c0480                Spruce_msdWritePagedExtPhyReg
                0x00000000000c04e0                Spruce_msdReadPagedExtPhyReg
                0x00000000000c0540                Spruce_msdSetSMIExtPhyXMDIOReg
                0x00000000000c0630                Spruce_msdGetSMIExtPhyXMDIOReg
                0x00000000000c1f70                Spruce_gtcamFlushAll
                0x00000000000c1fc0                Spruce_gtcamFlushEntry
                0x00000000000c2020                Spruce_gtcamLoadEntry
                0x00000000000c20b0                Spruce_gtcamReadTCAMData
                0x00000000000c2130                Spruce_gtcamGetNextTCAMData
                0x00000000000c21d0                Spruce_gtcamFindEntry
                0x00000000000c22a0                Spruce_gtcamSetMode
                0x00000000000c2300                Spruce_gtcamGetMode
                0x00000000000c2390                Spruce_gtcamAddEntryPort
                0x00000000000c2480                Spruce_gtcamRemoveEntryPort
                0x00000000000c2580                Spruce_gtcamEgrFlushEntry
                0x00000000000c2600                Spruce_gtcamEgrFlushEntryAllPorts
                0x00000000000c2660                Spruce_gtcamEgrLoadEntry
                0x00000000000c2830                Spruce_gtcamEgrGetNextTCAMData
                0x00000000000c2900                Spruce_gtcamEgrReadTCAMData
                0x00000000000c29c0                Spruce_gtcamDump
                0x00000000000c3040                Spruce_gtcamAdvConfig
                0x00000000000c42e0                Spruce_gtcamRCFlushAllEntry
                0x00000000000c43a0                Spruce_gtcamRCFlushEntry
                0x00000000000c4480                Spruce_gtcamRCLoadEntry
                0x00000000000c4760                Spruce_gtcamRCReadEntry
                0x00000000000c4860                Spruce_gtcamRCGetNextEntry
                0x00000000000c49a0                Spruce_gtcamRCFindEntry
                0x00000000000c4af0                Spruce_gtcamRCEntryDump
                0x00000000000c54a0                Spruce_gtcamRCCompFlushAll
                0x00000000000c5560                Spruce_gtcamRCCompFlushPort
                0x00000000000c5640                Spruce_gtcamRCCompLoad
                0x00000000000c58a0                Spruce_gtcamRCCompRead
                0x00000000000c6cd0                Spruce_gfdbGetAtuEntryNext
                0x00000000000c6cf0                Spruce_gfdbFlush
                0x00000000000c6d60                Spruce_gfdbFlushInDB
                0x00000000000c6de0                Spruce_gfdbMove
                0x00000000000c6ed0                Spruce_gfdbMoveInDB
                0x00000000000c6fc0                Spruce_gfdbAddMacEntry
                0x00000000000c7090                Spruce_gfdbDelAtuEntry
                0x00000000000c7120                Spruce_gfdbGetViolation
                0x00000000000c7250                Spruce_gfdbFindAtuMacEntry
                0x00000000000c7380                Spruce_gfdbSetAgingTimeout
                0x00000000000c7400                Spruce_gfdbGetAgingTimeout
                0x00000000000c7490                Spruce_gfdbGetLearn2All
                0x00000000000c7530                Spruce_gfdbSetLearn2All
                0x00000000000c7580                Spruce_gfdbSetPortLearnLimit
                0x00000000000c76f0                Spruce_gfdbGetPortLearnLimit
                0x00000000000c7800                Spruce_gfdbGetPortLearnCount
                0x00000000000c78c0                Spruce_gfdbGetEntryCount
                0x00000000000c7910                Spruce_gfdbGetEntryCountPerFid
                0x00000000000c7960                Spruce_gfdbGetNonStaticEntryCount
                0x00000000000c79b0                Spruce_gfdbGetNStaticEntryCountFid
                0x00000000000c7c60                Spruce_gpolicySetMgmtCtrl
                0x00000000000c7c80                Spruce_gpolicyGetMgmtCtrl
                0x00000000000c7ca0                Spruce_gpolicySetCpuDest
                0x00000000000c7d60                Spruce_gpolicyGetCpuDest
                0x00000000000c7df0                Spruce_gpolicySetIgrMonitorDest
                0x00000000000c7eb0                Spruce_gpolicyGetIgrMonitorDest
                0x00000000000c7f40                Spruce_gpolicySetRsvd2CpuEnables
                0x00000000000c7f90                Spruce_gpolicyGetRsvd2CpuEnables
                0x00000000000c8030                Spruce_gpolicySetMGMTPri
                0x00000000000c80d0                Spruce_gpolicyGetMGMTPri
                0x00000000000c8130                Spruce_gpolicySetRouteDest
                0x00000000000c81f0                Spruce_gpolicyGetRouteDest
                0x00000000000c8280                Spruce_gpolicySetMirrorDest
                0x00000000000c8340                Spruce_gpolicyGetMirrorDest
                0x00000000000c83d0                Spruce_gpolicySetIllegalIPAddr
                0x00000000000c8470                Spruce_gpolicyGetIllegalIPAddr
                0x00000000000c84d0                Spruce_gpolicySetDipDaMismatch
                0x00000000000c8570                Spruce_gpolicyGetDipDaMismatch
                0x00000000000c85d0                Spruce_gpolicySetZeroSIP
                0x00000000000c8670                Spruce_gpolicyGetZeroSIP
                0x00000000000c86d0                Spruce_gpolicySetMcTtlExceeded
                0x00000000000c87a0                Spruce_gpolicyGetMcTtlExceeded
                0x00000000000c8870                Spruce_gpolicySetUcTtlExceeded
                0x00000000000c8930                Spruce_gpolicyGetUcTtlExceeded
                0x00000000000c8990                Spruce_gprtSetPortTtlThreshold
                0x00000000000c8a20                Spruce_gprtGetPortTtlThreshold
                0x00000000000c8a80                Spruce_gpolicySetIpHdrErr
                0x00000000000c8b20                Spruce_gpolicyGetIpHdrErr
                0x00000000000c8b80                Spruce_gpolicySetTCPFinUrgPsh
                0x00000000000c8c20                Spruce_gpolicyGetTCPFinUrgPsh
                0x00000000000c8c80                Spruce_gpolicySetTCPFlagsSeqNum
                0x00000000000c8d20                Spruce_gpolicyGetTCPFlagsSeqNum
                0x00000000000c8d80                Spruce_gpolicySetTCPSYN
                0x00000000000c8e20                Spruce_gpolicyGetTCPSYN
                0x00000000000c8e80                Spruce_gpolicySetTCPHSize
                0x00000000000c8f20                Spruce_gpolicyGetTCPHSize
                0x00000000000c8f80                Spruce_gprtSetPortTCPMinHdrSize
                0x00000000000c9010                Spruce_gprtGetPortTCPMinHdrSize
                0x00000000000c9070                Spruce_gpolicySetICMPSize
                0x00000000000c9110                Spruce_gpolicyGetICMPSize
                0x00000000000c9170                Spruce_gprtSetPortICMPMaxSize
                0x00000000000c91c0                Spruce_gprtGetPortICMPMaxSize
                0x00000000000c9250                Spruce_gpolicySetUDPPort
                0x00000000000c92f0                Spruce_gpolicyGetUDPPort
                0x00000000000c9350                Spruce_gpolicySetTCPPort
                0x00000000000c93f0                Spruce_gpolicyGetTCPPort
                0x00000000000c9450                Spruce_gpolicySetTCPSynFin
                0x00000000000c94f0                Spruce_gpolicyGetTCPSynFin
                0x00000000000c9550                Spruce_gpolicySetTCPFrag
                0x00000000000c95f0                Spruce_gpolicyGetTCPFrag
                0x00000000000c9650                Spruce_gpolicySetNearNonTPMR
                0x00000000000c96f0                Spruce_gpolicyGetNearNonTPMR
                0x00000000000c9750                Spruce_gpolicySetETag
                0x00000000000c97f0                Spruce_gpolicyGetETag
                0x00000000000c9850                Spruce_gpolicySetNonETag
                0x00000000000c98f0                Spruce_gpolicyGetNonETag
                0x00000000000c9950                Spruce_gpolicyDump
                0x00000000000ce690                Spruce_gvtuGetEntryNext
                0x00000000000ce800                Spruce_gvtuFindVidEntry
                0x00000000000ce9c0                Spruce_gvtuFlush
                0x00000000000ce9e0                Spruce_gvtuAddEntry
                0x00000000000ceb30                Spruce_gvtuDelEntry
                0x00000000000cebb0                Spruce_gvtuSetMode
                0x00000000000ced30                Spruce_gvtuGetMode
                0x00000000000ceed0                Spruce_gvtuGetViolation_MultiChip
                0x00000000000cefe0                Spruce_gvtuGetViolation
                0x00000000000cf150                Spruce_gvtuDump
                0x00000000000cf8f0                Spruce_garpLoadMcEntry
                0x00000000000cfa10                Spruce_garpLoadUcEntry
                0x00000000000cfad0                Spruce_garpFlushEntry
                0x00000000000cfb30                Spruce_garpFlushAll
                0x00000000000cfb80                Spruce_garpReadEntry
                0x00000000000cfc00                Spruce_garpGetNextEntry
                0x00000000000d00c0                Spruce_gstuGetEntryNext
                0x00000000000d01c0                Spruce_gstuAddEntry
                0x00000000000d0290                Spruce_gstuDelEntry
                0x00000000000d02f0                Spruce_gstuFindSidEntry
                0x00000000000d0400                Spruce_gstuDump
                0x00000000000d0980                Spruce_gpirlInitialize
                0x00000000000d09a0                Spruce_gpirlInitResource
                0x00000000000d0a20                Spruce_gpirlCustomSetup_sr2c
                0x00000000000d0c10                Spruce_gpirlReadResource
                0x00000000000d0de0                Spruce_gpirlWriteResource
                0x00000000000d0f80                Spruce_gpirlGetResReg
                0x00000000000d1020                Spruce_gpirlSetResReg
                0x00000000000d1700                Spruce_gstatsFlushAll
                0x00000000000d1720                Spruce_gstatsFlushPort
                0x00000000000d1760                Spruce_gstatsGetPortCounter
                0x00000000000d17c0                Spruce_gstatsGetPortAllCounters
                0x00000000000d1810                Spruce_gstatsGetHistogramMode
                0x00000000000d18d0                Spruce_gstatsSetHistogramMode
                0x00000000000d1910                Spruce_gmibDump
                0x00000000000d2430                Spruce_gvlnSetPortVid
                0x00000000000d2490                Spruce_gvlnGetPortVid
                0x00000000000d2520                Spruce_gprtSetForceDefaultVid
                0x00000000000d2580                Spruce_gprtGetForceDefaultVid
                0x00000000000d2620                Spruce_gvlnSetPortVlanDot1qMode
                0x00000000000d2680                Spruce_gvlnGetPortVlanDot1qMode
                0x00000000000d2710                Spruce_gprtSetDiscardTagged
                0x00000000000d2770                Spruce_gprtGetDiscardTagged
                0x00000000000d2810                Spruce_gprtSetDiscardUntagged
                0x00000000000d2870                Spruce_gprtGetDiscardUntagged
                0x00000000000d2910                Spruce_gprtSetUnicastFloodBlock
                0x00000000000d2970                Spruce_gprtGetUnicastFloodBlock
                0x00000000000d2a10                Spruce_gprtSetMulticastFloodBlock
                0x00000000000d2a70                Spruce_gprtGetMulticastFloodBlock
                0x00000000000d2b10                Spruce_gprtSetDiscardBCastMode
                0x00000000000d2b70                Spruce_gprtGetDiscardBCastMode
                0x00000000000d2c10                Spruce_gprtSetIGMPSnoopEnable
                0x00000000000d2c70                Spruce_gprtGetIGMPSnoopEnable
                0x00000000000d2d10                Spruce_gprtGetHeaderMode
                0x00000000000d2db0                Spruce_gprtSetHeaderMode
                0x00000000000d2e10                Spruce_gprtGetDropOnLock
                0x00000000000d2eb0                Spruce_gprtSetDropOnLock
                0x00000000000d2f10                Spruce_gprtSetJumboMode
                0x00000000000d2f80                Spruce_gprtGetJumboMode
                0x00000000000d3010                Spruce_gprtSetSpecifiedMTU
                0x00000000000d3090                Spruce_gprtGetSpecifiedMTU
                0x00000000000d3120                Spruce_gprtSetLearnEnable
                0x00000000000d3220                Spruce_gprtGetLearnEnable
                0x00000000000d32b0                Spruce_gprtGetVTUPriorityOverride
                0x00000000000d3340                Spruce_gprtSetVTUPriorityOverride
                0x00000000000d33a0                Spruce_gprtGetSAPriorityOverride
                0x00000000000d3430                Spruce_gprtSetSAPriorityOverride
                0x00000000000d3490                Spruce_gprtGetDAPriorityOverride
                0x00000000000d3520                Spruce_gprtSetDAPriorityOverride
                0x00000000000d3580                Spruce_gprtGetMessagePort
                0x00000000000d3620                Spruce_gprtSetMessagePort
                0x00000000000d3680                Spruce_gprtGetEtherType
                0x00000000000d36a0                Spruce_gprtSetEtherType
                0x00000000000d36c0                Spruce_gprtGetAllowVidZero
                0x00000000000d3760                Spruce_gprtSetAllowVidZero
                0x00000000000d37c0                Spruce_gprtSetTrunkPort
                0x00000000000d3880                Spruce_gprtGetTrunkPort
                0x00000000000d3960                Spruce_gprtSetFlowCtrl
                0x00000000000d3a10                Spruce_gprtGetFlowCtrl
                0x00000000000d3a80                Spruce_gprtSetEgressMonitorSource
                0x00000000000d3ae0                Spruce_gprtGetEgressMonitorSource
                0x00000000000d3b80                Spruce_gprtSetIngressMonitorSource
                0x00000000000d3be0                Spruce_gprtGetIngressMonitorSource
                0x00000000000d3c80                Spruce_grcSetEgressRate
                0x00000000000d3eb0                Spruce_grcSetELimitMode
                0x00000000000d3f10                Spruce_grcGetELimitMode
                0x00000000000d3fa0                Spruce_grcGetEgressRate
                0x00000000000d40e0                Spruce_gprtSetDuplex
                0x00000000000d4150                Spruce_gprtGetDuplex
                0x00000000000d4220                Spruce_gprtGetDuplexStatus
                0x00000000000d42b0                Spruce_gprtGetForceLink
                0x00000000000d4380                Spruce_gprtSetForceLink
                0x00000000000d43f0                Spruce_gprtGetLinkState
                0x00000000000d4480                Spruce_gprtSetForceSpeed
                0x00000000000d4720                Spruce_gprtGetForceSpeed
                0x00000000000d48c0                Spruce_gprtGetSpeed
                0x00000000000d49f0                Spruce_gprtGetVlanPorts
                0x00000000000d4ad0                Spruce_gprtSetVlanPorts
                0x00000000000d4c10                Spruce_gprtGetFrameMode
                0x00000000000d4ca0                Spruce_gprtSetFrameMode
                0x00000000000d4d00                Spruce_gprtSetPortECID
                0x00000000000d4da0                Spruce_gprtGetPortECID
                0x00000000000d4e00                Spruce_gprtSetIgnoreETag
                0x00000000000d4e90                Spruce_gprtGetIgnoreETag
                0x00000000000d4ef0                Spruce_gprtSetEgressMode
                0x00000000000d4f50                Spruce_gprtGetEgressMode
                0x00000000000d4fe0                Spruce_gprtSetExtendedPortCtrlReg
                0x00000000000d50c0                Spruce_gprtGetExtendedPortCtrlReg
                0x00000000000d5160                Spruce_gprtGetPortState
                0x00000000000d51f0                Spruce_gprtSetPortState
                0x00000000000d5250                Spruce_gprtSetIgnoreFcs
                0x00000000000d52b0                Spruce_gprtGetIgnoreFcs
                0x00000000000d5350                Spruce_gprtSetAllowBadFcs
                0x00000000000d53b0                Spruce_gprtGetAllowBadFcs
                0x00000000000d5450                Spruce_gprtSetPauseLimitOut
                0x00000000000d54a0                Spruce_gprtGetPauseLimitOut
                0x00000000000d54f0                Spruce_gprtSetPauseLimitIn
                0x00000000000d5530                Spruce_gprtGetPauseLimitIn
                0x00000000000d5580                Spruce_gprtSetQueueToPause
                0x00000000000d55d0                Spruce_gprtGetQueueToPause
                0x00000000000d5620                Spruce_gprtSetRxPriFlowCtrlEnable
                0x00000000000d5710                Spruce_gprtGetRxPriFlowCtrlEnable
                0x00000000000d57c0                Spruce_gprtSetRxPriFlowCtrlToQueue
                0x00000000000d58b0                Spruce_gprtGetRxPriFlowCtrlToQueue
                0x00000000000d5950                Spruce_gprtSetTxPriFlowCtrlEnable
                0x00000000000d5a40                Spruce_gprtGetTxPriFlowCtrlEnable
                0x00000000000d5af0                Spruce_gprtGetOutQueueSize
                0x00000000000d5b80                Spruce_gprtSetMapDA
                0x00000000000d5be0                Spruce_gprtGetMapDA
                0x00000000000d5c80                Spruce_gprtSetPortLocked
                0x00000000000d5ce0                Spruce_gprtGetPortLocked
                0x00000000000d5d80                Spruce_gprtSetHoldAt1
                0x00000000000d5de0                Spruce_gprtGetHoldAt1
                0x00000000000d5e80                Spruce_gprtSetInt0nAgeOut
                0x00000000000d5ee0                Spruce_gprtGetInt0nAgeOut
                0x00000000000d5f80                Spruce_gprtSetRefreshLocked
                0x00000000000d5fe0                Spruce_gprtGetRefreshLocked
                0x00000000000d6080                Spruce_gprtSetIgnoreWrongData
                0x00000000000d60e0                Spruce_gprtGetIgnoreWrongData
                0x00000000000d6180                Spruce_gprtSetARPMirror
                0x00000000000d61e0                Spruce_gprtGetARPMirror
                0x00000000000d6280                Spruce_gprtSetPreemptSize
                0x00000000000d62e0                Spruce_gprtGetPreemptSize
                0x00000000000d6380                Spruce_gprtSetPreemptEnable
                0x00000000000d63e0                Spruce_gprtGetPreemptEnable
                0x00000000000d6480                Spruce_gprtSetPreemptQueue
                0x00000000000d64e0                Spruce_gprtGetPreemptQueue
                0x00000000000d6580                Spruce_gprtRegDump
                0x00000000000d70f0                Spruce_gBpeEnableSet
                0x00000000000d7240                Spruce_gBpeEnableGet
                0x00000000000d72e0                Spruce_gecidAddEntry
                0x00000000000d7320                Spruce_gecidFlushAll
                0x00000000000d7390                Spruce_gecidMove
                0x00000000000d7450                Spruce_gecidFlushEntry
                0x00000000000d74e0                Spruce_gecidGetEcidEntryNext
                0x00000000000d7560                Spruce_gecidFindEcidEntry
                0x00000000000d7660                Spruce_gecidGetEntryCount
                0x00000000000d7950                Spruce_gecidDump
                0x00000000000d7ac0                Spruce_gqosSetPrioMapRule
                0x00000000000d7b20                Spruce_gqosGetPrioMapRule
                0x00000000000d7bc0                Spruce_gprtSetInitialPri
                0x00000000000d7c30                Spruce_gprtGetInitialPri
                0x00000000000d7d00                Spruce_gprtSetDefQpri
                0x00000000000d7d60                Spruce_gprtGetDefQpri
                0x00000000000d7e00                Spruce_gprtSetIEEEPrioMap
                0x00000000000d8010                Spruce_gprtGetIEEEPrioMap
                0x00000000000d8230                Spruce_gprtRewriteDscp
                0x00000000000d8290                Spruce_gprtSetCosToQueue
                0x00000000000d8320                Spruce_gprtGetCosToQueue
                0x00000000000d8380                Spruce_gprtSetCosToDscp
                0x00000000000d8410                Spruce_gprtGetCosToDscp
                0x00000000000d8470                Spruce_gprtSetDefFpri
                0x00000000000d84d0                Spruce_gprtGetDefFpri
                0x00000000000d8570                Spruce_gprtSetQueueCtrl
                0x00000000000d8680                Spruce_gprtGetQueueCtrl
                0x00000000000d87c0                Spruce_gprtSetPortSched
                0x00000000000d8810                Spruce_gprtGetPortSched
                0x00000000000d8920                Spruce_gsysSetQoSWeight
                0x00000000000d8b60                Spruce_gsysGetQoSWeight
                0x00000000000d8db0                Spruce_gsysSetTrunkMaskTable
                0x00000000000d8ef0                Spruce_gsysGetTrunkMaskTable
                0x00000000000d9080                Spruce_gsysSetHashTrunk
                0x00000000000d90b0                Spruce_gsysGetHashTrunk
                0x00000000000d9120                Spruce_gsysSetTrunkRouting
                0x00000000000d9280                Spruce_gsysGetTrunkRouting
                0x00000000000d9440                Spruce_gsysSetFloodBC
                0x00000000000d9470                Spruce_gsysGetFloodBC
                0x00000000000d94e0                Spruce_gsysSetEgressMonitorDest
                0x00000000000d9530                Spruce_gsysGetEgressMonitorDest
                0x00000000000d95d0                Spruce_gsysSetSMISetup
                0x00000000000d97b0                Spruce_gsysGetSMISetup
                0x00000000000d9990                Spruce_gsysGlobal1RegDump
                0x00000000000d9a60                Spruce_gsysGlobal2RegDump
                0x00000000000d9b30                Spruce_gsysSetRMUMode
                0x00000000000d9bc0                Spruce_gsysGetRMUMode
                0x00000000000d9c20                Spruce_gsysQbvWrite
                0x00000000000d9cf0                Spruce_gsysQbvRead
                0x00000000000d9dd0                Spruce_gsysDevIntEnableSet
                0x00000000000d9e00                Spruce_gsysDevIntEnableGet
                0x00000000000d9e80                Spruce_gsysDevIntStatusGet
                0x00000000000d9ef0                Spruce_gsysActiveIntEnableSet
                0x00000000000d9f80                Spruce_gsysActiveIntEnableGet
                0x00000000000d9fe0                Spruce_gsysActiveIntStatusGet
                0x00000000000da040                Spruce_serdesReset
                0x00000000000da8e0                Spruce_msdRmuGetID
                0x00000000000daa10                Spruce_msdRmuAtuDump
                0x00000000000dac30                Spruce_msdRmuEcidDump
                0x00000000000dae80                Spruce_msdRmuMib2Dump
                0x00000000000db2b0                Spruce_msdRmuReadRegister
                0x00000000000db2e0                Spruce_msdRmuWriteRegister
                0x00000000000db300                Spruce_msdRmuMultiRegAccess
                0x00000000000db4f0                Spruce_msdRmuTCAMDump
                0x00000000000db660                Spruce_msdRmuTCAMWrite
                0x00000000000db810                Spruce_msdRmuTCAMRead
                0x00000000000db9c0                Spruce_msdRmuRegDump
                0x00000000000dba90                Spruce_gtcamLoadEntryIntf
                0x00000000000dbc60                Spruce_gtcamReadTCAMDataIntf
                0x00000000000dbe50                Spruce_gtcamGetNextTCAMDataIntf
                0x00000000000dc040                Spruce_gtcamFindEntryIntf
                0x00000000000dc270                Spruce_gtcamSetModeIntf
                0x00000000000dc280                Spruce_gtcamGetModeIntf
                0x00000000000dc2e0                Spruce_gtcamEgrFlushEntryIntf
                0x00000000000dc2f0                Spruce_gtcamEgrFlushAllPortsIntf
                0x00000000000dc300                Spruce_gtcamEgrLoadEntryIntf
                0x00000000000dc3c0                Spruce_gtcamEgrGetNextTCAMDataIntf
                0x00000000000dc4a0                Spruce_gtcamEgrReadTCAMDataIntf
                0x00000000000dc580                Spruce_gtcamAdvConfigIntf
                0x00000000000dc740                Spruce_gfdbAddMacEntryIntf
                0x00000000000dc7c0                Spruce_gfdbGetAtuEntryNextIntf
                0x00000000000dc8a0                Spruce_gfdbFlushIntf
                0x00000000000dc8b0                Spruce_gfdbFlushInDBIntf
                0x00000000000dc8c0                Spruce_gfdbMoveIntf
                0x00000000000dc8d0                Spruce_gfdbMoveInDBIntf
                0x00000000000dc8e0                Spruce_gfdbPortRemoveIntf
                0x00000000000dc910                Spruce_gfdbPortRemoveInDBIntf
                0x00000000000dc940                Spruce_gfdbGetViolationIntf
                0x00000000000dca20                Spruce_gfdbFindAtuMacEntryIntf
                0x00000000000dcb10                Spruce_gfdbDump
                0x00000000000dccc0                Spruce_gvtuFindVidEntryIntf
                0x00000000000dce30                Spruce_gvtuExistVidEntryIntf
                0x00000000000dced0                Spruce_gvtuFlushIntf
                0x00000000000dcee0                Spruce_gvtuAddEntryIntf
                0x00000000000dd000                Spruce_gvtuDelEntryIntf
                0x00000000000dd080                Spruce_gvtuSetModeIntf
                0x00000000000dd090                Spruce_gvtuGetModeIntf
                0x00000000000dd0a0                Spruce_gvtuGetViolationIntf
                0x00000000000dd160                Spruce_gvtuGetEntryCountIntf
                0x00000000000dd210                Spruce_gvtuSetMemberTagIntf
                0x00000000000dd300                Spruce_gvtuGetMemberTagIntf
                0x00000000000dd3e0                Spruce_gvtuGetEntryNextIntf
                0x00000000000dd510                Spruce_gstuAddEntryIntf
                0x00000000000dd5e0                Spruce_gstuGetEntryNextIntf
                0x00000000000dd690                Spruce_gstuDelEntryIntf
                0x00000000000dd6f0                Spruce_gstuFindSidEntryIntf
                0x00000000000dd800                Spruce_gstuGetEntryCountIntf
                0x00000000000dd8a0                Spruce_gpirlInitializeIntf
                0x00000000000dd8b0                Spruce_gpirlInitResourceIntf
                0x00000000000dd8c0                Spruce_gpirlCustomSetup_sr2cIntf
                0x00000000000dd980                Spruce_gpirlReadResourceIntf
                0x00000000000dda60                Spruce_gpirlWriteResourceIntf
                0x00000000000ddb20                Spruce_gpirlGetResRegIntf
                0x00000000000ddb30                Spruce_gpirlSetResRegIntf
                0x00000000000ddb40                Spruce_gpirlAdvConfigIntf
                0x00000000000ddc40                Spruce_gpirlAdvConfigDisableIntf
                0x00000000000de070                Spruce_gqavSetPortQpriXRate
                0x00000000000de1a0                Spruce_gqavGetPortQpriXRate
                0x00000000000de280                Spruce_gqavSetPortQpriXHiLimit
                0x00000000000de350                Spruce_gqavGetPortQpriXHiLimit
                0x00000000000de400                Spruce_garpLoadMcEntryIntf
                0x00000000000de460                Spruce_garpLoadUcEntryIntf
                0x00000000000de4c0                Spruce_garpReadEntryIntf
                0x00000000000de550                Spruce_garpGetNextEntryIntf
                0x00000000000de5e0                Spruce_gstatsGetPortCounterIntf
                0x00000000000de5f0                Spruce_gstatsGetPortAllCntersIntf
                0x00000000000de800                Spruce_gstatsGetHistogramModeIntf
                0x00000000000de810                Spruce_gstatsSetHistogramModeIntf
                0x00000000000de820                Spruce_gvlnSetPortVlanQModeIntf
                0x00000000000de830                Spruce_gvlnGetPortVlanQModeIntf
                0x00000000000de840                Spruce_gprtSetDiscardTaggedIntf
                0x00000000000de850                Spruce_gprtGetDiscardTaggedIntf
                0x00000000000de860                Spruce_gprtSetDiscardUntaggedIntf
                0x00000000000de870                Spruce_gprtGetDiscardUntaggedIntf
                0x00000000000de880                Spruce_gprtSetUnicFloodBlockIntf
                0x00000000000de890                Spruce_gprtGetUnicFloodBlockIntf
                0x00000000000de8a0                Spruce_gprtSetMultiFloodBlockIntf
                0x00000000000de8b0                Spruce_gprtGetMultiFloodBlockIntf
                0x00000000000de8c0                Spruce_gprtSetDiscardBCastModeIntf
                0x00000000000de8d0                Spruce_gprtGetDiscardBCastModeIntf
                0x00000000000de8e0                Spruce_gprtSetJumboModeIntf
                0x00000000000de8f0                Spruce_gprtGetJumboModeIntf
                0x00000000000de900                Spruce_gprtSetSpecifiedMTUIntf
                0x00000000000de910                Spruce_gprtGetSpecifiedMTUIntf
                0x00000000000de920                Spruce_gprtSetLearnEnableIntf
                0x00000000000de930                Spruce_gprtGetLearnEnableIntf
                0x00000000000de940                Spruce_gprtGetVTUPriOverrideIntf
                0x00000000000de950                Spruce_gprtSetVTUPriOverrideIntf
                0x00000000000de960                Spruce_gprtGetSAPriOverrideIntf
                0x00000000000de970                Spruce_gprtSetSAPriOverrideIntf
                0x00000000000de980                Spruce_gprtGetDAPriOverrideIntf
                0x00000000000de990                Spruce_gprtSetDAPriOverrideIntf
                0x00000000000de9a0                Spruce_gprtSetFlowCtrlIntf
                0x00000000000de9b0                Spruce_gprtGetFlowCtrlIntf
                0x00000000000de9c0                Spruce_gprtSetForceSpeedIntf
                0x00000000000de9e0                Spruce_gprtGetForceSpeedIntf
                0x00000000000de9f0                Spruce_grcSetEgressRateIntf
                0x00000000000dea00                Spruce_grcGetEgressRateIntf
                0x00000000000dea10                Spruce_grcSetELimitModeIntf
                0x00000000000dea20                Spruce_grcGetELimitModeIntf
                0x00000000000dea30                Spruce_gprtSetDuplexIntf
                0x00000000000dea40                Spruce_gprtGetDuplexIntf
                0x00000000000dea50                Spruce_gprtGetDuplexStatusIntf
                0x00000000000dea60                Spruce_gprtGetForceLinkIntf
                0x00000000000dea70                Spruce_gprtSetForceLinkIntf
                0x00000000000dea80                Spruce_gprtGetSpeedIntf
                0x00000000000dea90                Spruce_gprtGetFrameModeIntf
                0x00000000000deaa0                Spruce_gprtSetFrameModeIntf
                0x00000000000deab0                Spruce_gprtSetEgressModeIntf
                0x00000000000dead0                Spruce_gprtGetEgressModeIntf
                0x00000000000deae0                Spruce_gprtGetPortStateIntf
                0x00000000000deaf0                Spruce_gprtSetPortStateIntf
                0x00000000000deb00                Spruce_gqosSetPrioMapRuleIntf
                0x00000000000deb10                Spruce_gqosGetPrioMapRuleIntf
                0x00000000000deb20                Spruce_gprtSetInitialPriIntf
                0x00000000000deb30                Spruce_gprtGetInitialPriIntf
                0x00000000000deb40                Spruce_gprtSetDefQpriIntf
                0x00000000000deb50                Spruce_gprtGetDefQpriIntf
                0x00000000000deb60                Spruce_gprtSetIEEEPrioMapIntf
                0x00000000000debc0                Spruce_gprtGetIEEEPrioMapIntf
                0x00000000000dec80                Spruce_gecidAddEntryIntf
                0x00000000000ded10                Spruce_gecidGetEcidEntryNextIntf
                0x00000000000dedd0                Spruce_gecidFindEcidEntryIntf
                0x00000000000deea0                Spruce_gprtSetQueueCtrlIntf
                0x00000000000deeb0                Spruce_gprtGetQueueCtrlIntf
                0x00000000000deec0                Spruce_gprtSetPortSchedIntf
                0x00000000000deed0                Spruce_gprtGetPortSchedIntf
                0x00000000000deee0                Spruce_gsysSetQoSWeightIntf
                0x00000000000defe0                Spruce_gsysGetQoSWeightIntf
                0x00000000000df0e0                Spruce_gtcamRCLoadEntryIntf
                0x00000000000df200                Spruce_gtcamRCReadEntryIntf
                0x00000000000df350                Spruce_gtcamRCGetNextEntryIntf
                0x00000000000df4a0                Spruce_gtcamRCFindEntryIntf
                0x00000000000df620                Spruce_msdRmuGetIDIntf
                0x00000000000df630                Spruce_msdRmuAtuDumpIntf
                0x00000000000df790                Spruce_msdRmuEcidDumpIntf
                0x00000000000df8f0                Spruce_msdRmuMib2DumpIntf
                0x00000000000dfb00                Spruce_msdRmuReadRegisterIntf
                0x00000000000dfb10                Spruce_msdRmuWriteRegisterIntf
                0x00000000000dfb30                Spruce_msdRmuMultiRegAccessIntf
                0x00000000000dfb40                Spruce_msdRmuTCAMDumpIntf
                0x00000000000dfe30                Spruce_msdRmuTCAMWriteIntf
                0x00000000000e0000                Spruce_msdRmuTCAMReadIntf
                0x00000000000e0f00                Spruce_gptpSetIntEnable
                0x00000000000e0ff0                Spruce_gptpGetIntEnable
                0x00000000000e10a0                Spruce_gptpSetPortPTPEn
                0x00000000000e1180                Spruce_gptpGetPortPTPEn
                0x00000000000e1220                Spruce_gptpGetTimeStamp
                0x00000000000e1350                Spruce_gptpGetTSValidSt
                0x00000000000e1420                Spruce_gptpResetTimeStamp
                0x00000000000e14f0                Spruce_gptpGetIntStatus
                0x00000000000e15b0                Spruce_gptpSetMeanPathDelay
                0x00000000000e1650                Spruce_gptpGetMeanPathDelay
                0x00000000000e16f0                Spruce_gptpSetIgrPathDelayAsym
                0x00000000000e1790                Spruce_gptpGetIgrPathDelayAsym
                0x00000000000e1830                Spruce_gptpSetEgrPathDelayAsym
                0x00000000000e18d0                Spruce_gptpGetEgrPathDelayAsym
                0x00000000000e1970                Spruce_gptpGetTODBusyBitStatus
                0x00000000000e19f0                Spruce_gptpTODStoreCompensation
                0x00000000000e1ab0                Spruce_gptpTODStoreAll
                0x00000000000e1b70                Spruce_gptpTODCaptureAll
                0x00000000000e1e40                Spruce_gptpSetPulse
                0x00000000000e1ef0                Spruce_gptpGetPulse
                0x00000000000e1f90                Spruce_gtaiGetPTPGlobalTime
                0x00000000000e2010                Spruce_gptpPortRegGet
                0x00000000000e20c0                Spruce_gptpPortRegSet
                0x00000000000e2160                Spruce_gptpGlobalRegGet
                0x00000000000e21d0                Spruce_gptpGlobalRegSet
                0x00000000000e2240                Spruce_gptp1588v2ConfigSet
                0x00000000000e2410                Spruce_gptp8021asConfigSet
                0x00000000000e25d0                Spruce_gptp8021asRevConfigSet
                0x00000000000e2790                Spruce_gptpPreemptTsSelSet
                0x00000000000e2870                Spruce_gptpPreemptTsSelGet
                0x00000000000e2910                Spruce_gptpPreemptCtrlSet
                0x00000000000e29f0                Spruce_gptpPreemptCtrlGet
                0x00000000000e2a90                Spruce_gptpSetIntEnableIntf
                0x00000000000e2af0                Spruce_gptpGetIntEnableIntf
                0x00000000000e2b50                Spruce_gptpGetTimeStampIntf
                0x00000000000e2bc0                Spruce_gptpGetIntStatusIntf
                0x00000000000e2c30                Spruce_gptpTODStoreCompenIntf
                0x00000000000e2cb0                Spruce_gptpTODStoreAllIntf
                0x00000000000e2d30                Spruce_gptpTODCaptureAllIntf
                0x00000000000e2dc0                Spruce_gptpSetPulseIntf
                0x00000000000e2e20                Spruce_gptpGetPulseIntf
                0x00000000000e2e80                Spruce_gptp1588v2ConfigSetIntf
                0x00000000000e2e90                Spruce_gptp8021asConfigSetIntf
                0x00000000000e2ea0                Spruce_gptp8021asRevCfgSetIntf
                0x00000000000e3110                Spruce_gledForceOn
                0x00000000000e31d0                Spruce_gledForceOff
                0x00000000000e3290                Spruce_gledLinkAct
                0x00000000000e3380                Spruce_gledModeSet
                0x00000000000e3450                Spruce_gledModeGet
                0x00000000000e34e0                Spruce_gledBlinkRateSet
                0x00000000000e3590                Spruce_gledBlinkRateGet
                0x00000000000e3670                Spruce_gledPulseStretchSet
                0x00000000000e3720                Spruce_gledPulseStretchGet
                0x00000000000e37f0                Spruce_gledSpecialModeSet
                0x00000000000e38a0                Spruce_gledSpecialModeGet
                0x00000000000e3910                Spruce_gledCtrlSet
                0x00000000000e3950                Spruce_gledCtrlGet
                0x00000000000e39c0                Spruce_gledDump
                0x00000000000e3c90                Spruce_gledForceOnIntf
                0x00000000000e3ca0                Spruce_gledForceOffIntf
                0x00000000000e3cb0                Spruce_gledLinkActIntf
                0x00000000000e3cc0                Spruce_gledModeSetIntf
                0x00000000000e3cd0                Spruce_gledModeGetIntf
                0x00000000000e3ce0                Spruce_gledBlinkRateSetIntf
                0x00000000000e3cf0                Spruce_gledBlinkRateGetIntf
                0x00000000000e3d00                Spruce_gledPulseStretchSetIntf
                0x00000000000e3d10                Spruce_gledPulseStretchGetIntf
                0x00000000000e3d20                Spruce_gledSpecialModeSetIntf
                0x00000000000e3d30                Spruce_gledSpecialModeGetIntf
                0x00000000000e3d40                Spruce_gledCtrlSetIntf
                0x00000000000e3d50                Spruce_gledCtrlGetIntf
                0x00000000000e3d60                Spruce_gtcamRCCompLoadIntf
                0x00000000000e3e40                Spruce_gtcamRCCompReadIntf
                0x00000000000e3f30                Spruce_EEPROMWrite
                0x00000000000e4060                Spruce_EEPROMRead
                0x00000000000e41c0                Spruce_EEPROMChipSelSet
                0x00000000000e4290                Spruce_EEPROMChipSelGet
                0x00000000000e43d0                Spruce_EEPROMWriteIntf
                0x00000000000e43e0                Spruce_EEPROMReadIntf
                0x00000000000e43f0                Spruce_EEPROMChipSelSetIntf
                0x00000000000e4400                Spruce_EEPROMChipSelGetIntf
 *fill*         0x00000000000e4409        0x7 
 .text          0x00000000000e4410    0x256e9 /home/roscube/Desktop/UMSD_v7.0.0_comb/UMSD_v7.0.0/obj/dev/bonsaiz1/msdDrv_BonsaiZ1.o
                0x00000000000e4410                BonsaiZ1_msdSetSMIC45PhyReg
                0x00000000000e46b0                BonsaiZ1_msdGetSMIC45PhyReg
                0x00000000000e4970                BonsaiZ1_msdSetSMIPhyReg
                0x00000000000e4af0                BonsaiZ1_msdGetSMIPhyReg
                0x00000000000e4d00                BonsaiZ1_msdSetSMIPhyRegField
                0x00000000000e4df0                BonsaiZ1_msdGetSMIPhyRegField
                0x00000000000e4e90                BonsaiZ1_msdSetPagedPhyRegField
                0x00000000000e4f10                BonsaiZ1_msdGetPagedPhyRegField
                0x00000000000e4fe0                BonsaiZ1_msdWritePagedPhyReg
                0x00000000000e5040                BonsaiZ1_msdReadPagedPhyReg
                0x00000000000e50a0                BonsaiZ1_msdSetSMIPhyXMDIOReg
                0x00000000000e51b0                BonsaiZ1_msdGetSMIPhyXMDIOReg
                0x00000000000e52f0                BonsaiZ1_msdPhyReset
                0x00000000000e54b0                BonsaiZ1_msdDirectSetMultiChipReg
                0x00000000000e54d0                BonsaiZ1_msdDirectGetMultiChipReg
                0x00000000000e54f0                BonsaiZ1_msdDirectSetMultiChipRegField
                0x00000000000e55c0                BonsaiZ1_msdDirectGetMultiChipRegField
                0x00000000000e5660                BonsaiZ1_msdDirectSetMultiChipExtendedReg
                0x00000000000e56b0                BonsaiZ1_msdDirectGetMultiChipExtendedReg
                0x00000000000e5730                BonsaiZ1_msdDirectSetMultiChipExtendedRegField
                0x00000000000e5800                BonsaiZ1_msdDirectGetMultiChipExtendedRegField
                0x00000000000e5890                BonsaiZ1_msdSetSMIExtPhyReg
                0x00000000000e5a10                BonsaiZ1_msdGetSMIExtPhyReg
                0x00000000000e5c20                BonsaiZ1_msdWritePagedExtPhyReg
                0x00000000000e5c80                BonsaiZ1_msdReadPagedExtPhyReg
                0x00000000000e5ce0                BonsaiZ1_msdSetSMIExtPhyXMDIOReg
                0x00000000000e5dd0                BonsaiZ1_msdGetSMIExtPhyXMDIOReg
                0x00000000000e7710                BonsaiZ1_gtcamFlushAll
                0x00000000000e7760                BonsaiZ1_gtcamFlushEntry
                0x00000000000e77c0                BonsaiZ1_gtcamLoadEntry
                0x00000000000e7850                BonsaiZ1_gtcamReadTCAMData
                0x00000000000e78d0                BonsaiZ1_gtcamGetNextTCAMData
                0x00000000000e7970                BonsaiZ1_gtcamFindEntry
                0x00000000000e7a40                BonsaiZ1_gtcamSetMode
                0x00000000000e7aa0                BonsaiZ1_gtcamGetMode
                0x00000000000e7b30                BonsaiZ1_gtcamAddEntryPort
                0x00000000000e7c20                BonsaiZ1_gtcamRemoveEntryPort
                0x00000000000e7d20                BonsaiZ1_gtcamEgrFlushEntry
                0x00000000000e7da0                BonsaiZ1_gtcamEgrFlushEntryAllPorts
                0x00000000000e7e00                BonsaiZ1_gtcamEgrLoadEntry
                0x00000000000e7fd0                BonsaiZ1_gtcamEgrGetNextTCAMData
                0x00000000000e80a0                BonsaiZ1_gtcamEgrReadTCAMData
                0x00000000000e8160                BonsaiZ1_gtcamDump
                0x00000000000e87e0                BonsaiZ1_gtcamAdvConfig
                0x00000000000e9a80                BonsaiZ1_gtcamRCFlushAllEntry
                0x00000000000e9b40                BonsaiZ1_gtcamRCFlushEntry
                0x00000000000e9c20                BonsaiZ1_gtcamRCLoadEntry
                0x00000000000e9f00                BonsaiZ1_gtcamRCReadEntry
                0x00000000000ea000                BonsaiZ1_gtcamRCGetNextEntry
                0x00000000000ea140                BonsaiZ1_gtcamRCFindEntry
                0x00000000000ea290                BonsaiZ1_gtcamRCEntryDump
                0x00000000000eac40                BonsaiZ1_gtcamRCCompFlushAll
                0x00000000000ead00                BonsaiZ1_gtcamRCCompFlushPort
                0x00000000000eade0                BonsaiZ1_gtcamRCCompLoad
                0x00000000000eb040                BonsaiZ1_gtcamRCCompRead
                0x00000000000ec470                BonsaiZ1_gfdbGetAtuEntryNext
                0x00000000000ec490                BonsaiZ1_gfdbFlush
                0x00000000000ec500                BonsaiZ1_gfdbFlushInDB
                0x00000000000ec580                BonsaiZ1_gfdbMove
                0x00000000000ec670                BonsaiZ1_gfdbMoveInDB
                0x00000000000ec760                BonsaiZ1_gfdbAddMacEntry
                0x00000000000ec830                BonsaiZ1_gfdbDelAtuEntry
                0x00000000000ec8c0                BonsaiZ1_gfdbGetViolation
                0x00000000000ec9f0                BonsaiZ1_gfdbFindAtuMacEntry
                0x00000000000ecb20                BonsaiZ1_gfdbSetAgingTimeout
                0x00000000000ecba0                BonsaiZ1_gfdbGetAgingTimeout
                0x00000000000ecc30                BonsaiZ1_gfdbGetLearn2All
                0x00000000000eccd0                BonsaiZ1_gfdbSetLearn2All
                0x00000000000ecd20                BonsaiZ1_gfdbSetPortLearnLimit
                0x00000000000ece90                BonsaiZ1_gfdbGetPortLearnLimit
                0x00000000000ecfa0                BonsaiZ1_gfdbGetPortLearnCount
                0x00000000000ed060                BonsaiZ1_gfdbGetEntryCount
                0x00000000000ed0b0                BonsaiZ1_gfdbGetEntryCountPerFid
                0x00000000000ed100                BonsaiZ1_gfdbGetNonStaticEntryCount
                0x00000000000ed150                BonsaiZ1_gfdbGetNStaticEntryCountFid
                0x00000000000ed400                BonsaiZ1_gpolicySetMgmtCtrl
                0x00000000000ed420                BonsaiZ1_gpolicyGetMgmtCtrl
                0x00000000000ed440                BonsaiZ1_gpolicySetCpuDest
                0x00000000000ed500                BonsaiZ1_gpolicyGetCpuDest
                0x00000000000ed590                BonsaiZ1_gpolicySetIgrMonitorDest
                0x00000000000ed650                BonsaiZ1_gpolicyGetIgrMonitorDest
                0x00000000000ed6e0                BonsaiZ1_gpolicySetRsvd2CpuEnables
                0x00000000000ed730                BonsaiZ1_gpolicyGetRsvd2CpuEnables
                0x00000000000ed7d0                BonsaiZ1_gpolicySetMGMTPri
                0x00000000000ed870                BonsaiZ1_gpolicyGetMGMTPri
                0x00000000000ed8d0                BonsaiZ1_gpolicySetRouteDest
                0x00000000000ed990                BonsaiZ1_gpolicyGetRouteDest
                0x00000000000eda20                BonsaiZ1_gpolicySetMirrorDest
                0x00000000000edae0                BonsaiZ1_gpolicyGetMirrorDest
                0x00000000000edb70                BonsaiZ1_gpolicySetIllegalIPAddr
                0x00000000000edc10                BonsaiZ1_gpolicyGetIllegalIPAddr
                0x00000000000edc70                BonsaiZ1_gpolicySetDipDaMismatch
                0x00000000000edd10                BonsaiZ1_gpolicyGetDipDaMismatch
                0x00000000000edd70                BonsaiZ1_gpolicySetZeroSIP
                0x00000000000ede10                BonsaiZ1_gpolicyGetZeroSIP
                0x00000000000ede70                BonsaiZ1_gpolicySetMcTtlExceeded
                0x00000000000edf40                BonsaiZ1_gpolicyGetMcTtlExceeded
                0x00000000000ee010                BonsaiZ1_gpolicySetUcTtlExceeded
                0x00000000000ee0d0                BonsaiZ1_gpolicyGetUcTtlExceeded
                0x00000000000ee130                BonsaiZ1_gprtSetPortTtlThreshold
                0x00000000000ee1c0                BonsaiZ1_gprtGetPortTtlThreshold
                0x00000000000ee220                BonsaiZ1_gpolicySetIpHdrErr
                0x00000000000ee2c0                BonsaiZ1_gpolicyGetIpHdrErr
                0x00000000000ee320                BonsaiZ1_gpolicySetTCPFinUrgPsh
                0x00000000000ee3c0                BonsaiZ1_gpolicyGetTCPFinUrgPsh
                0x00000000000ee420                BonsaiZ1_gpolicySetTCPFlagsSeqNum
                0x00000000000ee4c0                BonsaiZ1_gpolicyGetTCPFlagsSeqNum
                0x00000000000ee520                BonsaiZ1_gpolicySetTCPSYN
                0x00000000000ee5c0                BonsaiZ1_gpolicyGetTCPSYN
                0x00000000000ee620                BonsaiZ1_gpolicySetTCPHSize
                0x00000000000ee6c0                BonsaiZ1_gpolicyGetTCPHSize
                0x00000000000ee720                BonsaiZ1_gprtSetPortTCPMinHdrSize
                0x00000000000ee7b0                BonsaiZ1_gprtGetPortTCPMinHdrSize
                0x00000000000ee810                BonsaiZ1_gpolicySetICMPSize
                0x00000000000ee8b0                BonsaiZ1_gpolicyGetICMPSize
                0x00000000000ee910                BonsaiZ1_gprtSetPortICMPMaxSize
                0x00000000000ee960                BonsaiZ1_gprtGetPortICMPMaxSize
                0x00000000000ee9f0                BonsaiZ1_gpolicySetUDPPort
                0x00000000000eea90                BonsaiZ1_gpolicyGetUDPPort
                0x00000000000eeaf0                BonsaiZ1_gpolicySetTCPPort
                0x00000000000eeb90                BonsaiZ1_gpolicyGetTCPPort
                0x00000000000eebf0                BonsaiZ1_gpolicySetTCPSynFin
                0x00000000000eec90                BonsaiZ1_gpolicyGetTCPSynFin
                0x00000000000eecf0                BonsaiZ1_gpolicySetTCPFrag
                0x00000000000eed90                BonsaiZ1_gpolicyGetTCPFrag
                0x00000000000eedf0                BonsaiZ1_gpolicySetNearNonTPMR
                0x00000000000eee90                BonsaiZ1_gpolicyGetNearNonTPMR
                0x00000000000eeef0                BonsaiZ1_gpolicySetETag
                0x00000000000eef90                BonsaiZ1_gpolicyGetETag
                0x00000000000eeff0                BonsaiZ1_gpolicySetNonETag
                0x00000000000ef090                BonsaiZ1_gpolicyGetNonETag
                0x00000000000ef0f0                BonsaiZ1_gpolicyDump
                0x00000000000f3e30                BonsaiZ1_gvtuGetEntryNext
                0x00000000000f3fa0                BonsaiZ1_gvtuFindVidEntry
                0x00000000000f4160                BonsaiZ1_gvtuFlush
                0x00000000000f4180                BonsaiZ1_gvtuAddEntry
                0x00000000000f42d0                BonsaiZ1_gvtuDelEntry
                0x00000000000f4350                BonsaiZ1_gvtuSetMode
                0x00000000000f44d0                BonsaiZ1_gvtuGetMode
                0x00000000000f4670                BonsaiZ1_gvtuGetViolation_MultiChip
                0x00000000000f4780                BonsaiZ1_gvtuGetViolation
                0x00000000000f48f0                BonsaiZ1_gvtuDump
                0x00000000000f5070                BonsaiZ1_garpLoadMcEntry
                0x00000000000f5190                BonsaiZ1_garpLoadUcEntry
                0x00000000000f5250                BonsaiZ1_garpFlushEntry
                0x00000000000f52b0                BonsaiZ1_garpFlushAll
                0x00000000000f5300                BonsaiZ1_garpReadEntry
                0x00000000000f5380                BonsaiZ1_garpGetNextEntry
                0x00000000000f5840                BonsaiZ1_gstuGetEntryNext
                0x00000000000f5940                BonsaiZ1_gstuAddEntry
                0x00000000000f5a10                BonsaiZ1_gstuDelEntry
                0x00000000000f5a70                BonsaiZ1_gstuFindSidEntry
                0x00000000000f5b80                BonsaiZ1_gstuDump
                0x00000000000f60f0                BonsaiZ1_gpirlInitialize
                0x00000000000f6110                BonsaiZ1_gpirlInitResource
                0x00000000000f6190                BonsaiZ1_gpirlCustomSetup_sr2c
                0x00000000000f6380                BonsaiZ1_gpirlReadResource
                0x00000000000f6550                BonsaiZ1_gpirlWriteResource
                0x00000000000f66f0                BonsaiZ1_gpirlGetResReg
                0x00000000000f6790                BonsaiZ1_gpirlSetResReg
                0x00000000000f6e70                BonsaiZ1_gstatsFlushAll
                0x00000000000f6e90                BonsaiZ1_gstatsFlushPort
                0x00000000000f6ed0                BonsaiZ1_gstatsGetPortCounter
                0x00000000000f6f30                BonsaiZ1_gstatsGetPortAllCounters
                0x00000000000f6f80                BonsaiZ1_gstatsGetHistogramMode
                0x00000000000f7040                BonsaiZ1_gstatsSetHistogramMode
                0x00000000000f7080                BonsaiZ1_gmibDump
                0x00000000000f7ba0                BonsaiZ1_gvlnSetPortVid
                0x00000000000f7c00                BonsaiZ1_gvlnGetPortVid
                0x00000000000f7c90                BonsaiZ1_gprtSetForceDefaultVid
                0x00000000000f7cf0                BonsaiZ1_gprtGetForceDefaultVid
                0x00000000000f7d90                BonsaiZ1_gvlnSetPortVlanDot1qMode
                0x00000000000f7df0                BonsaiZ1_gvlnGetPortVlanDot1qMode
                0x00000000000f7e80                BonsaiZ1_gprtSetDiscardTagged
                0x00000000000f7ee0                BonsaiZ1_gprtGetDiscardTagged
                0x00000000000f7f80                BonsaiZ1_gprtSetDiscardUntagged
                0x00000000000f7fe0                BonsaiZ1_gprtGetDiscardUntagged
                0x00000000000f8080                BonsaiZ1_gprtSetUnicastFloodBlock
                0x00000000000f80e0                BonsaiZ1_gprtGetUnicastFloodBlock
                0x00000000000f8180                BonsaiZ1_gprtSetMulticastFloodBlock
                0x00000000000f81e0                BonsaiZ1_gprtGetMulticastFloodBlock
                0x00000000000f8280                BonsaiZ1_gprtSetDiscardBCastMode
                0x00000000000f82e0                BonsaiZ1_gprtGetDiscardBCastMode
                0x00000000000f8380                BonsaiZ1_gprtSetIGMPSnoopEnable
                0x00000000000f83e0                BonsaiZ1_gprtGetIGMPSnoopEnable
                0x00000000000f8480                BonsaiZ1_gprtGetHeaderMode
                0x00000000000f8520                BonsaiZ1_gprtSetHeaderMode
                0x00000000000f8580                BonsaiZ1_gprtGetDropOnLock
                0x00000000000f8620                BonsaiZ1_gprtSetDropOnLock
                0x00000000000f8680                BonsaiZ1_gprtSetJumboMode
                0x00000000000f86f0                BonsaiZ1_gprtGetJumboMode
                0x00000000000f8780                BonsaiZ1_gprtSetSpecifiedMTU
                0x00000000000f8800                BonsaiZ1_gprtGetSpecifiedMTU
                0x00000000000f8890                BonsaiZ1_gprtSetLearnEnable
                0x00000000000f8990                BonsaiZ1_gprtGetLearnEnable
                0x00000000000f8a20                BonsaiZ1_gprtGetVTUPriorityOverride
                0x00000000000f8ab0                BonsaiZ1_gprtSetVTUPriorityOverride
                0x00000000000f8b10                BonsaiZ1_gprtGetSAPriorityOverride
                0x00000000000f8ba0                BonsaiZ1_gprtSetSAPriorityOverride
                0x00000000000f8c00                BonsaiZ1_gprtGetDAPriorityOverride
                0x00000000000f8c90                BonsaiZ1_gprtSetDAPriorityOverride
                0x00000000000f8cf0                BonsaiZ1_gprtGetMessagePort
                0x00000000000f8d90                BonsaiZ1_gprtSetMessagePort
                0x00000000000f8df0                BonsaiZ1_gprtGetEtherType
                0x00000000000f8e10                BonsaiZ1_gprtSetEtherType
                0x00000000000f8e30                BonsaiZ1_gprtGetAllowVidZero
                0x00000000000f8ed0                BonsaiZ1_gprtSetAllowVidZero
                0x00000000000f8f30                BonsaiZ1_gprtSetTrunkPort
                0x00000000000f8ff0                BonsaiZ1_gprtGetTrunkPort
                0x00000000000f90d0                BonsaiZ1_gprtSetFlowCtrl
                0x00000000000f9180                BonsaiZ1_gprtGetFlowCtrl
                0x00000000000f91f0                BonsaiZ1_gprtSetEgressMonitorSource
                0x00000000000f9250                BonsaiZ1_gprtGetEgressMonitorSource
                0x00000000000f92f0                BonsaiZ1_gprtSetIngressMonitorSource
                0x00000000000f9350                BonsaiZ1_gprtGetIngressMonitorSource
                0x00000000000f93f0                BonsaiZ1_grcSetEgressRate
                0x00000000000f9620                BonsaiZ1_grcSetELimitMode
                0x00000000000f9680                BonsaiZ1_grcGetELimitMode
                0x00000000000f9710                BonsaiZ1_grcGetEgressRate
                0x00000000000f9850                BonsaiZ1_gprtSetDuplex
                0x00000000000f98c0                BonsaiZ1_gprtGetDuplex
                0x00000000000f9990                BonsaiZ1_gprtGetDuplexStatus
                0x00000000000f9a20                BonsaiZ1_gprtGetForceLink
                0x00000000000f9af0                BonsaiZ1_gprtSetForceLink
                0x00000000000f9b60                BonsaiZ1_gprtGetLinkState
                0x00000000000f9bf0                BonsaiZ1_gprtSetForceSpeed
                0x00000000000f9e30                BonsaiZ1_gprtGetForceSpeed
                0x00000000000f9fd0                BonsaiZ1_gprtGetSpeed
                0x00000000000fa100                BonsaiZ1_gprtGetVlanPorts
                0x00000000000fa1e0                BonsaiZ1_gprtSetVlanPorts
                0x00000000000fa320                BonsaiZ1_gprtGetFrameMode
                0x00000000000fa3b0                BonsaiZ1_gprtSetFrameMode
                0x00000000000fa410                BonsaiZ1_gprtSetPortECID
                0x00000000000fa4b0                BonsaiZ1_gprtGetPortECID
                0x00000000000fa510                BonsaiZ1_gprtSetIgnoreETag
                0x00000000000fa5a0                BonsaiZ1_gprtGetIgnoreETag
                0x00000000000fa600                BonsaiZ1_gprtSetEgressMode
                0x00000000000fa660                BonsaiZ1_gprtGetEgressMode
                0x00000000000fa6f0                BonsaiZ1_gprtSetExtendedPortCtrlReg
                0x00000000000fa7d0                BonsaiZ1_gprtGetExtendedPortCtrlReg
                0x00000000000fa870                BonsaiZ1_gprtGetPortState
                0x00000000000fa900                BonsaiZ1_gprtSetPortState
                0x00000000000fa960                BonsaiZ1_gprtSetIgnoreFcs
                0x00000000000fa9c0                BonsaiZ1_gprtGetIgnoreFcs
                0x00000000000faa60                BonsaiZ1_gprtSetAllowBadFcs
                0x00000000000faac0                BonsaiZ1_gprtGetAllowBadFcs
                0x00000000000fab60                BonsaiZ1_gprtSetPauseLimitOut
                0x00000000000fabb0                BonsaiZ1_gprtGetPauseLimitOut
                0x00000000000fac00                BonsaiZ1_gprtSetPauseLimitIn
                0x00000000000fac40                BonsaiZ1_gprtGetPauseLimitIn
                0x00000000000fac90                BonsaiZ1_gprtSetQueueToPause
                0x00000000000face0                BonsaiZ1_gprtGetQueueToPause
                0x00000000000fad30                BonsaiZ1_gprtSetRxPriFlowCtrlEnable
                0x00000000000fae20                BonsaiZ1_gprtGetRxPriFlowCtrlEnable
                0x00000000000faed0                BonsaiZ1_gprtSetRxPriFlowCtrlToQueue
                0x00000000000fafc0                BonsaiZ1_gprtGetRxPriFlowCtrlToQueue
                0x00000000000fb060                BonsaiZ1_gprtSetTxPriFlowCtrlEnable
                0x00000000000fb150                BonsaiZ1_gprtGetTxPriFlowCtrlEnable
                0x00000000000fb200                BonsaiZ1_gprtGetOutQueueSize
                0x00000000000fb290                BonsaiZ1_gprtSetMapDA
                0x00000000000fb2f0                BonsaiZ1_gprtGetMapDA
                0x00000000000fb390                BonsaiZ1_gprtSetPortLocked
                0x00000000000fb3f0                BonsaiZ1_gprtGetPortLocked
                0x00000000000fb490                BonsaiZ1_gprtSetHoldAt1
                0x00000000000fb4f0                BonsaiZ1_gprtGetHoldAt1
                0x00000000000fb590                BonsaiZ1_gprtSetInt0nAgeOut
                0x00000000000fb5f0                BonsaiZ1_gprtGetInt0nAgeOut
                0x00000000000fb690                BonsaiZ1_gprtSetRefreshLocked
                0x00000000000fb6f0                BonsaiZ1_gprtGetRefreshLocked
                0x00000000000fb790                BonsaiZ1_gprtSetIgnoreWrongData
                0x00000000000fb7f0                BonsaiZ1_gprtGetIgnoreWrongData
                0x00000000000fb890                BonsaiZ1_gprtSetARPMirror
                0x00000000000fb8f0                BonsaiZ1_gprtGetARPMirror
                0x00000000000fb990                BonsaiZ1_gprtSetPreemptSize
                0x00000000000fb9f0                BonsaiZ1_gprtGetPreemptSize
                0x00000000000fba90                BonsaiZ1_gprtSetPreemptEnable
                0x00000000000fbaf0                BonsaiZ1_gprtGetPreemptEnable
                0x00000000000fbb90                BonsaiZ1_gprtSetPreemptQueue
                0x00000000000fbbf0                BonsaiZ1_gprtGetPreemptQueue
                0x00000000000fbc90                BonsaiZ1_gprtRegDump
                0x00000000000fc800                BonsaiZ1_gBpeEnableSet
                0x00000000000fc950                BonsaiZ1_gBpeEnableGet
                0x00000000000fc9f0                BonsaiZ1_gecidAddEntry
                0x00000000000fca30                BonsaiZ1_gecidFlushAll
                0x00000000000fcaa0                BonsaiZ1_gecidMove
                0x00000000000fcb60                BonsaiZ1_gecidFlushEntry
                0x00000000000fcbf0                BonsaiZ1_gecidGetEcidEntryNext
                0x00000000000fcc70                BonsaiZ1_gecidFindEcidEntry
                0x00000000000fcd70                BonsaiZ1_gecidGetEntryCount
                0x00000000000fd060                BonsaiZ1_gecidDump
                0x00000000000fd1d0                BonsaiZ1_gqosSetPrioMapRule
                0x00000000000fd230                BonsaiZ1_gqosGetPrioMapRule
                0x00000000000fd2d0                BonsaiZ1_gprtSetInitialPri
                0x00000000000fd340                BonsaiZ1_gprtGetInitialPri
                0x00000000000fd410                BonsaiZ1_gprtSetDefQpri
                0x00000000000fd470                BonsaiZ1_gprtGetDefQpri
                0x00000000000fd510                BonsaiZ1_gprtSetIEEEPrioMap
                0x00000000000fd720                BonsaiZ1_gprtGetIEEEPrioMap
                0x00000000000fd940                BonsaiZ1_gprtRewriteDscp
                0x00000000000fd9a0                BonsaiZ1_gprtSetCosToQueue
                0x00000000000fda30                BonsaiZ1_gprtGetCosToQueue
                0x00000000000fda90                BonsaiZ1_gprtSetCosToDscp
                0x00000000000fdb20                BonsaiZ1_gprtGetCosToDscp
                0x00000000000fdb80                BonsaiZ1_gprtSetDefFpri
                0x00000000000fdbe0                BonsaiZ1_gprtGetDefFpri
                0x00000000000fdc80                BonsaiZ1_gprtSetQueueCtrl
                0x00000000000fdd90                BonsaiZ1_gprtGetQueueCtrl
                0x00000000000fded0                BonsaiZ1_gprtSetPortSched
                0x00000000000fdf20                BonsaiZ1_gprtGetPortSched
                0x00000000000fe030                BonsaiZ1_gsysSetQoSWeight
                0x00000000000fe270                BonsaiZ1_gsysGetQoSWeight
                0x00000000000fe4c0                BonsaiZ1_gsysSetTrunkMaskTable
                0x00000000000fe600                BonsaiZ1_gsysGetTrunkMaskTable
                0x00000000000fe790                BonsaiZ1_gsysSetHashTrunk
                0x00000000000fe7c0                BonsaiZ1_gsysGetHashTrunk
                0x00000000000fe830                BonsaiZ1_gsysSetTrunkRouting
                0x00000000000fe990                BonsaiZ1_gsysGetTrunkRouting
                0x00000000000feb50                BonsaiZ1_gsysSetFloodBC
                0x00000000000feb80                BonsaiZ1_gsysGetFloodBC
                0x00000000000febf0                BonsaiZ1_gsysSetEgressMonitorDest
                0x00000000000fec40                BonsaiZ1_gsysGetEgressMonitorDest
                0x00000000000fece0                BonsaiZ1_gsysSetSMISetup
                0x00000000000feec0                BonsaiZ1_gsysGetSMISetup
                0x00000000000ff0a0                BonsaiZ1_gsysGlobal1RegDump
                0x00000000000ff170                BonsaiZ1_gsysGlobal2RegDump
                0x00000000000ff240                BonsaiZ1_gsysSetRMUMode
                0x00000000000ff2d0                BonsaiZ1_gsysGetRMUMode
                0x00000000000ff330                BonsaiZ1_gsysQbvWrite
                0x00000000000ff400                BonsaiZ1_gsysQbvRead
                0x00000000000ff4e0                BonsaiZ1_gsysDevIntEnableSet
                0x00000000000ff510                BonsaiZ1_gsysDevIntEnableGet
                0x00000000000ff590                BonsaiZ1_gsysDevIntStatusGet
                0x00000000000ff600                BonsaiZ1_gsysActiveIntEnableSet
                0x00000000000ff690                BonsaiZ1_gsysActiveIntEnableGet
                0x00000000000ff6f0                BonsaiZ1_gsysActiveIntStatusGet
                0x00000000000ff750                BonsaiZ1_serdesReset
                0x00000000000ffff0                BonsaiZ1_msdRmuGetID
                0x0000000000100120                BonsaiZ1_msdRmuAtuDump
                0x0000000000100340                BonsaiZ1_msdRmuEcidDump
                0x0000000000100590                BonsaiZ1_msdRmuMib2Dump
                0x00000000001009c0                BonsaiZ1_msdRmuReadRegister
                0x00000000001009f0                BonsaiZ1_msdRmuWriteRegister
                0x0000000000100a10                BonsaiZ1_msdRmuMultiRegAccess
                0x0000000000100c00                BonsaiZ1_msdRmuTCAMDump
                0x0000000000100d70                BonsaiZ1_msdRmuTCAMWrite
                0x0000000000100f20                BonsaiZ1_msdRmuTCAMRead
                0x00000000001010d0                BonsaiZ1_msdRmuRegDump
                0x00000000001011a0                BonsaiZ1_gtcamLoadEntryIntf
                0x0000000000101370                BonsaiZ1_gtcamReadTCAMDataIntf
                0x0000000000101560                BonsaiZ1_gtcamGetNextTCAMDataIntf
                0x0000000000101750                BonsaiZ1_gtcamFindEntryIntf
                0x0000000000101980                BonsaiZ1_gtcamSetModeIntf
                0x0000000000101990                BonsaiZ1_gtcamGetModeIntf
                0x00000000001019f0                BonsaiZ1_gtcamEgrFlushEntryIntf
                0x0000000000101a00                BonsaiZ1_gtcamEgrFlushAllPortsIntf
                0x0000000000101a10                BonsaiZ1_gtcamEgrLoadEntryIntf
                0x0000000000101ad0                BonsaiZ1_gtcamEgrGetNextTCAMDataIntf
                0x0000000000101bb0                BonsaiZ1_gtcamEgrReadTCAMDataIntf
                0x0000000000101c90                BonsaiZ1_gtcamAdvConfigIntf
                0x0000000000101e50                BonsaiZ1_gfdbAddMacEntryIntf
                0x0000000000101ed0                BonsaiZ1_gfdbGetAtuEntryNextIntf
                0x0000000000101fb0                BonsaiZ1_gfdbFlushIntf
                0x0000000000101fc0                BonsaiZ1_gfdbFlushInDBIntf
                0x0000000000101fd0                BonsaiZ1_gfdbMoveIntf
                0x0000000000101fe0                BonsaiZ1_gfdbMoveInDBIntf
                0x0000000000101ff0                BonsaiZ1_gfdbPortRemoveIntf
                0x0000000000102020                BonsaiZ1_gfdbPortRemoveInDBIntf
                0x0000000000102050                BonsaiZ1_gfdbGetViolationIntf
                0x0000000000102130                BonsaiZ1_gfdbFindAtuMacEntryIntf
                0x0000000000102220                BonsaiZ1_gfdbDump
                0x00000000001023d0                BonsaiZ1_gvtuFindVidEntryIntf
                0x0000000000102540                BonsaiZ1_gvtuExistVidEntryIntf
                0x00000000001025e0                BonsaiZ1_gvtuFlushIntf
                0x00000000001025f0                BonsaiZ1_gvtuAddEntryIntf
                0x0000000000102710                BonsaiZ1_gvtuDelEntryIntf
                0x0000000000102790                BonsaiZ1_gvtuSetModeIntf
                0x00000000001027a0                BonsaiZ1_gvtuGetModeIntf
                0x00000000001027b0                BonsaiZ1_gvtuGetViolationIntf
                0x0000000000102870                BonsaiZ1_gvtuGetEntryCountIntf
                0x0000000000102920                BonsaiZ1_gvtuSetMemberTagIntf
                0x0000000000102a10                BonsaiZ1_gvtuGetMemberTagIntf
                0x0000000000102af0                BonsaiZ1_gvtuGetEntryNextIntf
                0x0000000000102c20                BonsaiZ1_gstuAddEntryIntf
                0x0000000000102cf0                BonsaiZ1_gstuGetEntryNextIntf
                0x0000000000102da0                BonsaiZ1_gstuDelEntryIntf
                0x0000000000102e00                BonsaiZ1_gstuFindSidEntryIntf
                0x0000000000102f10                BonsaiZ1_gstuGetEntryCountIntf
                0x0000000000102fb0                BonsaiZ1_gpirlInitializeIntf
                0x0000000000102fc0                BonsaiZ1_gpirlInitResourceIntf
                0x0000000000102fd0                BonsaiZ1_gpirlCustomSetup_sr2cIntf
                0x0000000000103090                BonsaiZ1_gpirlReadResourceIntf
                0x0000000000103170                BonsaiZ1_gpirlWriteResourceIntf
                0x0000000000103230                BonsaiZ1_gpirlGetResRegIntf
                0x0000000000103240                BonsaiZ1_gpirlSetResRegIntf
                0x0000000000103250                BonsaiZ1_gpirlAdvConfigIntf
                0x0000000000103350                BonsaiZ1_gpirlAdvConfigDisableIntf
                0x0000000000103780                BonsaiZ1_gqavSetPortQpriXRate
                0x00000000001038b0                BonsaiZ1_gqavGetPortQpriXRate
                0x0000000000103990                BonsaiZ1_gqavSetPortQpriXHiLimit
                0x0000000000103a60                BonsaiZ1_gqavGetPortQpriXHiLimit
                0x0000000000103b10                BonsaiZ1_garpLoadMcEntryIntf
                0x0000000000103b70                BonsaiZ1_garpLoadUcEntryIntf
                0x0000000000103bd0                BonsaiZ1_garpReadEntryIntf
                0x0000000000103c60                BonsaiZ1_garpGetNextEntryIntf
                0x0000000000103cf0                BonsaiZ1_gstatsGetPortCounterIntf
                0x0000000000103d00                BonsaiZ1_gstatsGetPortAllCntersIntf
                0x0000000000103f10                BonsaiZ1_gstatsGetHistogramModeIntf
                0x0000000000103f20                BonsaiZ1_gstatsSetHistogramModeIntf
                0x0000000000103f30                BonsaiZ1_gvlnSetPortVlanQModeIntf
                0x0000000000103f40                BonsaiZ1_gvlnGetPortVlanQModeIntf
                0x0000000000103f50                BonsaiZ1_gprtSetDiscardTaggedIntf
                0x0000000000103f60                BonsaiZ1_gprtGetDiscardTaggedIntf
                0x0000000000103f70                BonsaiZ1_gprtSetDiscardUntaggedIntf
                0x0000000000103f80                BonsaiZ1_gprtGetDiscardUntaggedIntf
                0x0000000000103f90                BonsaiZ1_gprtSetUnicFloodBlockIntf
                0x0000000000103fa0                BonsaiZ1_gprtGetUnicFloodBlockIntf
                0x0000000000103fb0                BonsaiZ1_gprtSetMultiFloodBlockIntf
                0x0000000000103fc0                BonsaiZ1_gprtGetMultiFloodBlockIntf
                0x0000000000103fd0                BonsaiZ1_gprtSetDiscardBCastModeIntf
                0x0000000000103fe0                BonsaiZ1_gprtGetDiscardBCastModeIntf
                0x0000000000103ff0                BonsaiZ1_gprtSetJumboModeIntf
                0x0000000000104000                BonsaiZ1_gprtGetJumboModeIntf
                0x0000000000104010                BonsaiZ1_gprtSetSpecifiedMTUIntf
                0x0000000000104020                BonsaiZ1_gprtGetSpecifiedMTUIntf
                0x0000000000104030                BonsaiZ1_gprtSetLearnEnableIntf
                0x0000000000104040                BonsaiZ1_gprtGetLearnEnableIntf
                0x0000000000104050                BonsaiZ1_gprtGetVTUPriOverrideIntf
                0x0000000000104060                BonsaiZ1_gprtSetVTUPriOverrideIntf
                0x0000000000104070                BonsaiZ1_gprtGetSAPriOverrideIntf
                0x0000000000104080                BonsaiZ1_gprtSetSAPriOverrideIntf
                0x0000000000104090                BonsaiZ1_gprtGetDAPriOverrideIntf
                0x00000000001040a0                BonsaiZ1_gprtSetDAPriOverrideIntf
                0x00000000001040b0                BonsaiZ1_gprtSetFlowCtrlIntf
                0x00000000001040c0                BonsaiZ1_gprtGetFlowCtrlIntf
                0x00000000001040d0                BonsaiZ1_gprtSetForceSpeedIntf
                0x00000000001040f0                BonsaiZ1_gprtGetForceSpeedIntf
                0x0000000000104100                BonsaiZ1_grcSetEgressRateIntf
                0x0000000000104110                BonsaiZ1_grcGetEgressRateIntf
                0x0000000000104120                BonsaiZ1_grcSetELimitModeIntf
                0x0000000000104130                BonsaiZ1_grcGetELimitModeIntf
                0x0000000000104140                BonsaiZ1_gprtSetDuplexIntf
                0x0000000000104150                BonsaiZ1_gprtGetDuplexIntf
                0x0000000000104160                BonsaiZ1_gprtGetDuplexStatusIntf
                0x0000000000104170                BonsaiZ1_gprtGetForceLinkIntf
                0x0000000000104180                BonsaiZ1_gprtSetForceLinkIntf
                0x0000000000104190                BonsaiZ1_gprtGetSpeedIntf
                0x00000000001041a0                BonsaiZ1_gprtGetFrameModeIntf
                0x00000000001041b0                BonsaiZ1_gprtSetFrameModeIntf
                0x00000000001041c0                BonsaiZ1_gprtSetEgressModeIntf
                0x00000000001041e0                BonsaiZ1_gprtGetEgressModeIntf
                0x00000000001041f0                BonsaiZ1_gprtGetPortStateIntf
                0x0000000000104200                BonsaiZ1_gprtSetPortStateIntf
                0x0000000000104210                BonsaiZ1_gqosSetPrioMapRuleIntf
                0x0000000000104220                BonsaiZ1_gqosGetPrioMapRuleIntf
                0x0000000000104230                BonsaiZ1_gprtSetInitialPriIntf
                0x0000000000104240                BonsaiZ1_gprtGetInitialPriIntf
                0x0000000000104250                BonsaiZ1_gprtSetDefQpriIntf
                0x0000000000104260                BonsaiZ1_gprtGetDefQpriIntf
                0x0000000000104270                BonsaiZ1_gprtSetIEEEPrioMapIntf
                0x00000000001042d0                BonsaiZ1_gprtGetIEEEPrioMapIntf
                0x0000000000104390                BonsaiZ1_gecidAddEntryIntf
                0x0000000000104420                BonsaiZ1_gecidGetEcidEntryNextIntf
                0x00000000001044e0                BonsaiZ1_gecidFindEcidEntryIntf
                0x00000000001045b0                BonsaiZ1_gprtSetQueueCtrlIntf
                0x00000000001045c0                BonsaiZ1_gprtGetQueueCtrlIntf
                0x00000000001045d0                BonsaiZ1_gprtSetPortSchedIntf
                0x00000000001045e0                BonsaiZ1_gprtGetPortSchedIntf
                0x00000000001045f0                BonsaiZ1_gsysSetQoSWeightIntf
                0x00000000001046f0                BonsaiZ1_gsysGetQoSWeightIntf
                0x00000000001047f0                BonsaiZ1_gtcamRCLoadEntryIntf
                0x0000000000104910                BonsaiZ1_gtcamRCReadEntryIntf
                0x0000000000104a60                BonsaiZ1_gtcamRCGetNextEntryIntf
                0x0000000000104bb0                BonsaiZ1_gtcamRCFindEntryIntf
                0x0000000000104d30                BonsaiZ1_msdRmuGetIDIntf
                0x0000000000104d40                BonsaiZ1_msdRmuAtuDumpIntf
                0x0000000000104ea0                BonsaiZ1_msdRmuEcidDumpIntf
                0x0000000000105000                BonsaiZ1_msdRmuMib2DumpIntf
                0x0000000000105210                BonsaiZ1_msdRmuReadRegisterIntf
                0x0000000000105220                BonsaiZ1_msdRmuWriteRegisterIntf
                0x0000000000105240                BonsaiZ1_msdRmuMultiRegAccessIntf
                0x0000000000105250                BonsaiZ1_msdRmuTCAMDumpIntf
                0x0000000000105540                BonsaiZ1_msdRmuTCAMWriteIntf
                0x0000000000105710                BonsaiZ1_msdRmuTCAMReadIntf
                0x0000000000106610                BonsaiZ1_gptpSetIntEnable
                0x0000000000106700                BonsaiZ1_gptpGetIntEnable
                0x00000000001067b0                BonsaiZ1_gptpSetPortPTPEn
                0x0000000000106890                BonsaiZ1_gptpGetPortPTPEn
                0x0000000000106930                BonsaiZ1_gptpGetTimeStamp
                0x0000000000106a60                BonsaiZ1_gptpGetTSValidSt
                0x0000000000106b30                BonsaiZ1_gptpResetTimeStamp
                0x0000000000106c00                BonsaiZ1_gptpGetIntStatus
                0x0000000000106cc0                BonsaiZ1_gptpSetMeanPathDelay
                0x0000000000106d60                BonsaiZ1_gptpGetMeanPathDelay
                0x0000000000106e00                BonsaiZ1_gptpSetIgrPathDelayAsym
                0x0000000000106ea0                BonsaiZ1_gptpGetIgrPathDelayAsym
                0x0000000000106f40                BonsaiZ1_gptpSetEgrPathDelayAsym
                0x0000000000106fe0                BonsaiZ1_gptpGetEgrPathDelayAsym
                0x0000000000107080                BonsaiZ1_gptpGetTODBusyBitStatus
                0x0000000000107100                BonsaiZ1_gptpTODStoreCompensation
                0x00000000001071c0                BonsaiZ1_gptpTODStoreAll
                0x0000000000107280                BonsaiZ1_gptpTODCaptureAll
                0x0000000000107550                BonsaiZ1_gptpSetPulse
                0x0000000000107600                BonsaiZ1_gptpGetPulse
                0x00000000001076a0                BonsaiZ1_gtaiGetPTPGlobalTime
                0x0000000000107720                BonsaiZ1_gptpPortRegGet
                0x00000000001077d0                BonsaiZ1_gptpPortRegSet
                0x0000000000107870                BonsaiZ1_gptpGlobalRegGet
                0x00000000001078e0                BonsaiZ1_gptpGlobalRegSet
                0x0000000000107950                BonsaiZ1_gptp1588v2ConfigSet
                0x0000000000107b20                BonsaiZ1_gptp8021asConfigSet
                0x0000000000107ce0                BonsaiZ1_gptp8021asRevConfigSet
                0x0000000000107ea0                BonsaiZ1_gptpPreemptTsSelSet
                0x0000000000107f80                BonsaiZ1_gptpPreemptTsSelGet
                0x0000000000108020                BonsaiZ1_gptpPreemptCtrlSet
                0x0000000000108100                BonsaiZ1_gptpPreemptCtrlGet
                0x00000000001081a0                BonsaiZ1_gptpSetIntEnableIntf
                0x0000000000108200                BonsaiZ1_gptpGetIntEnableIntf
                0x0000000000108260                BonsaiZ1_gptpGetTimeStampIntf
                0x00000000001082d0                BonsaiZ1_gptpGetIntStatusIntf
                0x0000000000108340                BonsaiZ1_gptpTODStoreCompenIntf
                0x00000000001083c0                BonsaiZ1_gptpTODStoreAllIntf
                0x0000000000108440                BonsaiZ1_gptpTODCaptureAllIntf
                0x00000000001084d0                BonsaiZ1_gptpSetPulseIntf
                0x0000000000108530                BonsaiZ1_gptpGetPulseIntf
                0x0000000000108590                BonsaiZ1_gptp1588v2ConfigSetIntf
                0x00000000001085a0                BonsaiZ1_gptp8021asConfigSetIntf
                0x00000000001085b0                BonsaiZ1_gptp8021asRevCfgSetIntf
                0x0000000000108820                BonsaiZ1_gledForceOn
                0x00000000001088e0                BonsaiZ1_gledForceOff
                0x00000000001089a0                BonsaiZ1_gledLinkAct
                0x0000000000108a70                BonsaiZ1_gledModeSet
                0x0000000000108b40                BonsaiZ1_gledModeGet
                0x0000000000108bd0                BonsaiZ1_gledBlinkRateSet
                0x0000000000108c80                BonsaiZ1_gledBlinkRateGet
                0x0000000000108d60                BonsaiZ1_gledPulseStretchSet
                0x0000000000108e10                BonsaiZ1_gledPulseStretchGet
                0x0000000000108ee0                BonsaiZ1_gledSpecialModeSet
                0x0000000000108f90                BonsaiZ1_gledSpecialModeGet
                0x0000000000109000                BonsaiZ1_gledCtrlSet
                0x0000000000109040                BonsaiZ1_gledCtrlGet
                0x00000000001090b0                BonsaiZ1_gledDump
                0x0000000000109380                BonsaiZ1_gledForceOnIntf
                0x0000000000109390                BonsaiZ1_gledForceOffIntf
                0x00000000001093a0                BonsaiZ1_gledLinkActIntf
                0x00000000001093b0                BonsaiZ1_gledModeSetIntf
                0x00000000001093c0                BonsaiZ1_gledModeGetIntf
                0x00000000001093d0                BonsaiZ1_gledBlinkRateSetIntf
                0x00000000001093e0                BonsaiZ1_gledBlinkRateGetIntf
                0x00000000001093f0                BonsaiZ1_gledPulseStretchSetIntf
                0x0000000000109400                BonsaiZ1_gledPulseStretchGetIntf
                0x0000000000109410                BonsaiZ1_gledSpecialModeSetIntf
                0x0000000000109420                BonsaiZ1_gledSpecialModeGetIntf
                0x0000000000109430                BonsaiZ1_gledCtrlSetIntf
                0x0000000000109440                BonsaiZ1_gledCtrlGetIntf
                0x0000000000109450                BonsaiZ1_gtcamRCCompLoadIntf
                0x0000000000109530                BonsaiZ1_gtcamRCCompReadIntf
                0x0000000000109620                BonsaiZ1_EEPROMWrite
                0x0000000000109750                BonsaiZ1_EEPROMRead
                0x00000000001098b0                BonsaiZ1_EEPROMChipSelSet
                0x0000000000109980                BonsaiZ1_EEPROMChipSelGet
                0x0000000000109ac0                BonsaiZ1_EEPROMWriteIntf
                0x0000000000109ad0                BonsaiZ1_EEPROMReadIntf
                0x0000000000109ae0                BonsaiZ1_EEPROMChipSelSetIntf
                0x0000000000109af0                BonsaiZ1_EEPROMChipSelGetIntf
 *fill*         0x0000000000109af9        0x7 
 .text          0x0000000000109b00    0x33280 /home/roscube/Desktop/UMSD_v7.0.0_comb/UMSD_v7.0.0/obj/dev/fir/msdDrv_Fir.o
                0x0000000000109b00                Fir_msdSetSMIC45PhyReg
                0x0000000000109da0                Fir_msdGetSMIC45PhyReg
                0x000000000010a050                Fir_msdSetSMIPhyReg
                0x000000000010a1e0                Fir_msdGetSMIPhyReg
                0x000000000010a3f0                Fir_msdSetSMIPhyRegField
                0x000000000010a4e0                Fir_msdGetSMIPhyRegField
                0x000000000010a580                Fir_msdSetPagedPhyRegField
                0x000000000010a600                Fir_msdGetPagedPhyRegField
                0x000000000010a6d0                Fir_msdWritePagedPhyReg
                0x000000000010a730                Fir_msdReadPagedPhyReg
                0x000000000010a790                Fir_msdSetSMIPhyXMDIOReg
                0x000000000010a8a0                Fir_msdGetSMIPhyXMDIOReg
                0x000000000010a9e0                Fir_msdPhyReset
                0x000000000010aba0                Fir_msdDirectSetMultiChipReg
                0x000000000010abc0                Fir_msdDirectGetMultiChipReg
                0x000000000010abe0                Fir_msdDirectSetMultiChipRegField
                0x000000000010acb0                Fir_msdDirectGetMultiChipRegField
                0x000000000010ad50                Fir_msdSetSMIExtPhyReg
                0x000000000010aee0                Fir_msdGetSMIExtPhyReg
                0x000000000010b0f0                Fir_msdWritePagedExtPhyReg
                0x000000000010b150                Fir_msdReadPagedExtPhyReg
                0x000000000010b1b0                Fir_msdSetSMIExtPhyXMDIOReg
                0x000000000010b2a0                Fir_msdGetSMIExtPhyXMDIOReg
                0x000000000010ce10                Fir_gtcamFlushAll
                0x000000000010ce60                Fir_gtcamFlushEntry
                0x000000000010cec0                Fir_gtcamLoadEntry
                0x000000000010cf50                Fir_gtcamReadTCAMData
                0x000000000010cfd0                Fir_gtcamGetNextTCAMData
                0x000000000010d070                Fir_gtcamFindEntry
                0x000000000010d140                Fir_gtcamSetMode
                0x000000000010d1a0                Fir_gtcamGetMode
                0x000000000010d230                Fir_gtcamAddEntryPort
                0x000000000010d320                Fir_gtcamRemoveEntryPort
                0x000000000010d420                Fir_gtcamEgrFlushEntry
                0x000000000010d4a0                Fir_gtcamEgrFlushEntryAllPorts
                0x000000000010d500                Fir_gtcamEgrLoadEntry
                0x000000000010d6f0                Fir_gtcamEgrGetNextTCAMData
                0x000000000010d7c0                Fir_gtcamEgrReadTCAMData
                0x000000000010d880                Fir_gtcamDump
                0x000000000010e150                Fir_gtcamAdvConfig
                0x000000000010f620                Fir_gtcamRCFlushAllEntry
                0x000000000010f6e0                Fir_gtcamRCFlushEntry
                0x000000000010f7c0                Fir_gtcamRCLoadEntry
                0x000000000010fbc0                Fir_gtcamRCReadEntry
                0x000000000010fcc0                Fir_gtcamRCGetNextEntry
                0x000000000010fe00                Fir_gtcamRCFindEntry
                0x000000000010ff50                Fir_gtcamRCEntryDump
                0x0000000000110b40                Fir_gtcamRCCompFlushAll
                0x0000000000110c00                Fir_gtcamRCCompFlushPort
                0x0000000000110ce0                Fir_gtcamRCCompLoad
                0x0000000000110f40                Fir_gtcamRCCompRead
                0x0000000000112330                Fir_gfdbGetAtuEntryNext
                0x0000000000112350                Fir_gfdbFlush
                0x00000000001123c0                Fir_gfdbFlushInDB
                0x0000000000112440                Fir_gfdbMove
                0x0000000000112530                Fir_gfdbMoveInDB
                0x0000000000112620                Fir_gfdbAddMacEntry
                0x00000000001126f0                Fir_gfdbDelAtuEntry
                0x0000000000112780                Fir_gfdbGetViolation
                0x00000000001128b0                Fir_gfdbFindAtuMacEntry
                0x00000000001129e0                Fir_gfdbSetAgingTimeout
                0x0000000000112a60                Fir_gfdbGetAgingTimeout
                0x0000000000112af0                Fir_gfdbGetLearn2All
                0x0000000000112b90                Fir_gfdbSetLearn2All
                0x0000000000112be0                Fir_gfdbSetPortLearnLimit
                0x0000000000112d50                Fir_gfdbGetPortLearnLimit
                0x0000000000112e60                Fir_gfdbGetPortLearnCount
                0x0000000000112f20                Fir_gfdbGetEntryCount
                0x0000000000112f70                Fir_gfdbGetEntryCountPerFid
                0x0000000000112fc0                Fir_gfdbGetNonStaticEntryCount
                0x0000000000113010                Fir_gfdbGetNStaticEntryCountFid
                0x00000000001132c0                Fir_gpolicySetMgmtCtrl
                0x00000000001132e0                Fir_gpolicyGetMgmtCtrl
                0x0000000000113300                Fir_gpolicySetCpuDest
                0x00000000001133c0                Fir_gpolicyGetCpuDest
                0x0000000000113450                Fir_gpolicySetIgrMonitorDest
                0x0000000000113510                Fir_gpolicyGetIgrMonitorDest
                0x00000000001135a0                Fir_gpolicySetRsvd2CpuEnables
                0x00000000001135f0                Fir_gpolicyGetRsvd2CpuEnables
                0x0000000000113690                Fir_gpolicySetMGMTPri
                0x0000000000113730                Fir_gpolicyGetMGMTPri
                0x0000000000113790                Fir_gpolicySetRouteDest
                0x0000000000113850                Fir_gpolicyGetRouteDest
                0x00000000001138e0                Fir_gpolicySetMirrorDest
                0x00000000001139a0                Fir_gpolicyGetMirrorDest
                0x0000000000113a30                Fir_gpolicySetIllegalIPAddr
                0x0000000000113ad0                Fir_gpolicyGetIllegalIPAddr
                0x0000000000113b30                Fir_gpolicySetDipDaMismatch
                0x0000000000113bd0                Fir_gpolicyGetDipDaMismatch
                0x0000000000113c30                Fir_gpolicySetZeroSIP
                0x0000000000113cd0                Fir_gpolicyGetZeroSIP
                0x0000000000113d30                Fir_gpolicySetMcTtlExceeded
                0x0000000000113e00                Fir_gpolicyGetMcTtlExceeded
                0x0000000000113ed0                Fir_gpolicySetUcTtlExceeded
                0x0000000000113f90                Fir_gpolicyGetUcTtlExceeded
                0x0000000000113ff0                Fir_gprtSetPortTtlThreshold
                0x0000000000114080                Fir_gprtGetPortTtlThreshold
                0x00000000001140e0                Fir_gpolicySetIpHdrErr
                0x0000000000114180                Fir_gpolicyGetIpHdrErr
                0x00000000001141e0                Fir_gpolicySetTCPFinUrgPsh
                0x0000000000114280                Fir_gpolicyGetTCPFinUrgPsh
                0x00000000001142e0                Fir_gpolicySetTCPFlagsSeqNum
                0x0000000000114380                Fir_gpolicyGetTCPFlagsSeqNum
                0x00000000001143e0                Fir_gpolicySetTCPSYN
                0x0000000000114480                Fir_gpolicyGetTCPSYN
                0x00000000001144e0                Fir_gpolicySetTCPHSize
                0x0000000000114580                Fir_gpolicyGetTCPHSize
                0x00000000001145e0                Fir_gprtSetPortTCPMinHdrSize
                0x0000000000114670                Fir_gprtGetPortTCPMinHdrSize
                0x00000000001146d0                Fir_gpolicySetICMPSize
                0x0000000000114770                Fir_gpolicyGetICMPSize
                0x00000000001147d0                Fir_gprtSetPortICMPMaxSize
                0x0000000000114820                Fir_gprtGetPortICMPMaxSize
                0x00000000001148b0                Fir_gpolicySetUDPPort
                0x0000000000114950                Fir_gpolicyGetUDPPort
                0x00000000001149b0                Fir_gpolicySetTCPPort
                0x0000000000114a50                Fir_gpolicyGetTCPPort
                0x0000000000114ab0                Fir_gpolicySetTCPSynFin
                0x0000000000114b50                Fir_gpolicyGetTCPSynFin
                0x0000000000114bb0                Fir_gpolicySetTCPFrag
                0x0000000000114c50                Fir_gpolicyGetTCPFrag
                0x0000000000114cb0                Fir_gpolicySetNearNonTPMR
                0x0000000000114d50                Fir_gpolicyGetNearNonTPMR
                0x0000000000114db0                Fir_gpolicySetETag
                0x0000000000114e50                Fir_gpolicyGetETag
                0x0000000000114eb0                Fir_gpolicySetNonETag
                0x0000000000114f50                Fir_gpolicyGetNonETag
                0x0000000000114fb0                Fir_gpolicyDump
                0x0000000000119c80                Fir_gvtuGetEntryNext
                0x0000000000119df0                Fir_gvtuFindVidEntry
                0x0000000000119fb0                Fir_gvtuFlush
                0x0000000000119fd0                Fir_gvtuAddEntry
                0x000000000011a120                Fir_gvtuDelEntry
                0x000000000011a1a0                Fir_gvtuSetMode
                0x000000000011a320                Fir_gvtuGetMode
                0x000000000011a4c0                Fir_gvtuGetViolation_MultiChip
                0x000000000011a5d0                Fir_gvtuGetViolation
                0x000000000011a740                Fir_gvtuDump
                0x000000000011aed0                Fir_garpLoadMcEntry
                0x000000000011aff0                Fir_garpLoadUcEntry
                0x000000000011b0b0                Fir_garpFlushEntry
                0x000000000011b110                Fir_garpFlushAll
                0x000000000011b160                Fir_garpReadEntry
                0x000000000011b1e0                Fir_garpGetNextEntry
                0x000000000011b670                Fir_gstuGetEntryNext
                0x000000000011b770                Fir_gstuAddEntry
                0x000000000011b840                Fir_gstuDelEntry
                0x000000000011b8a0                Fir_gstuFindSidEntry
                0x000000000011b9b0                Fir_gstuDump
                0x000000000011bf20                Fir_gpirlInitialize
                0x000000000011bf40                Fir_gpirlInitResource
                0x000000000011bfc0                Fir_gpirlCustomSetup_sr2c
                0x000000000011c1b0                Fir_gpirlReadResource
                0x000000000011c380                Fir_gpirlWriteResource
                0x000000000011c520                Fir_gpirlGetResReg
                0x000000000011c5c0                Fir_gpirlSetResReg
                0x000000000011ccc0                Fir_gstatsFlushAll
                0x000000000011cce0                Fir_gstatsFlushPort
                0x000000000011cd20                Fir_gstatsGetPortCounter
                0x000000000011cd80                Fir_gstatsGetPortAllCounters
                0x000000000011cdd0                Fir_gstatsGetHistogramMode
                0x000000000011ce90                Fir_gstatsSetHistogramMode
                0x000000000011ced0                Fir_gmibDump
                0x000000000011da10                Fir_gvlnSetPortVid
                0x000000000011da70                Fir_gvlnGetPortVid
                0x000000000011db00                Fir_gprtSetForceDefaultVid
                0x000000000011db60                Fir_gprtGetForceDefaultVid
                0x000000000011dc00                Fir_gvlnSetPortVlanDot1qMode
                0x000000000011dc60                Fir_gvlnGetPortVlanDot1qMode
                0x000000000011dcf0                Fir_gprtSetDiscardTagged
                0x000000000011dd50                Fir_gprtGetDiscardTagged
                0x000000000011ddf0                Fir_gprtSetDiscardUntagged
                0x000000000011de50                Fir_gprtGetDiscardUntagged
                0x000000000011def0                Fir_gprtSetUnicastFloodBlock
                0x000000000011df50                Fir_gprtGetUnicastFloodBlock
                0x000000000011dff0                Fir_gprtSetMulticastFloodBlock
                0x000000000011e050                Fir_gprtGetMulticastFloodBlock
                0x000000000011e0f0                Fir_gprtSetDiscardBCastMode
                0x000000000011e150                Fir_gprtGetDiscardBCastMode
                0x000000000011e1f0                Fir_gprtSetIGMPSnoopEnable
                0x000000000011e250                Fir_gprtGetIGMPSnoopEnable
                0x000000000011e2f0                Fir_gprtGetHeaderMode
                0x000000000011e390                Fir_gprtSetHeaderMode
                0x000000000011e3f0                Fir_gprtGetDropOnLock
                0x000000000011e490                Fir_gprtSetDropOnLock
                0x000000000011e4f0                Fir_gprtSetJumboMode
                0x000000000011e560                Fir_gprtGetJumboMode
                0x000000000011e5f0                Fir_gprtSetSpecifiedMTU
                0x000000000011e670                Fir_gprtGetSpecifiedMTU
                0x000000000011e700                Fir_gprtSetLearnEnable
                0x000000000011e7e0                Fir_gprtGetLearnEnable
                0x000000000011e870                Fir_gprtGetVTUPriorityOverride
                0x000000000011e900                Fir_gprtSetVTUPriorityOverride
                0x000000000011e960                Fir_gprtGetSAPriorityOverride
                0x000000000011e9f0                Fir_gprtSetSAPriorityOverride
                0x000000000011ea50                Fir_gprtGetDAPriorityOverride
                0x000000000011eae0                Fir_gprtSetDAPriorityOverride
                0x000000000011eb40                Fir_gprtGetMessagePort
                0x000000000011ebe0                Fir_gprtSetMessagePort
                0x000000000011ec40                Fir_gprtGetEtherType
                0x000000000011ec60                Fir_gprtSetEtherType
                0x000000000011ec80                Fir_gprtGetAllowVidZero
                0x000000000011ed20                Fir_gprtSetAllowVidZero
                0x000000000011ed80                Fir_gprtSetTrunkPort
                0x000000000011ee40                Fir_gprtGetTrunkPort
                0x000000000011ef20                Fir_gprtSetFlowCtrl
                0x000000000011efd0                Fir_gprtGetFlowCtrl
                0x000000000011f040                Fir_gprtSetEgressMonitorSource
                0x000000000011f0a0                Fir_gprtGetEgressMonitorSource
                0x000000000011f140                Fir_gprtSetIngressMonitorSource
                0x000000000011f1a0                Fir_gprtGetIngressMonitorSource
                0x000000000011f240                Fir_grcSetEgressRate
                0x000000000011f470                Fir_grcSetELimitMode
                0x000000000011f4d0                Fir_grcGetELimitMode
                0x000000000011f560                Fir_grcGetEgressRate
                0x000000000011f6a0                Fir_gprtSetDuplex
                0x000000000011f710                Fir_gprtGetDuplex
                0x000000000011f7e0                Fir_gprtGetDuplexStatus
                0x000000000011f870                Fir_gprtGetForceLink
                0x000000000011f940                Fir_gprtSetForceLink
                0x000000000011f9b0                Fir_gprtGetLinkState
                0x000000000011fa40                Fir_gprtSetForceSpeed
                0x000000000011fd00                Fir_gprtGetForceSpeed
                0x000000000011fea0                Fir_gprtGetSpeed
                0x000000000011ffd0                Fir_gprtGetVlanPorts
                0x00000000001200b0                Fir_gprtSetVlanPorts
                0x00000000001201d0                Fir_gprtGetFrameMode
                0x0000000000120260                Fir_gprtSetFrameMode
                0x00000000001202c0                Fir_gprtSetPortECID
                0x0000000000120360                Fir_gprtGetPortECID
                0x00000000001203c0                Fir_gprtSetIgnoreETag
                0x0000000000120450                Fir_gprtGetIgnoreETag
                0x00000000001204b0                Fir_gprtSetEgressMode
                0x0000000000120510                Fir_gprtGetEgressMode
                0x00000000001205a0                Fir_gprtSetExtendedPortCtrlReg
                0x0000000000120680                Fir_gprtGetExtendedPortCtrlReg
                0x0000000000120720                Fir_gprtGetPortState
                0x00000000001207b0                Fir_gprtSetPortState
                0x0000000000120810                Fir_gprtSetIgnoreFcs
                0x0000000000120870                Fir_gprtGetIgnoreFcs
                0x0000000000120910                Fir_gprtSetAllowBadFcs
                0x0000000000120970                Fir_gprtGetAllowBadFcs
                0x0000000000120a10                Fir_gprtSetPauseLimitOut
                0x0000000000120a60                Fir_gprtGetPauseLimitOut
                0x0000000000120ab0                Fir_gprtSetPauseLimitIn
                0x0000000000120af0                Fir_gprtGetPauseLimitIn
                0x0000000000120b40                Fir_gprtSetQueueToPause
                0x0000000000120b90                Fir_gprtGetQueueToPause
                0x0000000000120be0                Fir_gprtSetRxPriFlowCtrlEnable
                0x0000000000120cd0                Fir_gprtGetRxPriFlowCtrlEnable
                0x0000000000120d80                Fir_gprtSetRxPriFlowCtrlToQueue
                0x0000000000120e70                Fir_gprtGetRxPriFlowCtrlToQueue
                0x0000000000120f10                Fir_gprtSetTxPriFlowCtrlEnable
                0x0000000000121000                Fir_gprtGetTxPriFlowCtrlEnable
                0x00000000001210b0                Fir_gprtGetOutQueueSize
                0x0000000000121140                Fir_gprtSetMapDA
                0x00000000001211a0                Fir_gprtGetMapDA
                0x0000000000121240                Fir_gprtSetPortLocked
                0x00000000001212a0                Fir_gprtGetPortLocked
                0x0000000000121340                Fir_gprtSetHoldAt1
                0x00000000001213a0                Fir_gprtGetHoldAt1
                0x0000000000121440                Fir_gprtSetInt0nAgeOut
                0x00000000001214a0                Fir_gprtGetInt0nAgeOut
                0x0000000000121540                Fir_gprtSetRefreshLocked
                0x00000000001215a0                Fir_gprtGetRefreshLocked
                0x0000000000121640                Fir_gprtSetIgnoreWrongData
                0x00000000001216a0                Fir_gprtGetIgnoreWrongData
                0x0000000000121740                Fir_gprtSetARPMirror
                0x00000000001217a0                Fir_gprtGetARPMirror
                0x0000000000121840                Fir_gprtSetPreemptSize
                0x00000000001218a0                Fir_gprtGetPreemptSize
                0x0000000000121940                Fir_gprtSetPreemptEnable
                0x00000000001219a0                Fir_gprtGetPreemptEnable
                0x0000000000121a40                Fir_gprtSetPreemptQueue
                0x0000000000121aa0                Fir_gprtGetPreemptQueue
                0x0000000000121b40                Fir_gprtRegDump
                0x0000000000122610                Fir_gBpeEnableSet
                0x0000000000122760                Fir_gBpeEnableGet
                0x0000000000122800                Fir_gecidAddEntry
                0x0000000000122840                Fir_gecidFlushAll
                0x00000000001228b0                Fir_gecidMove
                0x0000000000122970                Fir_gecidFlushEntry
                0x0000000000122a00                Fir_gecidGetEcidEntryNext
                0x0000000000122a80                Fir_gecidFindEcidEntry
                0x0000000000122b80                Fir_gecidGetEntryCount
                0x0000000000122e70                Fir_gecidDump
                0x0000000000122fe0                Fir_gqosSetPrioMapRule
                0x0000000000123040                Fir_gqosGetPrioMapRule
                0x00000000001230e0                Fir_gprtSetInitialPri
                0x0000000000123150                Fir_gprtGetInitialPri
                0x0000000000123220                Fir_gprtSetDefQpri
                0x0000000000123280                Fir_gprtGetDefQpri
                0x0000000000123320                Fir_gprtSetIEEEPrioMap
                0x0000000000123530                Fir_gprtGetIEEEPrioMap
                0x0000000000123750                Fir_gprtRewriteDscp
                0x00000000001237b0                Fir_gprtSetCosToQueue
                0x0000000000123840                Fir_gprtGetCosToQueue
                0x00000000001238a0                Fir_gprtSetCosToDscp
                0x0000000000123930                Fir_gprtGetCosToDscp
                0x0000000000123990                Fir_gprtSetDefFpri
                0x00000000001239f0                Fir_gprtGetDefFpri
                0x0000000000123a90                Fir_gprtSetQueueCtrl
                0x0000000000123ba0                Fir_gprtGetQueueCtrl
                0x0000000000123ce0                Fir_gprtSetPortSched
                0x0000000000123d30                Fir_gprtGetPortSched
                0x0000000000123e40                Fir_gprtSetQoSWeight
                0x00000000001241e0                Fir_gprtGetQoSWeight
                0x0000000000124500                Fir_gsysSetTrunkMaskTable
                0x0000000000124630                Fir_gsysGetTrunkMaskTable
                0x00000000001247a0                Fir_gsysSetHashTrunk
                0x00000000001247d0                Fir_gsysGetHashTrunk
                0x0000000000124840                Fir_gsysSetTrunkRouting
                0x00000000001249a0                Fir_gsysGetTrunkRouting
                0x0000000000124b40                Fir_gsysSetFloodBC
                0x0000000000124b70                Fir_gsysGetFloodBC
                0x0000000000124be0                Fir_gsysSetEgressMonitorDest
                0x0000000000124c30                Fir_gsysGetEgressMonitorDest
                0x0000000000124cd0                Fir_gsysSetSMISetup
                0x0000000000124eb0                Fir_gsysGetSMISetup
                0x0000000000125090                Fir_gsysGlobal1RegDump
                0x0000000000125160                Fir_gsysGlobal2RegDump
                0x0000000000125230                Fir_gsysSetRMUMode
                0x00000000001252c0                Fir_gsysGetRMUMode
                0x0000000000125320                Fir_gsysQbvWrite
                0x00000000001253f0                Fir_gsysQbvRead
                0x00000000001254d0                Fir_gsysDevIntEnableSet
                0x00000000001254f0                Fir_gsysDevIntEnableGet
                0x0000000000125550                Fir_gsysDevIntStatusGet
                0x00000000001255b0                Fir_gsysActiveIntEnableSet
                0x0000000000125640                Fir_gsysActiveIntEnableGet
                0x00000000001256a0                Fir_gsysActiveIntStatusGet
                0x0000000000125700                Fir_serdesReset
                0x00000000001261e0                Fir_msdRmuGetID
                0x0000000000126310                Fir_msdRmuAtuDump
                0x0000000000126530                Fir_msdRmuEcidDump
                0x0000000000126780                Fir_msdRmuMib2Dump
                0x0000000000126bb0                Fir_msdRmuReadRegister
                0x0000000000126be0                Fir_msdRmuWriteRegister
                0x0000000000126c00                Fir_msdRmuMultiRegAccess
                0x0000000000126df0                Fir_msdRmuTCAMDump
                0x0000000000126f60                Fir_msdRmuTCAMWrite
                0x0000000000127110                Fir_msdRmuTCAMRead
                0x00000000001272c0                Fir_msdRmuRegDump
                0x0000000000127390                Fir_gtcamLoadEntryIntf
                0x00000000001275f0                Fir_gtcamReadTCAMDataIntf
                0x0000000000127870                Fir_gtcamGetNextTCAMDataIntf
                0x0000000000127af0                Fir_gtcamFindEntryIntf
                0x0000000000127da0                Fir_gtcamSetModeIntf
                0x0000000000127db0                Fir_gtcamGetModeIntf
                0x0000000000127e10                Fir_gtcamEgrFlushEntryIntf
                0x0000000000127e20                Fir_gtcamEgrFlushAllPortsIntf
                0x0000000000127e30                Fir_gtcamEgrLoadEntryIntf
                0x0000000000127f00                Fir_gtcamEgrGetNextTCAMDataIntf
                0x0000000000127ff0                Fir_gtcamEgrReadTCAMDataIntf
                0x00000000001280e0                Fir_gtcamAdvConfigIntf
                0x0000000000128d90                Fir_gfrerSeqGenFlushAll
                0x0000000000128da0                Fir_gfrerSeqGenFlushEntry
                0x0000000000128dc0                Fir_gfrerSeqGenRead
                0x0000000000128e60                Fir_gfrerSeqGenLoad
                0x0000000000128ec0                Fir_gfrerIndvRcvyFlushAll
                0x0000000000128ed0                Fir_gfrerIndvRcvyFlushEntry
                0x0000000000128f00                Fir_gfrerIndvRcvyRead
                0x0000000000129020                Fir_gfrerIndvRcvyLoad
                0x00000000001290d0                Fir_gfrerIndvRcvyGetNext
                0x00000000001291f0                Fir_gfrerIndvRcvyReadClear
                0x0000000000129310                Fir_gfrerSeqRcvyFlushAll
                0x0000000000129320                Fir_gfrerSeqRcvyFlushEntry
                0x0000000000129350                Fir_gfrerSeqRcvyRead
                0x0000000000129540                Fir_gfrerSeqRcvyLoad
                0x00000000001296b0                Fir_gfrerSeqRcvyGetNext
                0x00000000001298a0                Fir_gfrerSeqRcvyGetViolation
                0x0000000000129a90                Fir_gfrerSeqRcvyReadClear
                0x0000000000129c80                Fir_gfrerBank0SCtrFlushAll
                0x0000000000129c90                Fir_gfrerBank0SCtrFlushCtr
                0x0000000000129ca0                Fir_gfrerBank0SCtrRead
                0x0000000000129f50                Fir_gfrerBank0SCtrLoad
                0x0000000000129fd0                Fir_gfrerBank0SCtrGetNext
                0x000000000012a290                Fir_gfrerBank0SCtrReadClear
                0x000000000012a550                Fir_gfrerBank1SCtrFlushAll
                0x000000000012a560                Fir_gfrerBank1SCtrFlushCtr
                0x000000000012a570                Fir_gfrerBank1SCtrRead
                0x000000000012a7f0                Fir_gfrerBank1SCtrLoad
                0x000000000012a870                Fir_gfrerBank1SCtrGetNext
                0x000000000012aaf0                Fir_gfrerBank1SCtrReadClear
                0x000000000012ad70                Fir_gfrerSeqGenLoadIntf
                0x000000000012adf0                Fir_gfrerSeqGenReadIntf
                0x000000000012ae70                Fir_gfrerIndvRcvyLoadIntf
                0x000000000012aef0                Fir_gfrerIndvRcvyReadIntf
                0x000000000012af60                Fir_gfrerIndvRcvyGetNextIntf
                0x000000000012afd0                Fir_gfrerIndvRcvyReadClearIntf
                0x000000000012b040                Fir_gfrerSeqRcvyLoadIntf
                0x000000000012b0e0                Fir_gfrerSeqRcvyReadIntf
                0x000000000012b170                Fir_gfrerSeqRcvyGetNextIntf
                0x000000000012b200                Fir_gfrerSeqRcvyGetViolationIntf
                0x000000000012b290                Fir_gfrerSeqRcvyReadClearIntf
                0x000000000012b320                Fir_gfrerBank0SCtrReadIntf
                0x000000000012b3d0                Fir_gfrerBank0SCtrLoadIntf
                0x000000000012b450                Fir_gfrerBank0SCtrGetNextIntf
                0x000000000012b500                Fir_gfrerBank0SCtrReadClearIntf
                0x000000000012b5b0                Fir_gfrerBank1SCtrLoadIntf
                0x000000000012b630                Fir_gfrerBank1SCtrReadIntf
                0x000000000012b6e0                Fir_gfrerBank1SCtrGetNextIntf
                0x000000000012b790                Fir_gfrerBank1SCtrReadClearIntf
                0x000000000012b840                Fir_gfdbAddMacEntryIntf
                0x000000000012b8c0                Fir_gfdbGetAtuEntryNextIntf
                0x000000000012b9a0                Fir_gfdbFlushIntf
                0x000000000012b9b0                Fir_gfdbFlushInDBIntf
                0x000000000012b9c0                Fir_gfdbMoveIntf
                0x000000000012b9d0                Fir_gfdbMoveInDBIntf
                0x000000000012b9e0                Fir_gfdbPortRemoveIntf
                0x000000000012ba10                Fir_gfdbPortRemoveInDBIntf
                0x000000000012ba40                Fir_gfdbGetViolationIntf
                0x000000000012bb20                Fir_gfdbFindAtuMacEntryIntf
                0x000000000012bc10                Fir_gfdbDump
                0x000000000012bdc0                Fir_gvtuFindVidEntryIntf
                0x000000000012bf30                Fir_gvtuExistVidEntryIntf
                0x000000000012bfd0                Fir_gvtuFlushIntf
                0x000000000012bfe0                Fir_gvtuAddEntryIntf
                0x000000000012c100                Fir_gvtuDelEntryIntf
                0x000000000012c180                Fir_gvtuSetModeIntf
                0x000000000012c190                Fir_gvtuGetModeIntf
                0x000000000012c1a0                Fir_gvtuGetViolationIntf
                0x000000000012c260                Fir_gvtuGetEntryCountIntf
                0x000000000012c310                Fir_gvtuSetMemberTagIntf
                0x000000000012c400                Fir_gvtuGetMemberTagIntf
                0x000000000012c4e0                Fir_gvtuGetEntryNextIntf
                0x000000000012c610                Fir_gstuAddEntryIntf
                0x000000000012c6e0                Fir_gstuGetEntryNextIntf
                0x000000000012c790                Fir_gstuDelEntryIntf
                0x000000000012c7f0                Fir_gstuFindSidEntryIntf
                0x000000000012c900                Fir_gstuGetEntryCountIntf
                0x000000000012c9a0                Fir_gpirlInitializeIntf
                0x000000000012c9b0                Fir_gpirlInitResourceIntf
                0x000000000012c9c0                Fir_gpirlCustomSetup_sr2cIntf
                0x000000000012ca80                Fir_gpirlReadResourceIntf
                0x000000000012cb60                Fir_gpirlWriteResourceIntf
                0x000000000012cc20                Fir_gpirlGetResRegIntf
                0x000000000012cc30                Fir_gpirlSetResRegIntf
                0x000000000012cc40                Fir_gpirlAdvConfigIntf
                0x000000000012cd40                Fir_gpirlAdvConfigDisableIntf
                0x000000000012d170                Fir_gqavSetPortQpriXRate
                0x000000000012d2a0                Fir_gqavGetPortQpriXRate
                0x000000000012d380                Fir_gqavSetPortQpriXHiLimit
                0x000000000012d450                Fir_gqavGetPortQpriXHiLimit
                0x000000000012d500                Fir_garpLoadMcEntryIntf
                0x000000000012d560                Fir_garpLoadUcEntryIntf
                0x000000000012d5c0                Fir_garpReadEntryIntf
                0x000000000012d650                Fir_garpGetNextEntryIntf
                0x000000000012d6e0                Fir_gstatsGetPortCounterIntf
                0x000000000012d6f0                Fir_gstatsGetPortAllCntersIntf
                0x000000000012d900                Fir_gstatsGetHistogramModeIntf
                0x000000000012d910                Fir_gstatsSetHistogramModeIntf
                0x000000000012d920                Fir_gvlnSetPortVlanQModeIntf
                0x000000000012d930                Fir_gvlnGetPortVlanQModeIntf
                0x000000000012d940                Fir_gprtSetDiscardTaggedIntf
                0x000000000012d950                Fir_gprtGetDiscardTaggedIntf
                0x000000000012d960                Fir_gprtSetDiscardUntaggedIntf
                0x000000000012d970                Fir_gprtGetDiscardUntaggedIntf
                0x000000000012d980                Fir_gprtSetUnicFloodBlockIntf
                0x000000000012d990                Fir_gprtGetUnicFloodBlockIntf
                0x000000000012d9a0                Fir_gprtSetMultiFloodBlockIntf
                0x000000000012d9b0                Fir_gprtGetMultiFloodBlockIntf
                0x000000000012d9c0                Fir_gprtSetDiscardBCastModeIntf
                0x000000000012d9d0                Fir_gprtGetDiscardBCastModeIntf
                0x000000000012d9e0                Fir_gprtSetJumboModeIntf
                0x000000000012d9f0                Fir_gprtGetJumboModeIntf
                0x000000000012da00                Fir_gprtSetSpecifiedMTUIntf
                0x000000000012da10                Fir_gprtGetSpecifiedMTUIntf
                0x000000000012da20                Fir_gprtSetLearnEnableIntf
                0x000000000012da30                Fir_gprtGetLearnEnableIntf
                0x000000000012da40                Fir_gprtGetVTUPriOverrideIntf
                0x000000000012da50                Fir_gprtSetVTUPriOverrideIntf
                0x000000000012da60                Fir_gprtGetSAPriOverrideIntf
                0x000000000012da70                Fir_gprtSetSAPriOverrideIntf
                0x000000000012da80                Fir_gprtGetDAPriOverrideIntf
                0x000000000012da90                Fir_gprtSetDAPriOverrideIntf
                0x000000000012daa0                Fir_gprtSetFlowCtrlIntf
                0x000000000012dab0                Fir_gprtGetFlowCtrlIntf
                0x000000000012dac0                Fir_gprtSetForceSpeedIntf
                0x000000000012dae0                Fir_gprtGetForceSpeedIntf
                0x000000000012daf0                Fir_grcSetEgressRateIntf
                0x000000000012db00                Fir_grcGetEgressRateIntf
                0x000000000012db10                Fir_grcSetELimitModeIntf
                0x000000000012db20                Fir_grcGetELimitModeIntf
                0x000000000012db30                Fir_gprtSetDuplexIntf
                0x000000000012db40                Fir_gprtGetDuplexIntf
                0x000000000012db50                Fir_gprtGetDuplexStatusIntf
                0x000000000012db60                Fir_gprtGetForceLinkIntf
                0x000000000012db70                Fir_gprtSetForceLinkIntf
                0x000000000012db80                Fir_gprtGetSpeedIntf
                0x000000000012db90                Fir_gprtGetFrameModeIntf
                0x000000000012dba0                Fir_gprtSetFrameModeIntf
                0x000000000012dbb0                Fir_gprtSetEgressModeIntf
                0x000000000012dbd0                Fir_gprtGetEgressModeIntf
                0x000000000012dbe0                Fir_gprtGetPortStateIntf
                0x000000000012dbf0                Fir_gprtSetPortStateIntf
                0x000000000012dc00                Fir_gqosSetPrioMapRuleIntf
                0x000000000012dc10                Fir_gqosGetPrioMapRuleIntf
                0x000000000012dc20                Fir_gprtSetInitialPriIntf
                0x000000000012dc30                Fir_gprtGetInitialPriIntf
                0x000000000012dc40                Fir_gprtSetDefQpriIntf
                0x000000000012dc50                Fir_gprtGetDefQpriIntf
                0x000000000012dc60                Fir_gprtSetIEEEPrioMapIntf
                0x000000000012dcc0                Fir_gprtGetIEEEPrioMapIntf
                0x000000000012dd80                Fir_gecidAddEntryIntf
                0x000000000012de10                Fir_gecidGetEcidEntryNextIntf
                0x000000000012ded0                Fir_gecidFindEcidEntryIntf
                0x000000000012dfa0                Fir_gprtSetQueueCtrlIntf
                0x000000000012dfb0                Fir_gprtGetQueueCtrlIntf
                0x000000000012dfc0                Fir_gprtSetPortSchedIntf
                0x000000000012dfd0                Fir_gprtGetPortSchedIntf
                0x000000000012dfe0                Fir_gprtSetQoSWeightIntf
                0x000000000012e0e0                Fir_gprtGetQoSWeightIntf
                0x000000000012e1e0                Fir_gtcamRCLoadEntryIntf
                0x000000000012e3a0                Fir_gtcamRCReadEntryIntf
                0x000000000012e580                Fir_gtcamRCGetNextEntryIntf
                0x000000000012e760                Fir_gtcamRCFindEntryIntf
                0x000000000012e970                Fir_msdRmuGetIDIntf
                0x000000000012e980                Fir_msdRmuAtuDumpIntf
                0x000000000012eae0                Fir_msdRmuEcidDumpIntf
                0x000000000012ec40                Fir_msdRmuMib2DumpIntf
                0x000000000012ee50                Fir_msdRmuReadRegisterIntf
                0x000000000012ee60                Fir_msdRmuWriteRegisterIntf
                0x000000000012ee80                Fir_msdRmuMultiRegAccessIntf
                0x000000000012ee90                Fir_msdRmuTCAMDumpIntf
                0x000000000012f170                Fir_msdRmuTCAMWriteIntf
                0x000000000012f330                Fir_msdRmuTCAMReadIntf
                0x0000000000130220                Fir_gptpSetIntEnable
                0x0000000000130320                Fir_gptpGetIntEnable
                0x00000000001303d0                Fir_gptpSetPortPTPEn
                0x00000000001304b0                Fir_gptpGetPortPTPEn
                0x0000000000130550                Fir_gptpGetTimeStamp
                0x0000000000130680                Fir_gptpGetTSValidSt
                0x0000000000130760                Fir_gptpResetTimeStamp
                0x0000000000130830                Fir_gptpGetIntStatus
                0x00000000001308f0                Fir_gptpSetMeanPathDelay
                0x0000000000130990                Fir_gptpGetMeanPathDelay
                0x0000000000130a30                Fir_gptpSetIgrPathDelayAsym
                0x0000000000130ad0                Fir_gptpGetIgrPathDelayAsym
                0x0000000000130b70                Fir_gptpSetEgrPathDelayAsym
                0x0000000000130c10                Fir_gptpGetEgrPathDelayAsym
                0x0000000000130cb0                Fir_gptpGetTODBusyBitStatus
                0x0000000000130d30                Fir_gptpTODStoreCompensation
                0x0000000000130df0                Fir_gptpTODStoreAll
                0x0000000000130eb0                Fir_gptpTODCaptureAll
                0x0000000000131180                Fir_gptpSetPulse
                0x0000000000131230                Fir_gptpGetPulse
                0x00000000001312d0                Fir_gtaiGetPTPGlobalTime
                0x0000000000131350                Fir_gptpPortRegGet
                0x0000000000131400                Fir_gptpPortRegSet
                0x00000000001314b0                Fir_gptpGlobalRegGet
                0x0000000000131520                Fir_gptpGlobalRegSet
                0x0000000000131590                Fir_gTaiRegGet
                0x0000000000131600                Fir_gTaiRegSet
                0x0000000000131670                Fir_gptp1588v2ConfigSet
                0x0000000000131840                Fir_gptp8021asConfigSet
                0x0000000000131a00                Fir_gptp8021asRevConfigSet
                0x0000000000131bc0                Fir_gptpPreemptTimestampSelSet
                0x0000000000131ca0                Fir_gptpPreemptTimestampSelGet
                0x0000000000131d40                Fir_gptpPreemptCtrlSet
                0x0000000000131e20                Fir_gptpPreemptCtrlGet
                0x0000000000131ec0                Fir_gtaiTrigGenTimerSelGet
                0x0000000000131f40                Fir_gtaiTrigGenTimerSelSet
                0x0000000000132000                Fir_gptpSetIntEnableIntf
                0x0000000000132060                Fir_gptpGetIntEnableIntf
                0x00000000001320c0                Fir_gptpGetTimeStampIntf
                0x0000000000132130                Fir_gptpGetIntStatusIntf
                0x00000000001321a0                Fir_gptpTODStoreCompenIntf
                0x0000000000132220                Fir_gptpTODStoreAllIntf
                0x00000000001322a0                Fir_gptpTODCaptureAllIntf
                0x0000000000132330                Fir_gptpSetPulseIntf
                0x0000000000132390                Fir_gptpGetPulseIntf
                0x00000000001323f0                Fir_gptp1588v2ConfigSetIntf
                0x0000000000132400                Fir_gptp8021asConfigSetIntf
                0x0000000000132410                Fir_gptp8021asRevConfigSetIntf
                0x0000000000132680                Fir_gledForceOn
                0x0000000000132740                Fir_gledForceOff
                0x0000000000132800                Fir_gledLinkAct
                0x00000000001328f0                Fir_gledModeSet
                0x00000000001329c0                Fir_gledModeGet
                0x0000000000132a50                Fir_gledBlinkRateSet
                0x0000000000132b00                Fir_gledBlinkRateGet
                0x0000000000132be0                Fir_gledPulseStretchSet
                0x0000000000132c90                Fir_gledPulseStretchGet
                0x0000000000132d60                Fir_gledSpecialModeSet
                0x0000000000132e10                Fir_gledSpecialModeGet
                0x0000000000132e80                Fir_gledCtrlSet
                0x0000000000132ec0                Fir_gledCtrlGet
                0x0000000000132f30                Fir_gledDump
                0x0000000000133200                Fir_gledForceOnIntf
                0x0000000000133210                Fir_gledForceOffIntf
                0x0000000000133220                Fir_gledLinkActIntf
                0x0000000000133230                Fir_gledModeSetIntf
                0x0000000000133240                Fir_gledModeGetIntf
                0x0000000000133250                Fir_gledBlinkRateSetIntf
                0x0000000000133260                Fir_gledBlinkRateGetIntf
                0x0000000000133270                Fir_gledPulseStretchSetIntf
                0x0000000000133280                Fir_gledPulseStretchGetIntf
                0x0000000000133290                Fir_gledSpecialModeSetIntf
                0x00000000001332a0                Fir_gledSpecialModeGetIntf
                0x00000000001332b0                Fir_gledCtrlSetIntf
                0x00000000001332c0                Fir_gledCtrlGetIntf
                0x00000000001332d0                Fir_gtcamRCCompLoadIntf
                0x00000000001333b0                Fir_gtcamRCCompReadIntf
                0x00000000001334a0                Fir_EEPROMWrite
                0x00000000001335d0                Fir_EEPROMRead
                0x0000000000133730                Fir_EEPROMChipSelSet
                0x0000000000133800                Fir_EEPROMChipSelGet
                0x0000000000133940                Fir_EEPROMWriteIntf
                0x0000000000133950                Fir_EEPROMReadIntf
                0x0000000000133960                Fir_EEPROMChipSelSetIntf
                0x0000000000133970                Fir_EEPROMChipSelGetIntf
                0x0000000000134190                Fir_gatsFlushAll
                0x00000000001341a0                Fir_gatsFlushOne
                0x00000000001341c0                Fir_gatsSetGrpId
                0x0000000000134270                Fir_gatsGetGrpId
                0x0000000000134310                Fir_gatsSetCbsLimit
                0x00000000001343c0                Fir_gatsGetCbsLimit
                0x0000000000134460                Fir_gatsSetRateLimit
                0x00000000001345d0                Fir_gatsGetRateLimit
                0x0000000000134680                Fir_gatsSetMaxResidenceTime
                0x0000000000134740                Fir_gatsGetMaxResidenceTime
                0x00000000001347e0                Fir_gatsSetQueueEnables
                0x0000000000134870                Fir_gatsGetQueueEnables
                0x0000000000135140                Fir_gqciStreamFiltFlushAll
                0x0000000000135190                Fir_gqciStreamFiltSet
                0x0000000000135320                Fir_gqciStreamFiltBlockStatSet
                0x0000000000135450                Fir_gqciStreamFiltBlockStatGet
                0x0000000000135520                Fir_gqciStreamFiltEnAts
                0x0000000000135650                Fir_gqciStreamFiltEnGate
                0x0000000000135780                Fir_gqciStreamFiltMatchCtrGet
                0x0000000000135850                Fir_gqciStreamFiltFilterCtrGet
                0x0000000000135920                Fir_gqciStreamGateFiltCtrGet
                0x00000000001359f0                Fir_gqciFlowMeterFiltCtrGet
                0x0000000000135ac0                Fir_gqciStreamGateFlushAll
                0x0000000000135b10                Fir_gqciStreamGateDefStateSet
                0x0000000000135c70                Fir_gqciStreamGateScaleSet
                0x0000000000135db0                Fir_gqciStreamGateTimeGenIdSet
                0x0000000000135ed0                Fir_gqciStreamGateEntryAdd
                0x00000000001361e0                Fir_gqciStreamGateTimeGenFlush
                0x00000000001362b0                Fir_gqciStreamGateTimeGenSet
                0x00000000001364c0                Fir_gqciFlowMeterFlushAll
                0x0000000000136510                Fir_gqciFlowMeterCoupleFlagSet
                0x0000000000136640                Fir_gqciFlowMeterCoupleFlagGet
                0x0000000000136720                Fir_gqciFlowMeterDropOnYelSet
                0x0000000000136850                Fir_gqciFlowMeterDropOnYelGet
                0x0000000000136930                Fir_gqciFlowMeterRedBlockEnSet
                0x0000000000136a50                Fir_gqciFlowMeterRedBlockEnGet
                0x0000000000136b30                Fir_gqciFlowMeterRedBlkStatSet
                0x0000000000136c60                Fir_gqciFlowMeterRedBlkStatGet
                0x0000000000136d40                Fir_gqciFlowMeterAdvConfig
                0x0000000000137200                Fir_gqciStreamGateEntryAddIntf
                0x00000000001372a0                Fir_gmacsecRead
                0x00000000001381a0                Fir_gmacsecWrite
                0x0000000000139830                Fir_gmacsecFlushAll
                0x0000000000139920                Fir_gmacsecCreateRule
                0x00000000001399f0                Fir_gmacsecDeleteRule
                0x0000000000139a40                Fir_gmacsecGetRule
                0x0000000000139b10                Fir_gmacsecCreateRxSecY
                0x0000000000139bb0                Fir_gmacsecCreateTxSecY
                0x0000000000139c50                Fir_gmacsecDeleteTxSecY
                0x0000000000139c80                Fir_gmacsecDeleteRxSecY
                0x0000000000139cb0                Fir_gmacsecGetTxSecY
                0x0000000000139d50                Fir_gmacsecGetRxSecY
                0x0000000000139df0                Fir_gmacsecCreateRxSC
                0x0000000000139e90                Fir_gmacsecDeleteRxSC
                0x0000000000139ec0                Fir_gmacsecGetRxSC
                0x0000000000139f60                Fir_gmacsecCreateTxSC
                0x000000000013a000                Fir_gmacsecDeleteTxSC
                0x000000000013a030                Fir_gmacsecGetTxSC
                0x000000000013a0d0                Fir_gmacsecCreateRxSA
                0x000000000013a180                Fir_gmacsecDeleteRxSA
                0x000000000013a1b0                Fir_gmacsecGetRxSA
                0x000000000013a260                Fir_gmacsecCreateTxSA
                0x000000000013a310                Fir_gmacsecDeleteTxSA
                0x000000000013a340                Fir_gmacsecGetTxSA
                0x000000000013a3f0                Fir_gmacsecGetTXSecYStates
                0x000000000013a780                Fir_gmacsecGetTXSCStates
                0x000000000013a8d0                Fir_gmacsecGetRXSecYStates
                0x000000000013acd0                Fir_gmacsecGetRXSCStates
                0x000000000013af00                Fir_gmacsecSetTxPNThreshold
                0x000000000013af40                Fir_gmacsecGetTxPNThreshold
                0x000000000013afd0                Fir_gmacsecSetTxXPNThreshold
                0x000000000013b050                Fir_gmacsecGetTxXPNThreshold
                0x000000000013b120                Fir_gmacsecSetRxDefaultSCI
                0x000000000013b1d0                Fir_gmacsecGetRxDefaultSCI
                0x000000000013b2c0                Fir_gmacsecSetTxSCIntCtrl
                0x000000000013b540                Fir_gmacsecGetTxSCIntCtrl
                0x000000000013b780                Fir_gmacsecGetNextTxSCIntStatus
                0x000000000013ba30                Fir_gmacsecEnableIngressSet
                0x000000000013bb20                Fir_gmacsecEnableEgressSet
                0x000000000013bc10                Fir_gmacsecEnableIngressGet
                0x000000000013bcc0                Fir_gmacsecEnableEgressGet
                0x000000000013bd70                Fir_gmacsecGetEvent
                0x000000000013bec0                Fir_gmacsecGetEventIntf
                0x000000000013bf40                Fir_gmacsecCreateRuleIntf
                0x000000000013c040                Fir_gmacsecGetRuleIntf
                0x000000000013c200                Fir_gmacsecCreateTxSecYIntf
                0x000000000013c2a0                Fir_gmacsecCreateRxSecYIntf
                0x000000000013c330                Fir_gmacsecGetTxSecYIntf
                0x000000000013c3d0                Fir_gmacsecGetRxSecYIntf
                0x000000000013c460                Fir_gmacsecCreateRxSCIntf
                0x000000000013c4f0                Fir_gmacsecGetRxSCIntf
                0x000000000013c580                Fir_gmacsecCreateRxSAIntf
                0x000000000013c630                Fir_gmacsecGetRxSAIntf
                0x000000000013c6e0                Fir_gmacsecCreateTxSCIntf
                0x000000000013c780                Fir_gmacsecGetTxSCIntf
                0x000000000013c820                Fir_gmacsecCreateTxSAIntf
                0x000000000013c8d0                Fir_gmacsecGetTxSAIntf
                0x000000000013c980                Fir_gmacsecGetRXSCStatesIntf
                0x000000000013ca10                Fir_gmacsecGetRXSecYStatesIntf
                0x000000000013cac0                Fir_gmacsecGetTXSCStatesIntf
                0x000000000013cb40                Fir_gmacsecGetTXSecYStatesIntf
                0x000000000013cbf0                Fir_gmacsecSetTxSCIntCtrlIntf
                0x000000000013cc70                Fir_gmacsecGetTxSCIntCtrlIntf
                0x000000000013ccf0                Fir_gmacsecGetNextTxSCIntStatusIntf
 .text          0x000000000013cd80    0x28379 /home/roscube/Desktop/UMSD_v7.0.0_comb/UMSD_v7.0.0/obj/dev/bonsai/msdDrv_Bonsai.o
                0x000000000013cd80                Bonsai_msdSetSMIC45PhyReg
                0x000000000013d020                Bonsai_msdGetSMIC45PhyReg
                0x000000000013d2e0                Bonsai_msdSetSMIPhyReg
                0x000000000013d460                Bonsai_msdGetSMIPhyReg
                0x000000000013d670                Bonsai_msdSetSMIPhyRegField
                0x000000000013d760                Bonsai_msdGetSMIPhyRegField
                0x000000000013d800                Bonsai_msdSetPagedPhyRegField
                0x000000000013d880                Bonsai_msdGetPagedPhyRegField
                0x000000000013d950                Bonsai_msdWritePagedPhyReg
                0x000000000013d9b0                Bonsai_msdReadPagedPhyReg
                0x000000000013da10                Bonsai_msdSetSMIPhyXMDIOReg
                0x000000000013db20                Bonsai_msdGetSMIPhyXMDIOReg
                0x000000000013dc60                Bonsai_msdPhyReset
                0x000000000013de20                Bonsai_msdDirectSetMultiChipReg
                0x000000000013de40                Bonsai_msdDirectGetMultiChipReg
                0x000000000013de60                Bonsai_msdDirectSetMultiChipRegField
                0x000000000013df30                Bonsai_msdDirectGetMultiChipRegField
                0x000000000013dfd0                Bonsai_msdDirectSetMultiChipExtendedReg
                0x000000000013e020                Bonsai_msdDirectGetMultiChipExtendedReg
                0x000000000013e0a0                Bonsai_msdDirectSetMultiChipExtendedRegField
                0x000000000013e170                Bonsai_msdDirectGetMultiChipExtendedRegField
                0x000000000013e200                Bonsai_msdSetSMIExtPhyReg
                0x000000000013e380                Bonsai_msdGetSMIExtPhyReg
                0x000000000013e590                Bonsai_msdWritePagedExtPhyReg
                0x000000000013e5f0                Bonsai_msdReadPagedExtPhyReg
                0x000000000013e650                Bonsai_msdSetSMIExtPhyXMDIOReg
                0x000000000013e740                Bonsai_msdGetSMIExtPhyXMDIOReg
                0x00000000001400c0                Bonsai_gtcamFlushAll
                0x0000000000140110                Bonsai_gtcamFlushEntry
                0x0000000000140170                Bonsai_gtcamLoadEntry
                0x0000000000140200                Bonsai_gtcamReadTCAMData
                0x0000000000140280                Bonsai_gtcamGetNextTCAMData
                0x0000000000140320                Bonsai_gtcamFindEntry
                0x00000000001403f0                Bonsai_gtcamSetMode
                0x0000000000140450                Bonsai_gtcamGetMode
                0x00000000001404e0                Bonsai_gtcamAddEntryPort
                0x00000000001405d0                Bonsai_gtcamRemoveEntryPort
                0x00000000001406d0                Bonsai_gtcamEgrFlushEntry
                0x0000000000140750                Bonsai_gtcamEgrFlushEntryAllPorts
                0x00000000001407b0                Bonsai_gtcamEgrLoadEntry
                0x0000000000140980                Bonsai_gtcamEgrGetNextTCAMData
                0x0000000000140a50                Bonsai_gtcamEgrReadTCAMData
                0x0000000000140b10                Bonsai_gtcamDump
                0x0000000000141210                Bonsai_gtcamAdvConfig
                0x0000000000142520                Bonsai_gtcamRCFlushAllEntry
                0x00000000001425e0                Bonsai_gtcamRCFlushEntry
                0x00000000001426c0                Bonsai_gtcamRCLoadEntry
                0x00000000001429c0                Bonsai_gtcamRCReadEntry
                0x0000000000142ac0                Bonsai_gtcamRCGetNextEntry
                0x0000000000142c00                Bonsai_gtcamRCFindEntry
                0x0000000000142d50                Bonsai_gtcamRCEntryDump
                0x0000000000143780                Bonsai_gtcamRCCompFlushAll
                0x0000000000143840                Bonsai_gtcamRCCompFlushPort
                0x0000000000143920                Bonsai_gtcamRCCompLoad
                0x0000000000143b80                Bonsai_gtcamRCCompRead
                0x0000000000144f70                Bonsai_gfdbGetAtuEntryNext
                0x0000000000144f90                Bonsai_gfdbFlush
                0x0000000000145000                Bonsai_gfdbFlushInDB
                0x0000000000145080                Bonsai_gfdbMove
                0x0000000000145170                Bonsai_gfdbMoveInDB
                0x0000000000145260                Bonsai_gfdbAddMacEntry
                0x0000000000145330                Bonsai_gfdbDelAtuEntry
                0x00000000001453c0                Bonsai_gfdbGetViolation
                0x00000000001454f0                Bonsai_gfdbFindAtuMacEntry
                0x0000000000145620                Bonsai_gfdbSetAgingTimeout
                0x00000000001456a0                Bonsai_gfdbGetAgingTimeout
                0x0000000000145730                Bonsai_gfdbGetLearn2All
                0x00000000001457d0                Bonsai_gfdbSetLearn2All
                0x0000000000145820                Bonsai_gfdbSetPortLearnLimit
                0x0000000000145990                Bonsai_gfdbGetPortLearnLimit
                0x0000000000145aa0                Bonsai_gfdbGetPortLearnCount
                0x0000000000145b60                Bonsai_gfdbGetEntryCount
                0x0000000000145bb0                Bonsai_gfdbGetEntryCountPerFid
                0x0000000000145c00                Bonsai_gfdbGetNonStaticEntryCount
                0x0000000000145c50                Bonsai_gfdbGetNStaticEntryCountFid
                0x0000000000145f00                Bonsai_gpolicySetMgmtCtrl
                0x0000000000145f20                Bonsai_gpolicyGetMgmtCtrl
                0x0000000000145f40                Bonsai_gpolicySetCpuDest
                0x0000000000146000                Bonsai_gpolicyGetCpuDest
                0x0000000000146090                Bonsai_gpolicySetIgrMonitorDest
                0x0000000000146150                Bonsai_gpolicyGetIgrMonitorDest
                0x00000000001461e0                Bonsai_gpolicySetRsvd2CpuEnables
                0x0000000000146230                Bonsai_gpolicyGetRsvd2CpuEnables
                0x00000000001462d0                Bonsai_gpolicySetMGMTPri
                0x0000000000146370                Bonsai_gpolicyGetMGMTPri
                0x00000000001463d0                Bonsai_gpolicySetRouteDest
                0x0000000000146490                Bonsai_gpolicyGetRouteDest
                0x0000000000146520                Bonsai_gpolicySetMirrorDest
                0x00000000001465e0                Bonsai_gpolicyGetMirrorDest
                0x0000000000146670                Bonsai_gpolicySetIllegalIPAddr
                0x0000000000146710                Bonsai_gpolicyGetIllegalIPAddr
                0x0000000000146770                Bonsai_gpolicySetDipDaMismatch
                0x0000000000146810                Bonsai_gpolicyGetDipDaMismatch
                0x0000000000146870                Bonsai_gpolicySetZeroSIP
                0x0000000000146910                Bonsai_gpolicyGetZeroSIP
                0x0000000000146970                Bonsai_gpolicySetMcTtlExceeded
                0x0000000000146a40                Bonsai_gpolicyGetMcTtlExceeded
                0x0000000000146b10                Bonsai_gpolicySetUcTtlExceeded
                0x0000000000146bd0                Bonsai_gpolicyGetUcTtlExceeded
                0x0000000000146c30                Bonsai_gprtSetPortTtlThreshold
                0x0000000000146cc0                Bonsai_gprtGetPortTtlThreshold
                0x0000000000146d20                Bonsai_gpolicySetIpHdrErr
                0x0000000000146dc0                Bonsai_gpolicyGetIpHdrErr
                0x0000000000146e20                Bonsai_gpolicySetTCPFinUrgPsh
                0x0000000000146ec0                Bonsai_gpolicyGetTCPFinUrgPsh
                0x0000000000146f20                Bonsai_gpolicySetTCPFlagsSeqNum
                0x0000000000146fc0                Bonsai_gpolicyGetTCPFlagsSeqNum
                0x0000000000147020                Bonsai_gpolicySetTCPSYN
                0x00000000001470c0                Bonsai_gpolicyGetTCPSYN
                0x0000000000147120                Bonsai_gpolicySetTCPHSize
                0x00000000001471c0                Bonsai_gpolicyGetTCPHSize
                0x0000000000147220                Bonsai_gprtSetPortTCPMinHdrSize
                0x00000000001472b0                Bonsai_gprtGetPortTCPMinHdrSize
                0x0000000000147310                Bonsai_gpolicySetICMPSize
                0x00000000001473b0                Bonsai_gpolicyGetICMPSize
                0x0000000000147410                Bonsai_gprtSetPortICMPMaxSize
                0x0000000000147460                Bonsai_gprtGetPortICMPMaxSize
                0x00000000001474f0                Bonsai_gpolicySetUDPPort
                0x0000000000147590                Bonsai_gpolicyGetUDPPort
                0x00000000001475f0                Bonsai_gpolicySetTCPPort
                0x0000000000147690                Bonsai_gpolicyGetTCPPort
                0x00000000001476f0                Bonsai_gpolicySetTCPSynFin
                0x0000000000147790                Bonsai_gpolicyGetTCPSynFin
                0x00000000001477f0                Bonsai_gpolicySetTCPFrag
                0x0000000000147890                Bonsai_gpolicyGetTCPFrag
                0x00000000001478f0                Bonsai_gpolicySetNearNonTPMR
                0x0000000000147990                Bonsai_gpolicyGetNearNonTPMR
                0x00000000001479f0                Bonsai_gpolicySetETag
                0x0000000000147a90                Bonsai_gpolicyGetETag
                0x0000000000147af0                Bonsai_gpolicySetNonETag
                0x0000000000147b90                Bonsai_gpolicyGetNonETag
                0x0000000000147bf0                Bonsai_gpolicyDump
                0x000000000014c830                Bonsai_gvtuGetEntryNext
                0x000000000014c9a0                Bonsai_gvtuFindVidEntry
                0x000000000014cb60                Bonsai_gvtuFlush
                0x000000000014cb80                Bonsai_gvtuAddEntry
                0x000000000014ccd0                Bonsai_gvtuDelEntry
                0x000000000014cd50                Bonsai_gvtuSetMode
                0x000000000014ced0                Bonsai_gvtuGetMode
                0x000000000014d070                Bonsai_gvtuGetViolation_MultiChip
                0x000000000014d180                Bonsai_gvtuGetViolation
                0x000000000014d2f0                Bonsai_gvtuDump
                0x000000000014da80                Bonsai_garpLoadMcEntry
                0x000000000014dba0                Bonsai_garpLoadUcEntry
                0x000000000014dc60                Bonsai_garpFlushEntry
                0x000000000014dcc0                Bonsai_garpFlushAll
                0x000000000014dd10                Bonsai_garpReadEntry
                0x000000000014dd90                Bonsai_garpGetNextEntry
                0x000000000014e1d0                Bonsai_gstuGetEntryNext
                0x000000000014e2d0                Bonsai_gstuAddEntry
                0x000000000014e3a0                Bonsai_gstuDelEntry
                0x000000000014e400                Bonsai_gstuFindSidEntry
                0x000000000014e510                Bonsai_gstuDump
                0x000000000014ea90                Bonsai_gpirlInitialize
                0x000000000014eab0                Bonsai_gpirlInitResource
                0x000000000014eb30                Bonsai_gpirlCustomSetup_sr2c
                0x000000000014ed20                Bonsai_gpirlReadResource
                0x000000000014eef0                Bonsai_gpirlWriteResource
                0x000000000014f090                Bonsai_gpirlGetResReg
                0x000000000014f130                Bonsai_gpirlSetResReg
                0x000000000014f810                Bonsai_gstatsFlushAll
                0x000000000014f830                Bonsai_gstatsFlushPort
                0x000000000014f870                Bonsai_gstatsGetPortCounter
                0x000000000014f8d0                Bonsai_gstatsGetPortAllCounters
                0x000000000014f920                Bonsai_gstatsGetHistogramMode
                0x000000000014f9e0                Bonsai_gstatsSetHistogramMode
                0x000000000014fa20                Bonsai_gmibDump
                0x0000000000150540                Bonsai_gvlnSetPortVid
                0x00000000001505a0                Bonsai_gvlnGetPortVid
                0x0000000000150630                Bonsai_gprtSetForceDefaultVid
                0x0000000000150690                Bonsai_gprtGetForceDefaultVid
                0x0000000000150730                Bonsai_gvlnSetPortVlanDot1qMode
                0x0000000000150790                Bonsai_gvlnGetPortVlanDot1qMode
                0x0000000000150820                Bonsai_gprtSetDiscardTagged
                0x0000000000150880                Bonsai_gprtGetDiscardTagged
                0x0000000000150920                Bonsai_gprtSetDiscardUntagged
                0x0000000000150980                Bonsai_gprtGetDiscardUntagged
                0x0000000000150a20                Bonsai_gprtSetUnicastFloodBlock
                0x0000000000150a80                Bonsai_gprtGetUnicastFloodBlock
                0x0000000000150b20                Bonsai_gprtSetMulticastFloodBlock
                0x0000000000150b80                Bonsai_gprtGetMulticastFloodBlock
                0x0000000000150c20                Bonsai_gprtSetDiscardBCastMode
                0x0000000000150c80                Bonsai_gprtGetDiscardBCastMode
                0x0000000000150d20                Bonsai_gprtSetIGMPSnoopEnable
                0x0000000000150d80                Bonsai_gprtGetIGMPSnoopEnable
                0x0000000000150e20                Bonsai_gprtGetHeaderMode
                0x0000000000150ec0                Bonsai_gprtSetHeaderMode
                0x0000000000150f20                Bonsai_gprtGetDropOnLock
                0x0000000000150fc0                Bonsai_gprtSetDropOnLock
                0x0000000000151020                Bonsai_gprtSetJumboMode
                0x0000000000151090                Bonsai_gprtGetJumboMode
                0x0000000000151120                Bonsai_gprtSetSpecifiedMTU
                0x00000000001511a0                Bonsai_gprtGetSpecifiedMTU
                0x0000000000151230                Bonsai_gprtSetLearnEnable
                0x0000000000151330                Bonsai_gprtGetLearnEnable
                0x00000000001513c0                Bonsai_gprtGetVTUPriorityOverride
                0x0000000000151450                Bonsai_gprtSetVTUPriorityOverride
                0x00000000001514b0                Bonsai_gprtGetSAPriorityOverride
                0x0000000000151540                Bonsai_gprtSetSAPriorityOverride
                0x00000000001515a0                Bonsai_gprtGetDAPriorityOverride
                0x0000000000151630                Bonsai_gprtSetDAPriorityOverride
                0x0000000000151690                Bonsai_gprtGetMessagePort
                0x0000000000151730                Bonsai_gprtSetMessagePort
                0x0000000000151790                Bonsai_gprtGetEtherType
                0x00000000001517b0                Bonsai_gprtSetEtherType
                0x00000000001517d0                Bonsai_gprtGetAllowVidZero
                0x0000000000151870                Bonsai_gprtSetAllowVidZero
                0x00000000001518d0                Bonsai_gprtSetTrunkPort
                0x0000000000151990                Bonsai_gprtGetTrunkPort
                0x0000000000151a70                Bonsai_gprtSetFlowCtrl
                0x0000000000151b20                Bonsai_gprtGetFlowCtrl
                0x0000000000151b90                Bonsai_gprtSetEgressMonitorSource
                0x0000000000151bf0                Bonsai_gprtGetEgressMonitorSource
                0x0000000000151c90                Bonsai_gprtSetIngressMonitorSource
                0x0000000000151cf0                Bonsai_gprtGetIngressMonitorSource
                0x0000000000151d90                Bonsai_grcSetEgressRate
                0x0000000000151fc0                Bonsai_grcSetELimitMode
                0x0000000000152020                Bonsai_grcGetELimitMode
                0x00000000001520b0                Bonsai_grcGetEgressRate
                0x00000000001521f0                Bonsai_gprtSetDuplex
                0x0000000000152260                Bonsai_gprtGetDuplex
                0x0000000000152330                Bonsai_gprtGetDuplexStatus
                0x00000000001523c0                Bonsai_gprtGetForceLink
                0x0000000000152490                Bonsai_gprtSetForceLink
                0x0000000000152500                Bonsai_gprtGetLinkState
                0x0000000000152590                Bonsai_gprtSetForceSpeed
                0x0000000000152810                Bonsai_gprtGetForceSpeed
                0x00000000001529b0                Bonsai_gprtGetSpeed
                0x0000000000152ae0                Bonsai_gprtGetVlanPorts
                0x0000000000152bc0                Bonsai_gprtSetVlanPorts
                0x0000000000152d00                Bonsai_gprtGetFrameMode
                0x0000000000152d90                Bonsai_gprtSetFrameMode
                0x0000000000152df0                Bonsai_gprtSetPortECID
                0x0000000000152e90                Bonsai_gprtGetPortECID
                0x0000000000152ef0                Bonsai_gprtSetIgnoreETag
                0x0000000000152f80                Bonsai_gprtGetIgnoreETag
                0x0000000000152fe0                Bonsai_gprtSetEgressMode
                0x0000000000153040                Bonsai_gprtGetEgressMode
                0x00000000001530d0                Bonsai_gprtSetExtendedPortCtrlReg
                0x00000000001531b0                Bonsai_gprtGetExtendedPortCtrlReg
                0x0000000000153250                Bonsai_gprtGetPortState
                0x00000000001532e0                Bonsai_gprtSetPortState
                0x0000000000153340                Bonsai_gprtSetIgnoreFcs
                0x00000000001533a0                Bonsai_gprtGetIgnoreFcs
                0x0000000000153440                Bonsai_gprtSetAllowBadFcs
                0x00000000001534a0                Bonsai_gprtGetAllowBadFcs
                0x0000000000153540                Bonsai_gprtSetPauseLimitOut
                0x0000000000153590                Bonsai_gprtGetPauseLimitOut
                0x00000000001535e0                Bonsai_gprtSetPauseLimitIn
                0x0000000000153620                Bonsai_gprtGetPauseLimitIn
                0x0000000000153670                Bonsai_gprtSetQueueToPause
                0x00000000001536c0                Bonsai_gprtGetQueueToPause
                0x0000000000153710                Bonsai_gprtSetRxPriFlowCtrlEnable
                0x0000000000153800                Bonsai_gprtGetRxPriFlowCtrlEnable
                0x00000000001538b0                Bonsai_gprtSetRxPriFlowCtrlToQueue
                0x00000000001539a0                Bonsai_gprtGetRxPriFlowCtrlToQueue
                0x0000000000153a40                Bonsai_gprtSetTxPriFlowCtrlEnable
                0x0000000000153b30                Bonsai_gprtGetTxPriFlowCtrlEnable
                0x0000000000153be0                Bonsai_gprtGetOutQueueSize
                0x0000000000153c70                Bonsai_gprtSetMapDA
                0x0000000000153cd0                Bonsai_gprtGetMapDA
                0x0000000000153d70                Bonsai_gprtSetPortLocked
                0x0000000000153dd0                Bonsai_gprtGetPortLocked
                0x0000000000153e70                Bonsai_gprtSetHoldAt1
                0x0000000000153ed0                Bonsai_gprtGetHoldAt1
                0x0000000000153f70                Bonsai_gprtSetInt0nAgeOut
                0x0000000000153fd0                Bonsai_gprtGetInt0nAgeOut
                0x0000000000154070                Bonsai_gprtSetRefreshLocked
                0x00000000001540d0                Bonsai_gprtGetRefreshLocked
                0x0000000000154170                Bonsai_gprtSetIgnoreWrongData
                0x00000000001541d0                Bonsai_gprtGetIgnoreWrongData
                0x0000000000154270                Bonsai_gprtSetARPMirror
                0x00000000001542d0                Bonsai_gprtGetARPMirror
                0x0000000000154370                Bonsai_gprtSetPreemptSize
                0x00000000001543d0                Bonsai_gprtGetPreemptSize
                0x0000000000154470                Bonsai_gprtSetPreemptEnable
                0x00000000001544d0                Bonsai_gprtGetPreemptEnable
                0x0000000000154570                Bonsai_gprtSetPreemptQueue
                0x00000000001545d0                Bonsai_gprtGetPreemptQueue
                0x0000000000154670                Bonsai_gprtRegDump
                0x0000000000155140                Bonsai_gBpeEnableSet
                0x0000000000155290                Bonsai_gBpeEnableGet
                0x0000000000155330                Bonsai_gecidAddEntry
                0x0000000000155370                Bonsai_gecidFlushAll
                0x00000000001553e0                Bonsai_gecidMove
                0x00000000001554a0                Bonsai_gecidFlushEntry
                0x0000000000155530                Bonsai_gecidGetEcidEntryNext
                0x00000000001555b0                Bonsai_gecidFindEcidEntry
                0x00000000001556b0                Bonsai_gecidGetEntryCount
                0x00000000001559a0                Bonsai_gecidDump
                0x0000000000155b10                Bonsai_gqosSetPrioMapRule
                0x0000000000155b70                Bonsai_gqosGetPrioMapRule
                0x0000000000155c10                Bonsai_gprtSetInitialPri
                0x0000000000155c80                Bonsai_gprtGetInitialPri
                0x0000000000155d50                Bonsai_gprtSetDefQpri
                0x0000000000155db0                Bonsai_gprtGetDefQpri
                0x0000000000155e50                Bonsai_gprtSetIEEEPrioMap
                0x0000000000156060                Bonsai_gprtGetIEEEPrioMap
                0x0000000000156280                Bonsai_gprtRewriteDscp
                0x00000000001562e0                Bonsai_gprtSetCosToQueue
                0x0000000000156370                Bonsai_gprtGetCosToQueue
                0x00000000001563d0                Bonsai_gprtSetCosToDscp
                0x0000000000156460                Bonsai_gprtGetCosToDscp
                0x00000000001564c0                Bonsai_gprtSetDefFpri
                0x0000000000156520                Bonsai_gprtGetDefFpri
                0x00000000001565c0                Bonsai_gprtSetQueueCtrl
                0x00000000001566d0                Bonsai_gprtGetQueueCtrl
                0x0000000000156810                Bonsai_gprtSetPortSched
                0x0000000000156860                Bonsai_gprtGetPortSched
                0x0000000000156970                Bonsai_gprtSetQoSWeight
                0x0000000000156ca0                Bonsai_gprtGetQoSWeight
                0x0000000000156fc0                Bonsai_gsysSetTrunkMaskTable
                0x0000000000157100                Bonsai_gsysGetTrunkMaskTable
                0x0000000000157290                Bonsai_gsysSetHashTrunk
                0x00000000001572c0                Bonsai_gsysGetHashTrunk
                0x0000000000157330                Bonsai_gsysSetTrunkRouting
                0x0000000000157490                Bonsai_gsysGetTrunkRouting
                0x0000000000157650                Bonsai_gsysSetFloodBC
                0x0000000000157680                Bonsai_gsysGetFloodBC
                0x00000000001576f0                Bonsai_gsysSetEgressMonitorDest
                0x0000000000157740                Bonsai_gsysGetEgressMonitorDest
                0x00000000001577e0                Bonsai_gsysSetSMISetup
                0x00000000001579c0                Bonsai_gsysGetSMISetup
                0x0000000000157ba0                Bonsai_gsysGlobal1RegDump
                0x0000000000157c70                Bonsai_gsysGlobal2RegDump
                0x0000000000157d40                Bonsai_gsysSetRMUMode
                0x0000000000157dd0                Bonsai_gsysGetRMUMode
                0x0000000000157e30                Bonsai_gsysQbvWrite
                0x0000000000157f00                Bonsai_gsysQbvRead
                0x0000000000157fe0                Bonsai_gsysDevIntEnableSet
                0x0000000000158010                Bonsai_gsysDevIntEnableGet
                0x0000000000158090                Bonsai_gsysDevIntStatusGet
                0x0000000000158100                Bonsai_gsysActiveIntEnableSet
                0x0000000000158190                Bonsai_gsysActiveIntEnableGet
                0x00000000001581f0                Bonsai_gsysActiveIntStatusGet
                0x0000000000158250                Bonsai_serdesReset
                0x0000000000158af0                Bonsai_msdRmuGetID
                0x0000000000158c20                Bonsai_msdRmuAtuDump
                0x0000000000158e40                Bonsai_msdRmuEcidDump
                0x0000000000159090                Bonsai_msdRmuMib2Dump
                0x00000000001594c0                Bonsai_msdRmuReadRegister
                0x00000000001594f0                Bonsai_msdRmuWriteRegister
                0x0000000000159510                Bonsai_msdRmuMultiRegAccess
                0x0000000000159700                Bonsai_msdRmuTCAMDump
                0x0000000000159870                Bonsai_msdRmuTCAMWrite
                0x0000000000159a20                Bonsai_msdRmuTCAMRead
                0x0000000000159bd0                Bonsai_msdRmuRegDump
                0x0000000000159ca0                Bonsai_gtcamLoadEntryIntf
                0x0000000000159e80                Bonsai_gtcamReadTCAMDataIntf
                0x000000000015a080                Bonsai_gtcamGetNextTCAMDataIntf
                0x000000000015a280                Bonsai_gtcamFindEntryIntf
                0x000000000015a4c0                Bonsai_gtcamSetModeIntf
                0x000000000015a4d0                Bonsai_gtcamGetModeIntf
                0x000000000015a530                Bonsai_gtcamEgrFlushEntryIntf
                0x000000000015a540                Bonsai_gtcamEgrFlushAllPortsIntf
                0x000000000015a550                Bonsai_gtcamEgrLoadEntryIntf
                0x000000000015a610                Bonsai_gtcamEgrGetNextTCAMDataIntf
                0x000000000015a6f0                Bonsai_gtcamEgrReadTCAMDataIntf
                0x000000000015a7d0                Bonsai_gtcamAdvConfigIntf
                0x000000000015b160                Bonsai_gqciStreamFiltFlushAll
                0x000000000015b1b0                Bonsai_gqciStreamFiltSet
                0x000000000015b340                Bonsai_gqciStreamFiltBlockStatSet
                0x000000000015b470                Bonsai_gqciStreamFiltBlockStatGet
                0x000000000015b540                Bonsai_gqciStreamFiltEnAts
                0x000000000015b670                Bonsai_gqciStreamFiltEnGate
                0x000000000015b7a0                Bonsai_gqciStreamFiltMatchCtrGet
                0x000000000015b870                Bonsai_gqciStreamFiltFilterCtrGet
                0x000000000015b940                Bonsai_gqciStreamGateFiltCtrGet
                0x000000000015ba10                Bonsai_gqciFlowMeterFiltCtrGet
                0x000000000015bae0                Bonsai_gqciStreamGateFlushAll
                0x000000000015bb30                Bonsai_gqciStreamGateDefStateSet
                0x000000000015bc90                Bonsai_gqciStreamGateScaleSet
                0x000000000015bdd0                Bonsai_gqciStreamGateTimeGenIdSet
                0x000000000015bef0                Bonsai_gqciStreamGateEntryAdd
                0x000000000015c200                Bonsai_gqciStreamGateTimeGenFlush
                0x000000000015c2d0                Bonsai_gqciStreamGateTimeGenSet
                0x000000000015c4e0                Bonsai_gqciFlowMeterFlushAll
                0x000000000015c530                Bonsai_gqciFlowMeterCoupleFlagSet
                0x000000000015c660                Bonsai_gqciFlowMeterCoupleFlagGet
                0x000000000015c740                Bonsai_gqciFlowMeterDropOnYelSet
                0x000000000015c870                Bonsai_gqciFlowMeterDropOnYelGet
                0x000000000015c950                Bonsai_gqciFlowMeterRedBlockEnSet
                0x000000000015ca70                Bonsai_gqciFlowMeterRedBlockEnGet
                0x000000000015cb50                Bonsai_gqciFlowMeterRedBlkStatSet
                0x000000000015cc80                Bonsai_gqciFlowMeterRedBlkStatGet
                0x000000000015cd60                Bonsai_gqciFlowMeterAdvConfig
                0x000000000015d220                Bonsai_gqciStreamGateEntryAddIntf
                0x000000000015d2c0                Bonsai_gfdbAddMacEntryIntf
                0x000000000015d340                Bonsai_gfdbGetAtuEntryNextIntf
                0x000000000015d420                Bonsai_gfdbFlushIntf
                0x000000000015d430                Bonsai_gfdbFlushInDBIntf
                0x000000000015d440                Bonsai_gfdbMoveIntf
                0x000000000015d450                Bonsai_gfdbMoveInDBIntf
                0x000000000015d460                Bonsai_gfdbPortRemoveIntf
                0x000000000015d490                Bonsai_gfdbPortRemoveInDBIntf
                0x000000000015d4c0                Bonsai_gfdbGetViolationIntf
                0x000000000015d5a0                Bonsai_gfdbFindAtuMacEntryIntf
                0x000000000015d690                Bonsai_gfdbDump
                0x000000000015d840                Bonsai_gvtuFindVidEntryIntf
                0x000000000015d9b0                Bonsai_gvtuExistVidEntryIntf
                0x000000000015da50                Bonsai_gvtuFlushIntf
                0x000000000015da60                Bonsai_gvtuAddEntryIntf
                0x000000000015db80                Bonsai_gvtuDelEntryIntf
                0x000000000015dc00                Bonsai_gvtuSetModeIntf
                0x000000000015dc10                Bonsai_gvtuGetModeIntf
                0x000000000015dc20                Bonsai_gvtuGetViolationIntf
                0x000000000015dce0                Bonsai_gvtuGetEntryCountIntf
                0x000000000015dd90                Bonsai_gvtuSetMemberTagIntf
                0x000000000015de80                Bonsai_gvtuGetMemberTagIntf
                0x000000000015df60                Bonsai_gvtuGetEntryNextIntf
                0x000000000015e090                Bonsai_gstuAddEntryIntf
                0x000000000015e160                Bonsai_gstuGetEntryNextIntf
                0x000000000015e210                Bonsai_gstuDelEntryIntf
                0x000000000015e270                Bonsai_gstuFindSidEntryIntf
                0x000000000015e380                Bonsai_gstuGetEntryCountIntf
                0x000000000015e420                Bonsai_gpirlInitializeIntf
                0x000000000015e430                Bonsai_gpirlInitResourceIntf
                0x000000000015e440                Bonsai_gpirlCustomSetup_sr2cIntf
                0x000000000015e500                Bonsai_gpirlReadResourceIntf
                0x000000000015e5e0                Bonsai_gpirlWriteResourceIntf
                0x000000000015e6a0                Bonsai_gpirlGetResRegIntf
                0x000000000015e6b0                Bonsai_gpirlSetResRegIntf
                0x000000000015e6c0                Bonsai_gpirlAdvConfigIntf
                0x000000000015e7c0                Bonsai_gpirlAdvConfigDisableIntf
                0x000000000015ebf0                Bonsai_gqavSetPortQpriXRate
                0x000000000015ed20                Bonsai_gqavGetPortQpriXRate
                0x000000000015ee00                Bonsai_gqavSetPortQpriXHiLimit
                0x000000000015eed0                Bonsai_gqavGetPortQpriXHiLimit
                0x000000000015ef80                Bonsai_garpLoadMcEntryIntf
                0x000000000015efe0                Bonsai_garpLoadUcEntryIntf
                0x000000000015f040                Bonsai_garpReadEntryIntf
                0x000000000015f0d0                Bonsai_garpGetNextEntryIntf
                0x000000000015f160                Bonsai_gstatsGetPortCounterIntf
                0x000000000015f170                Bonsai_gstatsGetPortAllCntersIntf
                0x000000000015f380                Bonsai_gstatsGetHistogramModeIntf
                0x000000000015f390                Bonsai_gstatsSetHistogramModeIntf
                0x000000000015f3a0                Bonsai_gvlnSetPortVlanQModeIntf
                0x000000000015f3b0                Bonsai_gvlnGetPortVlanQModeIntf
                0x000000000015f3c0                Bonsai_gprtSetDiscardTaggedIntf
                0x000000000015f3d0                Bonsai_gprtGetDiscardTaggedIntf
                0x000000000015f3e0                Bonsai_gprtSetDiscardUntaggedIntf
                0x000000000015f3f0                Bonsai_gprtGetDiscardUntaggedIntf
                0x000000000015f400                Bonsai_gprtSetUnicFloodBlockIntf
                0x000000000015f410                Bonsai_gprtGetUnicFloodBlockIntf
                0x000000000015f420                Bonsai_gprtSetMultiFloodBlockIntf
                0x000000000015f430                Bonsai_gprtGetMultiFloodBlockIntf
                0x000000000015f440                Bonsai_gprtSetDiscardBCastModeIntf
                0x000000000015f450                Bonsai_gprtGetDiscardBCastModeIntf
                0x000000000015f460                Bonsai_gprtSetJumboModeIntf
                0x000000000015f470                Bonsai_gprtGetJumboModeIntf
                0x000000000015f480                Bonsai_gprtSetSpecifiedMTUIntf
                0x000000000015f490                Bonsai_gprtGetSpecifiedMTUIntf
                0x000000000015f4a0                Bonsai_gprtSetLearnEnableIntf
                0x000000000015f4b0                Bonsai_gprtGetLearnEnableIntf
                0x000000000015f4c0                Bonsai_gprtGetVTUPriOverrideIntf
                0x000000000015f4d0                Bonsai_gprtSetVTUPriOverrideIntf
                0x000000000015f4e0                Bonsai_gprtGetSAPriOverrideIntf
                0x000000000015f4f0                Bonsai_gprtSetSAPriOverrideIntf
                0x000000000015f500                Bonsai_gprtGetDAPriOverrideIntf
                0x000000000015f510                Bonsai_gprtSetDAPriOverrideIntf
                0x000000000015f520                Bonsai_gprtSetFlowCtrlIntf
                0x000000000015f530                Bonsai_gprtGetFlowCtrlIntf
                0x000000000015f540                Bonsai_gprtSetForceSpeedIntf
                0x000000000015f560                Bonsai_gprtGetForceSpeedIntf
                0x000000000015f570                Bonsai_grcSetEgressRateIntf
                0x000000000015f580                Bonsai_grcGetEgressRateIntf
                0x000000000015f590                Bonsai_grcSetELimitModeIntf
                0x000000000015f5a0                Bonsai_grcGetELimitModeIntf
                0x000000000015f5b0                Bonsai_gprtSetDuplexIntf
                0x000000000015f5c0                Bonsai_gprtGetDuplexIntf
                0x000000000015f5d0                Bonsai_gprtGetDuplexStatusIntf
                0x000000000015f5e0                Bonsai_gprtGetForceLinkIntf
                0x000000000015f5f0                Bonsai_gprtSetForceLinkIntf
                0x000000000015f600                Bonsai_gprtGetSpeedIntf
                0x000000000015f610                Bonsai_gprtGetFrameModeIntf
                0x000000000015f620                Bonsai_gprtSetFrameModeIntf
                0x000000000015f630                Bonsai_gprtSetEgressModeIntf
                0x000000000015f650                Bonsai_gprtGetEgressModeIntf
                0x000000000015f660                Bonsai_gprtGetPortStateIntf
                0x000000000015f670                Bonsai_gprtSetPortStateIntf
                0x000000000015f680                Bonsai_gqosSetPrioMapRuleIntf
                0x000000000015f690                Bonsai_gqosGetPrioMapRuleIntf
                0x000000000015f6a0                Bonsai_gprtSetInitialPriIntf
                0x000000000015f6b0                Bonsai_gprtGetInitialPriIntf
                0x000000000015f6c0                Bonsai_gprtSetDefQpriIntf
                0x000000000015f6d0                Bonsai_gprtGetDefQpriIntf
                0x000000000015f6e0                Bonsai_gprtSetIEEEPrioMapIntf
                0x000000000015f740                Bonsai_gprtGetIEEEPrioMapIntf
                0x000000000015f800                Bonsai_gecidAddEntryIntf
                0x000000000015f890                Bonsai_gecidGetEcidEntryNextIntf
                0x000000000015f950                Bonsai_gecidFindEcidEntryIntf
                0x000000000015fa20                Bonsai_gprtSetQueueCtrlIntf
                0x000000000015fa30                Bonsai_gprtGetQueueCtrlIntf
                0x000000000015fa40                Bonsai_gprtSetPortSchedIntf
                0x000000000015fa50                Bonsai_gprtGetPortSchedIntf
                0x000000000015fa60                Bonsai_gprtSetQoSWeightIntf
                0x000000000015fb60                Bonsai_gprtGetQoSWeightIntf
                0x000000000015fc60                Bonsai_gtcamRCLoadEntryIntf
                0x000000000015fd90                Bonsai_gtcamRCReadEntryIntf
                0x000000000015fee0                Bonsai_gtcamRCGetNextEntryIntf
                0x0000000000160030                Bonsai_gtcamRCFindEntryIntf
                0x00000000001601c0                Bonsai_msdRmuGetIDIntf
                0x00000000001601d0                Bonsai_msdRmuAtuDumpIntf
                0x0000000000160330                Bonsai_msdRmuEcidDumpIntf
                0x0000000000160490                Bonsai_msdRmuMib2DumpIntf
                0x00000000001606a0                Bonsai_msdRmuReadRegisterIntf
                0x00000000001606b0                Bonsai_msdRmuWriteRegisterIntf
                0x00000000001606d0                Bonsai_msdRmuMultiRegAccessIntf
                0x00000000001606e0                Bonsai_msdRmuTCAMDumpIntf
                0x00000000001609e0                Bonsai_msdRmuTCAMWriteIntf
                0x0000000000160bb0                Bonsai_msdRmuTCAMReadIntf
                0x0000000000161ab0                Bonsai_gptpSetIntEnable
                0x0000000000161ba0                Bonsai_gptpGetIntEnable
                0x0000000000161c50                Bonsai_gptpSetPortPTPEn
                0x0000000000161d30                Bonsai_gptpGetPortPTPEn
                0x0000000000161dd0                Bonsai_gptpGetTimeStamp
                0x0000000000161f00                Bonsai_gptpGetTSValidSt
                0x0000000000161fd0                Bonsai_gptpResetTimeStamp
                0x00000000001620a0                Bonsai_gptpGetIntStatus
                0x0000000000162160                Bonsai_gptpSetMeanPathDelay
                0x0000000000162200                Bonsai_gptpGetMeanPathDelay
                0x00000000001622a0                Bonsai_gptpSetIgrPathDelayAsym
                0x0000000000162340                Bonsai_gptpGetIgrPathDelayAsym
                0x00000000001623e0                Bonsai_gptpSetEgrPathDelayAsym
                0x0000000000162480                Bonsai_gptpGetEgrPathDelayAsym
                0x0000000000162520                Bonsai_gptpGetTODBusyBitStatus
                0x00000000001625a0                Bonsai_gptpTODStoreCompensation
                0x0000000000162660                Bonsai_gptpTODStoreAll
                0x0000000000162720                Bonsai_gptpTODCaptureAll
                0x00000000001629f0                Bonsai_gptpSetPulse
                0x0000000000162aa0                Bonsai_gptpGetPulse
                0x0000000000162b40                Bonsai_gtaiGetPTPGlobalTime
                0x0000000000162bc0                Bonsai_gptpPortRegGet
                0x0000000000162c70                Bonsai_gptpPortRegSet
                0x0000000000162d10                Bonsai_gptpGlobalRegGet
                0x0000000000162d80                Bonsai_gptpGlobalRegSet
                0x0000000000162df0                Bonsai_gptp1588v2ConfigSet
                0x0000000000162fc0                Bonsai_gptp8021asConfigSet
                0x0000000000163180                Bonsai_gptp8021asRevConfigSet
                0x0000000000163340                Bonsai_gptpPreemptTsSelSet
                0x0000000000163420                Bonsai_gptpPreemptTsSelGet
                0x00000000001634c0                Bonsai_gptpPreemptCtrlSet
                0x00000000001635a0                Bonsai_gptpPreemptCtrlGet
                0x0000000000163640                Bonsai_gtaiTrigGenTimerSelGet
                0x00000000001636c0                Bonsai_gtaiTrigGenTimerSelSet
                0x0000000000163780                Bonsai_gptpSetIntEnableIntf
                0x00000000001637e0                Bonsai_gptpGetIntEnableIntf
                0x0000000000163840                Bonsai_gptpGetTimeStampIntf
                0x00000000001638b0                Bonsai_gptpGetIntStatusIntf
                0x0000000000163920                Bonsai_gptpTODStoreCompenIntf
                0x00000000001639a0                Bonsai_gptpTODStoreAllIntf
                0x0000000000163a20                Bonsai_gptpTODCaptureAllIntf
                0x0000000000163ab0                Bonsai_gptpSetPulseIntf
                0x0000000000163b10                Bonsai_gptpGetPulseIntf
                0x0000000000163b70                Bonsai_gptp1588v2ConfigSetIntf
                0x0000000000163b80                Bonsai_gptp8021asConfigSetIntf
                0x0000000000163b90                Bonsai_gptp8021asRevCfgSetIntf
                0x0000000000163e00                Bonsai_gledForceOn
                0x0000000000163ec0                Bonsai_gledForceOff
                0x0000000000163f80                Bonsai_gledLinkAct
                0x0000000000164070                Bonsai_gledModeSet
                0x0000000000164140                Bonsai_gledModeGet
                0x00000000001641d0                Bonsai_gledBlinkRateSet
                0x0000000000164280                Bonsai_gledBlinkRateGet
                0x0000000000164360                Bonsai_gledPulseStretchSet
                0x0000000000164410                Bonsai_gledPulseStretchGet
                0x00000000001644e0                Bonsai_gledSpecialModeSet
                0x0000000000164590                Bonsai_gledSpecialModeGet
                0x0000000000164600                Bonsai_gledCtrlSet
                0x0000000000164640                Bonsai_gledCtrlGet
                0x00000000001646b0                Bonsai_gledDump
                0x0000000000164980                Bonsai_gledForceOnIntf
                0x0000000000164990                Bonsai_gledForceOffIntf
                0x00000000001649a0                Bonsai_gledLinkActIntf
                0x00000000001649b0                Bonsai_gledModeSetIntf
                0x00000000001649c0                Bonsai_gledModeGetIntf
                0x00000000001649d0                Bonsai_gledBlinkRateSetIntf
                0x00000000001649e0                Bonsai_gledBlinkRateGetIntf
                0x00000000001649f0                Bonsai_gledPulseStretchSetIntf
                0x0000000000164a00                Bonsai_gledPulseStretchGetIntf
                0x0000000000164a10                Bonsai_gledSpecialModeSetIntf
                0x0000000000164a20                Bonsai_gledSpecialModeGetIntf
                0x0000000000164a30                Bonsai_gledCtrlSetIntf
                0x0000000000164a40                Bonsai_gledCtrlGetIntf
                0x0000000000164a50                Bonsai_gtcamRCCompLoadIntf
                0x0000000000164b30                Bonsai_gtcamRCCompReadIntf
                0x0000000000164c20                Bonsai_EEPROMWrite
                0x0000000000164d50                Bonsai_EEPROMRead
                0x0000000000164eb0                Bonsai_EEPROMChipSelSet
                0x0000000000164f80                Bonsai_EEPROMChipSelGet
                0x00000000001650c0                Bonsai_EEPROMWriteIntf
                0x00000000001650d0                Bonsai_EEPROMReadIntf
                0x00000000001650e0                Bonsai_EEPROMChipSelSetIntf
                0x00000000001650f0                Bonsai_EEPROMChipSelGetIntf
 *(.gnu.warning)

.text.unlikely  0x0000000000000000      0x168
 .text.unlikely
                0x0000000000000000        0xa /home/roscube/Desktop/UMSD_v7.0.0_comb/UMSD_v7.0.0/obj/src/driver/msdDrv_obj/driver.o
 .text.unlikely
                0x000000000000000a       0x1e /home/roscube/Desktop/UMSD_v7.0.0_comb/UMSD_v7.0.0/obj/dev/topaz/msdDrv_Topaz.o
 .text.unlikely
                0x0000000000000028       0x1e /home/roscube/Desktop/UMSD_v7.0.0_comb/UMSD_v7.0.0/obj/dev/peridot/msdDrv_Peridot.o
 .text.unlikely
                0x0000000000000046       0x14 /home/roscube/Desktop/UMSD_v7.0.0_comb/UMSD_v7.0.0/obj/dev/agate/msdDrv_Agate.o
 .text.unlikely
                0x000000000000005a       0x14 /home/roscube/Desktop/UMSD_v7.0.0_comb/UMSD_v7.0.0/obj/dev/pearl/msdDrv_Pearl.o
 .text.unlikely
                0x000000000000006e       0x32 /home/roscube/Desktop/UMSD_v7.0.0_comb/UMSD_v7.0.0/obj/dev/amethyst/msdDrv_Amethyst.o
 .text.unlikely
                0x00000000000000a0       0x28 /home/roscube/Desktop/UMSD_v7.0.0_comb/UMSD_v7.0.0/obj/dev/oak/msdDrv_Oak.o
 .text.unlikely
                0x00000000000000c8       0x28 /home/roscube/Desktop/UMSD_v7.0.0_comb/UMSD_v7.0.0/obj/dev/spruce/msdDrv_Spruce.o
 .text.unlikely
                0x00000000000000f0       0x28 /home/roscube/Desktop/UMSD_v7.0.0_comb/UMSD_v7.0.0/obj/dev/bonsaiz1/msdDrv_BonsaiZ1.o
 .text.unlikely
                0x0000000000000118       0x28 /home/roscube/Desktop/UMSD_v7.0.0_comb/UMSD_v7.0.0/obj/dev/fir/msdDrv_Fir.o
 .text.unlikely
                0x0000000000000140       0x28 /home/roscube/Desktop/UMSD_v7.0.0_comb/UMSD_v7.0.0/obj/dev/bonsai/msdDrv_Bonsai.o

.fini
 *(SORT_NONE(.fini))

.rodata         0x0000000000000000     0xc20c
 *(.rodata)
 .rodata        0x0000000000000000       0x7c /home/roscube/Desktop/UMSD_v7.0.0_comb/UMSD_v7.0.0/obj/src/driver/msdDrv_obj/driver.o
 .rodata        0x000000000000007c       0x84 /home/roscube/Desktop/UMSD_v7.0.0_comb/UMSD_v7.0.0/obj/src/platform/msdDrv_obj/platform.o
 .rodata        0x0000000000000100      0x100 /home/roscube/Desktop/UMSD_v7.0.0_comb/UMSD_v7.0.0/obj/src/utils/msdDrv_obj/utils.o
 .rodata        0x0000000000000200     0x1360 /home/roscube/Desktop/UMSD_v7.0.0_comb/UMSD_v7.0.0/obj/dev/topaz/msdDrv_Topaz.o
 .rodata        0x0000000000001560     0x135c /home/roscube/Desktop/UMSD_v7.0.0_comb/UMSD_v7.0.0/obj/dev/peridot/msdDrv_Peridot.o
 *fill*         0x00000000000028bc        0x4 
 .rodata        0x00000000000028c0     0x131c /home/roscube/Desktop/UMSD_v7.0.0_comb/UMSD_v7.0.0/obj/dev/agate/msdDrv_Agate.o
 *fill*         0x0000000000003bdc        0x4 
 .rodata        0x0000000000003be0     0x131c /home/roscube/Desktop/UMSD_v7.0.0_comb/UMSD_v7.0.0/obj/dev/pearl/msdDrv_Pearl.o
 *fill*         0x0000000000004efc        0x4 
 .rodata        0x0000000000004f00     0x133c /home/roscube/Desktop/UMSD_v7.0.0_comb/UMSD_v7.0.0/obj/dev/amethyst/msdDrv_Amethyst.o
 *fill*         0x000000000000623c        0x4 
 .rodata        0x0000000000006240     0x130c /home/roscube/Desktop/UMSD_v7.0.0_comb/UMSD_v7.0.0/obj/dev/oak/msdDrv_Oak.o
 *fill*         0x000000000000754c       0x14 
 .rodata        0x0000000000007560     0x130c /home/roscube/Desktop/UMSD_v7.0.0_comb/UMSD_v7.0.0/obj/dev/spruce/msdDrv_Spruce.o
 *fill*         0x000000000000886c       0x14 
 .rodata        0x0000000000008880     0x130c /home/roscube/Desktop/UMSD_v7.0.0_comb/UMSD_v7.0.0/obj/dev/bonsaiz1/msdDrv_BonsaiZ1.o
 *fill*         0x0000000000009b8c       0x14 
 .rodata        0x0000000000009ba0     0x135c /home/roscube/Desktop/UMSD_v7.0.0_comb/UMSD_v7.0.0/obj/dev/fir/msdDrv_Fir.o
 *fill*         0x000000000000aefc        0x4 
 .rodata        0x000000000000af00     0x130c /home/roscube/Desktop/UMSD_v7.0.0_comb/UMSD_v7.0.0/obj/dev/bonsai/msdDrv_Bonsai.o

.rodata.str1.1  0x0000000000000000     0x648e
 .rodata.str1.1
                0x0000000000000000      0x112 /home/roscube/Desktop/UMSD_v7.0.0_comb/UMSD_v7.0.0/obj/src/platform/msdDrv_obj/platform.o
 .rodata.str1.1
                0x0000000000000112      0xa82 /home/roscube/Desktop/UMSD_v7.0.0_comb/UMSD_v7.0.0/obj/dev/topaz/msdDrv_Topaz.o
 .rodata.str1.1
                0x0000000000000b94      0xaff /home/roscube/Desktop/UMSD_v7.0.0_comb/UMSD_v7.0.0/obj/dev/peridot/msdDrv_Peridot.o
 .rodata.str1.1
                0x0000000000001693      0x666 /home/roscube/Desktop/UMSD_v7.0.0_comb/UMSD_v7.0.0/obj/dev/agate/msdDrv_Agate.o
 .rodata.str1.1
                0x0000000000001cf9      0x9a6 /home/roscube/Desktop/UMSD_v7.0.0_comb/UMSD_v7.0.0/obj/dev/pearl/msdDrv_Pearl.o
 .rodata.str1.1
                0x000000000000269f      0xf5a /home/roscube/Desktop/UMSD_v7.0.0_comb/UMSD_v7.0.0/obj/dev/amethyst/msdDrv_Amethyst.o
 .rodata.str1.1
                0x00000000000035f9      0x871 /home/roscube/Desktop/UMSD_v7.0.0_comb/UMSD_v7.0.0/obj/dev/oak/msdDrv_Oak.o
 .rodata.str1.1
                0x0000000000003e6a      0x871 /home/roscube/Desktop/UMSD_v7.0.0_comb/UMSD_v7.0.0/obj/dev/spruce/msdDrv_Spruce.o
 .rodata.str1.1
                0x00000000000046db      0x88d /home/roscube/Desktop/UMSD_v7.0.0_comb/UMSD_v7.0.0/obj/dev/bonsaiz1/msdDrv_BonsaiZ1.o
 .rodata.str1.1
                0x0000000000004f68      0xbe5 /home/roscube/Desktop/UMSD_v7.0.0_comb/UMSD_v7.0.0/obj/dev/fir/msdDrv_Fir.o
 .rodata.str1.1
                0x0000000000005b4d      0x941 /home/roscube/Desktop/UMSD_v7.0.0_comb/UMSD_v7.0.0/obj/dev/bonsai/msdDrv_Bonsai.o

.rodata.str1.8  0x0000000000000000    0x13e95
 .rodata.str1.8
                0x0000000000000000       0x63 /home/roscube/Desktop/UMSD_v7.0.0_comb/UMSD_v7.0.0/obj/src/platform/msdDrv_obj/platform.o
 *fill*         0x0000000000000063        0x5 
 .rodata.str1.8
                0x0000000000000068      0x585 /home/roscube/Desktop/UMSD_v7.0.0_comb/UMSD_v7.0.0/obj/dev/topaz/msdDrv_Topaz.o
 *fill*         0x00000000000005ed        0x3 
 .rodata.str1.8
                0x00000000000005f0      0x5b5 /home/roscube/Desktop/UMSD_v7.0.0_comb/UMSD_v7.0.0/obj/dev/peridot/msdDrv_Peridot.o
 *fill*         0x0000000000000ba5        0x3 
 .rodata.str1.8
                0x0000000000000ba8      0x493 /home/roscube/Desktop/UMSD_v7.0.0_comb/UMSD_v7.0.0/obj/dev/agate/msdDrv_Agate.o
 *fill*         0x000000000000103b        0x5 
 .rodata.str1.8
                0x0000000000001040      0x4ab /home/roscube/Desktop/UMSD_v7.0.0_comb/UMSD_v7.0.0/obj/dev/pearl/msdDrv_Pearl.o
 *fill*         0x00000000000014eb        0x5 
 .rodata.str1.8
                0x00000000000014f0     0x2595 /home/roscube/Desktop/UMSD_v7.0.0_comb/UMSD_v7.0.0/obj/dev/amethyst/msdDrv_Amethyst.o
 *fill*         0x0000000000003a85        0x3 
 .rodata.str1.8
                0x0000000000003a88     0x340d /home/roscube/Desktop/UMSD_v7.0.0_comb/UMSD_v7.0.0/obj/dev/oak/msdDrv_Oak.o
 *fill*         0x0000000000006e95        0x3 
 .rodata.str1.8
                0x0000000000006e98     0x340d /home/roscube/Desktop/UMSD_v7.0.0_comb/UMSD_v7.0.0/obj/dev/spruce/msdDrv_Spruce.o
 *fill*         0x000000000000a2a5        0x3 
 .rodata.str1.8
                0x000000000000a2a8     0x33c5 /home/roscube/Desktop/UMSD_v7.0.0_comb/UMSD_v7.0.0/obj/dev/bonsaiz1/msdDrv_BonsaiZ1.o
 *fill*         0x000000000000d66d        0x3 
 .rodata.str1.8
                0x000000000000d670     0x342d /home/roscube/Desktop/UMSD_v7.0.0_comb/UMSD_v7.0.0/obj/dev/fir/msdDrv_Fir.o
 *fill*         0x0000000000010a9d        0x3 
 .rodata.str1.8
                0x0000000000010aa0     0x33f5 /home/roscube/Desktop/UMSD_v7.0.0_comb/UMSD_v7.0.0/obj/dev/bonsai/msdDrv_Bonsai.o

.rodata.cst8    0x0000000000000000      0x170
 .rodata.cst8   0x0000000000000000       0x28 /home/roscube/Desktop/UMSD_v7.0.0_comb/UMSD_v7.0.0/obj/dev/topaz/msdDrv_Topaz.o
 .rodata.cst8   0x0000000000000028       0x20 /home/roscube/Desktop/UMSD_v7.0.0_comb/UMSD_v7.0.0/obj/dev/peridot/msdDrv_Peridot.o
 .rodata.cst8   0x0000000000000048       0x28 /home/roscube/Desktop/UMSD_v7.0.0_comb/UMSD_v7.0.0/obj/dev/agate/msdDrv_Agate.o
 .rodata.cst8   0x0000000000000070       0x28 /home/roscube/Desktop/UMSD_v7.0.0_comb/UMSD_v7.0.0/obj/dev/pearl/msdDrv_Pearl.o
 .rodata.cst8   0x0000000000000098       0x20 /home/roscube/Desktop/UMSD_v7.0.0_comb/UMSD_v7.0.0/obj/dev/amethyst/msdDrv_Amethyst.o
 .rodata.cst8   0x00000000000000b8       0x18 /home/roscube/Desktop/UMSD_v7.0.0_comb/UMSD_v7.0.0/obj/dev/oak/msdDrv_Oak.o
 .rodata.cst8   0x00000000000000d0       0x18 /home/roscube/Desktop/UMSD_v7.0.0_comb/UMSD_v7.0.0/obj/dev/spruce/msdDrv_Spruce.o
 .rodata.cst8   0x00000000000000e8       0x18 /home/roscube/Desktop/UMSD_v7.0.0_comb/UMSD_v7.0.0/obj/dev/bonsaiz1/msdDrv_BonsaiZ1.o
 .rodata.cst8   0x0000000000000100       0x38 /home/roscube/Desktop/UMSD_v7.0.0_comb/UMSD_v7.0.0/obj/dev/fir/msdDrv_Fir.o
 .rodata.cst8   0x0000000000000138       0x38 /home/roscube/Desktop/UMSD_v7.0.0_comb/UMSD_v7.0.0/obj/dev/bonsai/msdDrv_Bonsai.o

.rodata1
 *(.rodata1)

.eh_frame_hdr
 *(.eh_frame_hdr)

.eh_frame       0x0000000000000000    0x5114c
 *(.eh_frame)
 .eh_frame      0x0000000000000000      0x998 /home/roscube/Desktop/UMSD_v7.0.0_comb/UMSD_v7.0.0/obj/src/driver/msdDrv_obj/driver.o
                                        0x99c (size before relaxing)
 *fill*         0x0000000000000998        0x0 
 .eh_frame      0x0000000000000998     0x8018 /home/roscube/Desktop/UMSD_v7.0.0_comb/UMSD_v7.0.0/obj/src/api/msdDrv_obj/api.o
                                       0x8048 (size before relaxing)
 .eh_frame      0x00000000000089b0      0x158 /home/roscube/Desktop/UMSD_v7.0.0_comb/UMSD_v7.0.0/obj/src/platform/msdDrv_obj/platform.o
                                        0x15c (size before relaxing)
 *fill*         0x0000000000008b08        0x0 
 .eh_frame      0x0000000000008b08       0xf8 /home/roscube/Desktop/UMSD_v7.0.0_comb/UMSD_v7.0.0/obj/src/utils/msdDrv_obj/utils.o
 .eh_frame      0x0000000000008c00     0x56f0 /home/roscube/Desktop/UMSD_v7.0.0_comb/UMSD_v7.0.0/obj/dev/topaz/msdDrv_Topaz.o
 .eh_frame      0x000000000000e2f0     0x63c0 /home/roscube/Desktop/UMSD_v7.0.0_comb/UMSD_v7.0.0/obj/dev/peridot/msdDrv_Peridot.o
                                       0x63c4 (size before relaxing)
 *fill*         0x00000000000146b0        0x0 
 .eh_frame      0x00000000000146b0     0x4d48 /home/roscube/Desktop/UMSD_v7.0.0_comb/UMSD_v7.0.0/obj/dev/agate/msdDrv_Agate.o
 .eh_frame      0x00000000000193f8     0x4d48 /home/roscube/Desktop/UMSD_v7.0.0_comb/UMSD_v7.0.0/obj/dev/pearl/msdDrv_Pearl.o
 .eh_frame      0x000000000001e140     0x8430 /home/roscube/Desktop/UMSD_v7.0.0_comb/UMSD_v7.0.0/obj/dev/amethyst/msdDrv_Amethyst.o
 .eh_frame      0x0000000000026570     0x7e88 /home/roscube/Desktop/UMSD_v7.0.0_comb/UMSD_v7.0.0/obj/dev/oak/msdDrv_Oak.o
                                       0x7e84 (size before relaxing)
 *fill*         0x000000000002e3f8        0x0 
 .eh_frame      0x000000000002e3f8     0x7e88 /home/roscube/Desktop/UMSD_v7.0.0_comb/UMSD_v7.0.0/obj/dev/spruce/msdDrv_Spruce.o
                                       0x7e84 (size before relaxing)
 *fill*         0x0000000000036280        0x0 
 .eh_frame      0x0000000000036280     0x7e68 /home/roscube/Desktop/UMSD_v7.0.0_comb/UMSD_v7.0.0/obj/dev/bonsaiz1/msdDrv_BonsaiZ1.o
                                       0x7e64 (size before relaxing)
 *fill*         0x000000000003e0e8        0x0 
 .eh_frame      0x000000000003e0e8     0xa8e0 /home/roscube/Desktop/UMSD_v7.0.0_comb/UMSD_v7.0.0/obj/dev/fir/msdDrv_Fir.o
                                       0xa8e4 (size before relaxing)
 *fill*         0x00000000000489c8        0x0 
 .eh_frame      0x00000000000489c8     0x8784 /home/roscube/Desktop/UMSD_v7.0.0_comb/UMSD_v7.0.0/obj/dev/bonsai/msdDrv_Bonsai.o

.gcc_except_table
 *(.gcc_except_table)

.gnu_extab
 *(.gnu_extab*)

.exception_ranges
 *(.exception_ranges)

.eh_frame
 *(.eh_frame)

.gnu_extab
 *(.gnu_extab)

.gcc_except_table
 *(.gcc_except_table)

.exception_ranges
 *(.exception_ranges)

.tdata
 *(.tdata)

.tbss
 *(.tbss)

.jcr
 *(.jcr)

.dynamic
 *(.dynamic)

.got
 *(.got)

.got.plt
 *(.got.plt)

.data           0x0000000000000000      0x8a0
 *(.data)
 .data          0x0000000000000000        0x6 /home/roscube/Desktop/UMSD_v7.0.0_comb/UMSD_v7.0.0/obj/src/driver/msdDrv_obj/driver.o
                0x0000000000000000                msdApiVersion
 .data          0x0000000000000006        0x0 /home/roscube/Desktop/UMSD_v7.0.0_comb/UMSD_v7.0.0/obj/src/api/msdDrv_obj/api.o
 .data          0x0000000000000006        0x0 /home/roscube/Desktop/UMSD_v7.0.0_comb/UMSD_v7.0.0/obj/src/platform/msdDrv_obj/platform.o
 .data          0x0000000000000006        0x0 /home/roscube/Desktop/UMSD_v7.0.0_comb/UMSD_v7.0.0/obj/src/utils/msdDrv_obj/utils.o
 *fill*         0x0000000000000006       0x1a 
 .data          0x0000000000000020      0x180 /home/roscube/Desktop/UMSD_v7.0.0_comb/UMSD_v7.0.0/obj/dev/topaz/msdDrv_Topaz.o
 .data          0x00000000000001a0      0x200 /home/roscube/Desktop/UMSD_v7.0.0_comb/UMSD_v7.0.0/obj/dev/peridot/msdDrv_Peridot.o
 .data          0x00000000000003a0      0x180 /home/roscube/Desktop/UMSD_v7.0.0_comb/UMSD_v7.0.0/obj/dev/agate/msdDrv_Agate.o
 .data          0x0000000000000520      0x180 /home/roscube/Desktop/UMSD_v7.0.0_comb/UMSD_v7.0.0/obj/dev/pearl/msdDrv_Pearl.o
 .data          0x00000000000006a0      0x200 /home/roscube/Desktop/UMSD_v7.0.0_comb/UMSD_v7.0.0/obj/dev/amethyst/msdDrv_Amethyst.o
 .data          0x00000000000008a0        0x0 /home/roscube/Desktop/UMSD_v7.0.0_comb/UMSD_v7.0.0/obj/dev/oak/msdDrv_Oak.o
 .data          0x00000000000008a0        0x0 /home/roscube/Desktop/UMSD_v7.0.0_comb/UMSD_v7.0.0/obj/dev/spruce/msdDrv_Spruce.o
 .data          0x00000000000008a0        0x0 /home/roscube/Desktop/UMSD_v7.0.0_comb/UMSD_v7.0.0/obj/dev/bonsaiz1/msdDrv_BonsaiZ1.o
 .data          0x00000000000008a0        0x0 /home/roscube/Desktop/UMSD_v7.0.0_comb/UMSD_v7.0.0/obj/dev/fir/msdDrv_Fir.o
 .data          0x00000000000008a0        0x0 /home/roscube/Desktop/UMSD_v7.0.0_comb/UMSD_v7.0.0/obj/dev/bonsai/msdDrv_Bonsai.o

.data1
 *(.data1)

.bss            0x0000000000000000    0x23c14
 *(.bss)
 .bss           0x0000000000000000    0x23900 /home/roscube/Desktop/UMSD_v7.0.0_comb/UMSD_v7.0.0/obj/src/driver/msdDrv_obj/driver.o
 .bss           0x0000000000023900        0x0 /home/roscube/Desktop/UMSD_v7.0.0_comb/UMSD_v7.0.0/obj/src/api/msdDrv_obj/api.o
 .bss           0x0000000000023900       0x10 /home/roscube/Desktop/UMSD_v7.0.0_comb/UMSD_v7.0.0/obj/src/platform/msdDrv_obj/platform.o
 .bss           0x0000000000023910        0x0 /home/roscube/Desktop/UMSD_v7.0.0_comb/UMSD_v7.0.0/obj/src/utils/msdDrv_obj/utils.o
 .bss           0x0000000000023910        0x0 /home/roscube/Desktop/UMSD_v7.0.0_comb/UMSD_v7.0.0/obj/dev/topaz/msdDrv_Topaz.o
 .bss           0x0000000000023910        0x0 /home/roscube/Desktop/UMSD_v7.0.0_comb/UMSD_v7.0.0/obj/dev/peridot/msdDrv_Peridot.o
 .bss           0x0000000000023910        0x0 /home/roscube/Desktop/UMSD_v7.0.0_comb/UMSD_v7.0.0/obj/dev/agate/msdDrv_Agate.o
 .bss           0x0000000000023910        0x0 /home/roscube/Desktop/UMSD_v7.0.0_comb/UMSD_v7.0.0/obj/dev/pearl/msdDrv_Pearl.o
 .bss           0x0000000000023910        0x0 /home/roscube/Desktop/UMSD_v7.0.0_comb/UMSD_v7.0.0/obj/dev/amethyst/msdDrv_Amethyst.o
 .bss           0x0000000000023910        0x0 /home/roscube/Desktop/UMSD_v7.0.0_comb/UMSD_v7.0.0/obj/dev/oak/msdDrv_Oak.o
 .bss           0x0000000000023910        0x0 /home/roscube/Desktop/UMSD_v7.0.0_comb/UMSD_v7.0.0/obj/dev/spruce/msdDrv_Spruce.o
 .bss           0x0000000000023910        0x0 /home/roscube/Desktop/UMSD_v7.0.0_comb/UMSD_v7.0.0/obj/dev/bonsaiz1/msdDrv_BonsaiZ1.o
 *fill*         0x0000000000023910       0x10 
 .bss           0x0000000000023920      0x2f4 /home/roscube/Desktop/UMSD_v7.0.0_comb/UMSD_v7.0.0/obj/dev/fir/msdDrv_Fir.o
 .bss           0x0000000000023c14        0x0 /home/roscube/Desktop/UMSD_v7.0.0_comb/UMSD_v7.0.0/obj/dev/bonsai/msdDrv_Bonsai.o

.lbss
 *(.lbss)

.lrodata
 *(.lrodata)

.ldata
 *(.ldata)

.stab
 *(.stab)

.stabstr
 *(.stabstr)

.stab.excl
 *(.stab.excl)

.stab.exclstr
 *(.stab.exclstr)

.stab.index
 *(.stab.index)

.stab.indexstr
 *(.stab.indexstr)

.comment        0x0000000000000000     0x4ba0
 *(.comment)
 .comment       0x0000000000000000       0xb0 /home/roscube/Desktop/UMSD_v7.0.0_comb/UMSD_v7.0.0/obj/src/driver/msdDrv_obj/driver.o
 .comment       0x00000000000000b0      0x4d0 /home/roscube/Desktop/UMSD_v7.0.0_comb/UMSD_v7.0.0/obj/src/api/msdDrv_obj/api.o
 .comment       0x0000000000000580       0x58 /home/roscube/Desktop/UMSD_v7.0.0_comb/UMSD_v7.0.0/obj/src/platform/msdDrv_obj/platform.o
 .comment       0x00000000000005d8       0x2c /home/roscube/Desktop/UMSD_v7.0.0_comb/UMSD_v7.0.0/obj/src/utils/msdDrv_obj/utils.o
 .comment       0x0000000000000604      0x630 /home/roscube/Desktop/UMSD_v7.0.0_comb/UMSD_v7.0.0/obj/dev/topaz/msdDrv_Topaz.o
 .comment       0x0000000000000c34      0x630 /home/roscube/Desktop/UMSD_v7.0.0_comb/UMSD_v7.0.0/obj/dev/peridot/msdDrv_Peridot.o
 .comment       0x0000000000001264      0x5d8 /home/roscube/Desktop/UMSD_v7.0.0_comb/UMSD_v7.0.0/obj/dev/agate/msdDrv_Agate.o
 .comment       0x000000000000183c      0x5d8 /home/roscube/Desktop/UMSD_v7.0.0_comb/UMSD_v7.0.0/obj/dev/pearl/msdDrv_Pearl.o
 .comment       0x0000000000001e14      0x7e8 /home/roscube/Desktop/UMSD_v7.0.0_comb/UMSD_v7.0.0/obj/dev/amethyst/msdDrv_Amethyst.o
 .comment       0x00000000000025fc      0x738 /home/roscube/Desktop/UMSD_v7.0.0_comb/UMSD_v7.0.0/obj/dev/oak/msdDrv_Oak.o
 .comment       0x0000000000002d34      0x738 /home/roscube/Desktop/UMSD_v7.0.0_comb/UMSD_v7.0.0/obj/dev/spruce/msdDrv_Spruce.o
 .comment       0x000000000000346c      0x738 /home/roscube/Desktop/UMSD_v7.0.0_comb/UMSD_v7.0.0/obj/dev/bonsaiz1/msdDrv_BonsaiZ1.o
 .comment       0x0000000000003ba4      0x86c /home/roscube/Desktop/UMSD_v7.0.0_comb/UMSD_v7.0.0/obj/dev/fir/msdDrv_Fir.o
 .comment       0x0000000000004410      0x790 /home/roscube/Desktop/UMSD_v7.0.0_comb/UMSD_v7.0.0/obj/dev/bonsai/msdDrv_Bonsai.o

.note.GNU-stack
                0x0000000000000000        0x0
 .note.GNU-stack
                0x0000000000000000        0x0 /home/roscube/Desktop/UMSD_v7.0.0_comb/UMSD_v7.0.0/obj/src/driver/msdDrv_obj/driver.o
 .note.GNU-stack
                0x0000000000000000        0x0 /home/roscube/Desktop/UMSD_v7.0.0_comb/UMSD_v7.0.0/obj/src/api/msdDrv_obj/api.o
 .note.GNU-stack
                0x0000000000000000        0x0 /home/roscube/Desktop/UMSD_v7.0.0_comb/UMSD_v7.0.0/obj/src/platform/msdDrv_obj/platform.o
 .note.GNU-stack
                0x0000000000000000        0x0 /home/roscube/Desktop/UMSD_v7.0.0_comb/UMSD_v7.0.0/obj/src/utils/msdDrv_obj/utils.o
 .note.GNU-stack
                0x0000000000000000        0x0 /home/roscube/Desktop/UMSD_v7.0.0_comb/UMSD_v7.0.0/obj/dev/topaz/msdDrv_Topaz.o
 .note.GNU-stack
                0x0000000000000000        0x0 /home/roscube/Desktop/UMSD_v7.0.0_comb/UMSD_v7.0.0/obj/dev/peridot/msdDrv_Peridot.o
 .note.GNU-stack
                0x0000000000000000        0x0 /home/roscube/Desktop/UMSD_v7.0.0_comb/UMSD_v7.0.0/obj/dev/agate/msdDrv_Agate.o
 .note.GNU-stack
                0x0000000000000000        0x0 /home/roscube/Desktop/UMSD_v7.0.0_comb/UMSD_v7.0.0/obj/dev/pearl/msdDrv_Pearl.o
 .note.GNU-stack
                0x0000000000000000        0x0 /home/roscube/Desktop/UMSD_v7.0.0_comb/UMSD_v7.0.0/obj/dev/amethyst/msdDrv_Amethyst.o
 .note.GNU-stack
                0x0000000000000000        0x0 /home/roscube/Desktop/UMSD_v7.0.0_comb/UMSD_v7.0.0/obj/dev/oak/msdDrv_Oak.o
 .note.GNU-stack
                0x0000000000000000        0x0 /home/roscube/Desktop/UMSD_v7.0.0_comb/UMSD_v7.0.0/obj/dev/spruce/msdDrv_Spruce.o
 .note.GNU-stack
                0x0000000000000000        0x0 /home/roscube/Desktop/UMSD_v7.0.0_comb/UMSD_v7.0.0/obj/dev/bonsaiz1/msdDrv_BonsaiZ1.o
 .note.GNU-stack
                0x0000000000000000        0x0 /home/roscube/Desktop/UMSD_v7.0.0_comb/UMSD_v7.0.0/obj/dev/fir/msdDrv_Fir.o
 .note.GNU-stack
                0x0000000000000000        0x0 /home/roscube/Desktop/UMSD_v7.0.0_comb/UMSD_v7.0.0/obj/dev/bonsai/msdDrv_Bonsai.o

.gnu.build.attributes
 *(.gnu.build.attributes)

.debug
 *(.debug)

.line
 *(.line)

.debug_srcinfo
 *(.debug_srcinfo)

.debug_sfnames
 *(.debug_sfnames)

.debug_aranges
 *(.debug_aranges)

.debug_pubnames
 *(.debug_pubnames)

.debug_info
 *(.debug_info)

.debug_abbrev
 *(.debug_abbrev)

.debug_line
 *(.debug_line)

.debug_frame
 *(.debug_frame)

.debug_str
 *(.debug_str)

.debug_loc
 *(.debug_loc)

.debug_macinfo
 *(.debug_macinfo)

.debug_weaknames
 *(.debug_weaknames)

.debug_funcnames
 *(.debug_funcnames)

.debug_typenames
 *(.debug_typenames)

.debug_varnames
 *(.debug_varnames)

.debug_pubtypes
 *(.debug_pubtypes)

.debug_ranges
 *(.debug_ranges)

.debug_addr
 *(.debug_addr)

.debug_line_str
 *(.debug_line_str)

.debug_loclists
 *(.debug_loclists)

.debug_macro
 *(.debug_macro)

.debug_names
 *(.debug_names)

.debug_rnglists
 *(.debug_rnglists)

.debug_str_offsets
 *(.debug_str_offsets)

.debug_sup
 *(.debug_sup)

.gnu.attributes
 *(.gnu.attributes)
OUTPUT(/home/roscube/Desktop/UMSD_v7.0.0_comb/UMSD_v7.0.0/library/msdDrv.o elf64-x86-64)
