
Merging program properties


Discarded input sections

 .note.gnu.property
                0x0000000000000000       0x20 /home/roscube/Desktop/UMSD_v7.0.0_comb/UMSD_v7.0.0/obj/src/driver/msdDrv_obj/msdHwAccess.o
 .note.gnu.property
                0x0000000000000000       0x20 /home/roscube/Desktop/UMSD_v7.0.0_comb/UMSD_v7.0.0/obj/src/driver/msdDrv_obj/msdVersion.o
 .note.gnu.property
                0x0000000000000000       0x20 /home/roscube/Desktop/UMSD_v7.0.0_comb/UMSD_v7.0.0/obj/src/driver/msdDrv_obj/msdDevObj.o

Memory Configuration

Name             Origin             Length             Attributes
*default*        0x0000000000000000 0xffffffffffffffff

Linker script and memory map

LOAD /home/roscube/Desktop/UMSD_v7.0.0_comb/UMSD_v7.0.0/obj/src/driver/msdDrv_obj/msdSysConfig.o
LOAD /home/roscube/Desktop/UMSD_v7.0.0_comb/UMSD_v7.0.0/obj/src/driver/msdDrv_obj/msdHwAccess.o
LOAD /home/roscube/Desktop/UMSD_v7.0.0_comb/UMSD_v7.0.0/obj/src/driver/msdDrv_obj/msdVersion.o
LOAD /home/roscube/Desktop/UMSD_v7.0.0_comb/UMSD_v7.0.0/obj/src/driver/msdDrv_obj/msdDevObj.o

.interp
 *(.interp)

.note.gnu.property
                0x0000000000000000       0x20
 .note.gnu.property
                0x0000000000000000       0x20 /home/roscube/Desktop/UMSD_v7.0.0_comb/UMSD_v7.0.0/obj/src/driver/msdDrv_obj/msdSysConfig.o

.note.gnu.build-id
 *(.note.gnu.build-id)

.hash
 *(.hash)

.gnu.hash
 *(.gnu.hash)

.dynsym
 *(.dynsym)

.dynstr
 *(.dynstr)

.gnu.version
 *(.gnu.version)

.gnu.version_d
 *(.gnu.version_d)

.gnu.version_r
 *(.gnu.version_r)

.rela.init
 *(.rela.init)

.rela.text
 *(.rela.text)

.rela.fini
 *(.rela.fini)

.rela.rodata
 *(.rela.rodata)

.rela.data.rel.ro
 *(.rela.data.rel.ro)

.rela.data
 *(.rela.data)

.rela.tdata
 *(.rela.tdata)

.rela.tbss
 *(.rela.tbss)

.rela.ctors
 *(.rela.ctors)

.rela.dtors
 *(.rela.dtors)

.rela.got
 *(.rela.got)

.rela.bss
 *(.rela.bss)

.rela.ldata
 *(.rela.ldata)

.rela.lbss
 *(.rela.lbss)

.rela.lrodata
 *(.rela.lrodata)

.rela.ifunc
 *(.rela.ifunc)

.rela.plt
 *(.rela.plt)

.relr.dyn
 *(.relr.dyn)

.init
 *(SORT_NONE(.init))

.plt
 *(.plt)

.plt.got
 *(.plt.got)

.plt.sec
 *(.plt.sec)

.text           0x0000000000000000     0xfe24
 *(.text .stub)
 .text          0x0000000000000000      0xc66 /home/roscube/Desktop/UMSD_v7.0.0_comb/UMSD_v7.0.0/obj/src/driver/msdDrv_obj/msdSysConfig.o
                0x0000000000000000                msdUnLoadDriver
                0x0000000000000160                msdLoadDriver
                0x0000000000000840                msdSetDriverInterface
                0x0000000000000880                msdGetDriverInterface
                0x00000000000008c0                sohoDevGet
                0x00000000000008f0                msdlport2port
                0x0000000000000920                msdport2lport
                0x0000000000000970                msdlportvec2portvec
                0x00000000000009d0                msdportvec2lportvec
                0x0000000000000a10                msdlport2phy
                0x0000000000000a60                msdlport2serdes
                0x0000000000000b80                msdEnableHwSemaphore
                0x0000000000000c20                msdDisableHwSemaphore
 *fill*         0x0000000000000c66        0xa 
 .text          0x0000000000000c70     0x14b2 /home/roscube/Desktop/UMSD_v7.0.0_comb/UMSD_v7.0.0/obj/src/driver/msdDrv_obj/msdHwAccess.o
                0x0000000000000ea0                msdSetSMIC45PhyReg
                0x0000000000000f10                msdGetSMIC45PhyReg
                0x0000000000000f80                msdSetSMIPhyReg
                0x0000000000000fe0                msdGetSMIPhyReg
                0x0000000000001040                msdSetSMIPhyXMDIOReg
                0x00000000000010b0                msdGetSMIPhyXMDIOReg
                0x0000000000001120                msdSetSMIExtPhyReg
                0x0000000000001180                msdGetSMIExtPhyReg
                0x00000000000011e0                msdSetSMIExtPhyXMDIOReg
                0x0000000000001250                msdGetSMIExtPhyXMDIOReg
                0x00000000000012c0                msdRmuTxRxPkt
                0x00000000000012f0                msdRmuReqPktCreate
                0x0000000000001500                msdRmuPackEthReqPkt
                0x0000000000001840                msdSetAnyReg
                0x0000000000001940                msdSetAnyExtendedReg
                0x0000000000001ba0                msdGetAnyReg
                0x0000000000001c90                msdSetAnyRegField
                0x0000000000001d60                msdGetAnyRegField
                0x0000000000001e10                msdGetAnyExtendedReg
                0x0000000000001f90                msdSetAnyExtendedRegField
                0x0000000000002080                msdGetAnyExtendedRegField
 *fill*         0x0000000000002122        0xe 
 .text          0x0000000000002130       0x76 /home/roscube/Desktop/UMSD_v7.0.0_comb/UMSD_v7.0.0/obj/src/driver/msdDrv_obj/msdVersion.o
                0x0000000000002130                msdVersion
 *fill*         0x00000000000021a6        0xa 
 .text          0x00000000000021b0     0xdc74 /home/roscube/Desktop/UMSD_v7.0.0_comb/UMSD_v7.0.0/obj/src/driver/msdDrv_obj/msdDevObj.o
                0x00000000000021b0                InitDevObj
 *(.gnu.warning)

.text.unlikely  0x0000000000000000        0xa
 .text.unlikely
                0x0000000000000000        0xa /home/roscube/Desktop/UMSD_v7.0.0_comb/UMSD_v7.0.0/obj/src/driver/msdDrv_obj/msdHwAccess.o

.fini
 *(SORT_NONE(.fini))

.rodata         0x0000000000000000       0x7c
 *(.rodata)
 .rodata        0x0000000000000000       0x2c /home/roscube/Desktop/UMSD_v7.0.0_comb/UMSD_v7.0.0/obj/src/driver/msdDrv_obj/msdSysConfig.o
 .rodata        0x000000000000002c       0x24 /home/roscube/Desktop/UMSD_v7.0.0_comb/UMSD_v7.0.0/obj/src/driver/msdDrv_obj/msdHwAccess.o
 .rodata        0x0000000000000050       0x2c /home/roscube/Desktop/UMSD_v7.0.0_comb/UMSD_v7.0.0/obj/src/driver/msdDrv_obj/msdDevObj.o

.rodata1
 *(.rodata1)

.eh_frame_hdr
 *(.eh_frame_hdr)

.eh_frame       0x0000000000000000      0x99c
 *(.eh_frame)
 .eh_frame      0x0000000000000000      0x170 /home/roscube/Desktop/UMSD_v7.0.0_comb/UMSD_v7.0.0/obj/src/driver/msdDrv_obj/msdSysConfig.o
 .eh_frame      0x0000000000000170      0x798 /home/roscube/Desktop/UMSD_v7.0.0_comb/UMSD_v7.0.0/obj/src/driver/msdDrv_obj/msdHwAccess.o
 .eh_frame      0x0000000000000908       0x50 /home/roscube/Desktop/UMSD_v7.0.0_comb/UMSD_v7.0.0/obj/src/driver/msdDrv_obj/msdVersion.o
 .eh_frame      0x0000000000000958       0x44 /home/roscube/Desktop/UMSD_v7.0.0_comb/UMSD_v7.0.0/obj/src/driver/msdDrv_obj/msdDevObj.o
                                         0x48 (size before relaxing)

.gcc_except_table
 *(.gcc_except_table)

.gnu_extab
 *(.gnu_extab*)

.exception_ranges
 *(.exception_ranges)

.eh_frame
 *(.eh_frame)

.gnu_extab
 *(.gnu_extab)

.gcc_except_table
 *(.gcc_except_table)

.exception_ranges
 *(.exception_ranges)

.tdata
 *(.tdata)

.tbss
 *(.tbss)

.jcr
 *(.jcr)

.dynamic
 *(.dynamic)

.got
 *(.got)

.got.plt
 *(.got.plt)

.data           0x0000000000000000        0x6
 *(.data)
 .data          0x0000000000000000        0x0 /home/roscube/Desktop/UMSD_v7.0.0_comb/UMSD_v7.0.0/obj/src/driver/msdDrv_obj/msdSysConfig.o
 .data          0x0000000000000000        0x0 /home/roscube/Desktop/UMSD_v7.0.0_comb/UMSD_v7.0.0/obj/src/driver/msdDrv_obj/msdHwAccess.o
 .data          0x0000000000000000        0x6 /home/roscube/Desktop/UMSD_v7.0.0_comb/UMSD_v7.0.0/obj/src/driver/msdDrv_obj/msdVersion.o
                0x0000000000000000                msdApiVersion
 .data          0x0000000000000006        0x0 /home/roscube/Desktop/UMSD_v7.0.0_comb/UMSD_v7.0.0/obj/src/driver/msdDrv_obj/msdDevObj.o

.data1
 *(.data1)

.bss            0x0000000000000000    0x23900
 *(.bss)
 .bss           0x0000000000000000    0x23900 /home/roscube/Desktop/UMSD_v7.0.0_comb/UMSD_v7.0.0/obj/src/driver/msdDrv_obj/msdSysConfig.o
 .bss           0x0000000000023900        0x0 /home/roscube/Desktop/UMSD_v7.0.0_comb/UMSD_v7.0.0/obj/src/driver/msdDrv_obj/msdHwAccess.o
 .bss           0x0000000000023900        0x0 /home/roscube/Desktop/UMSD_v7.0.0_comb/UMSD_v7.0.0/obj/src/driver/msdDrv_obj/msdVersion.o
 .bss           0x0000000000023900        0x0 /home/roscube/Desktop/UMSD_v7.0.0_comb/UMSD_v7.0.0/obj/src/driver/msdDrv_obj/msdDevObj.o

.lbss
 *(.lbss)

.lrodata
 *(.lrodata)

.ldata
 *(.ldata)

.stab
 *(.stab)

.stabstr
 *(.stabstr)

.stab.excl
 *(.stab.excl)

.stab.exclstr
 *(.stab.exclstr)

.stab.index
 *(.stab.index)

.stab.indexstr
 *(.stab.indexstr)

.comment        0x0000000000000000       0xb0
 *(.comment)
 .comment       0x0000000000000000       0x2c /home/roscube/Desktop/UMSD_v7.0.0_comb/UMSD_v7.0.0/obj/src/driver/msdDrv_obj/msdSysConfig.o
 .comment       0x000000000000002c       0x2c /home/roscube/Desktop/UMSD_v7.0.0_comb/UMSD_v7.0.0/obj/src/driver/msdDrv_obj/msdHwAccess.o
 .comment       0x0000000000000058       0x2c /home/roscube/Desktop/UMSD_v7.0.0_comb/UMSD_v7.0.0/obj/src/driver/msdDrv_obj/msdVersion.o
 .comment       0x0000000000000084       0x2c /home/roscube/Desktop/UMSD_v7.0.0_comb/UMSD_v7.0.0/obj/src/driver/msdDrv_obj/msdDevObj.o

.note.GNU-stack
                0x0000000000000000        0x0
 .note.GNU-stack
                0x0000000000000000        0x0 /home/roscube/Desktop/UMSD_v7.0.0_comb/UMSD_v7.0.0/obj/src/driver/msdDrv_obj/msdSysConfig.o
 .note.GNU-stack
                0x0000000000000000        0x0 /home/roscube/Desktop/UMSD_v7.0.0_comb/UMSD_v7.0.0/obj/src/driver/msdDrv_obj/msdHwAccess.o
 .note.GNU-stack
                0x0000000000000000        0x0 /home/roscube/Desktop/UMSD_v7.0.0_comb/UMSD_v7.0.0/obj/src/driver/msdDrv_obj/msdVersion.o
 .note.GNU-stack
                0x0000000000000000        0x0 /home/roscube/Desktop/UMSD_v7.0.0_comb/UMSD_v7.0.0/obj/src/driver/msdDrv_obj/msdDevObj.o

.gnu.build.attributes
 *(.gnu.build.attributes)

.debug
 *(.debug)

.line
 *(.line)

.debug_srcinfo
 *(.debug_srcinfo)

.debug_sfnames
 *(.debug_sfnames)

.debug_aranges
 *(.debug_aranges)

.debug_pubnames
 *(.debug_pubnames)

.debug_info
 *(.debug_info)

.debug_abbrev
 *(.debug_abbrev)

.debug_line
 *(.debug_line)

.debug_frame
 *(.debug_frame)

.debug_str
 *(.debug_str)

.debug_loc
 *(.debug_loc)

.debug_macinfo
 *(.debug_macinfo)

.debug_weaknames
 *(.debug_weaknames)

.debug_funcnames
 *(.debug_funcnames)

.debug_typenames
 *(.debug_typenames)

.debug_varnames
 *(.debug_varnames)

.debug_pubtypes
 *(.debug_pubtypes)

.debug_ranges
 *(.debug_ranges)

.debug_addr
 *(.debug_addr)

.debug_line_str
 *(.debug_line_str)

.debug_loclists
 *(.debug_loclists)

.debug_macro
 *(.debug_macro)

.debug_names
 *(.debug_names)

.debug_rnglists
 *(.debug_rnglists)

.debug_str_offsets
 *(.debug_str_offsets)

.debug_sup
 *(.debug_sup)

.gnu.attributes
 *(.gnu.attributes)
OUTPUT(/home/roscube/Desktop/UMSD_v7.0.0_comb/UMSD_v7.0.0/obj/src/driver/msdDrv_obj/driver.o elf64-x86-64)
